; ModuleID = '/home/hjiang/ResOpt/experiment/mem2reg verification/llfi/LULESH-llfi_index.ll'
source_filename = "LULESH.cc"
target datalayout = "e-m:e-p270:32:32-p271:32:32-p272:64:64-i64:64-f80:128-n8:16:32:64-S128"
target triple = "x86_64-unknown-linux-gnu"

%struct.Mesh = type { %"class.std::vector", %"class.std::vector", %"class.std::vector", %"class.std::vector", %"class.std::vector", %"class.std::vector", %"class.std::vector", %"class.std::vector", %"class.std::vector", %"class.std::vector", %"class.std::vector", %"class.std::vector", %"class.std::vector", %"class.std::vector.0", %"class.std::vector.0", %"class.std::vector.0", %"class.std::vector.0", %"class.std::vector.0", %"class.std::vector.0", %"class.std::vector.0", %"class.std::vector.0", %"class.std::vector.0", %"class.std::vector.0", %"class.std::vector.0", %"class.std::vector.0", %"class.std::vector", %"class.std::vector", %"class.std::vector", %"class.std::vector", %"class.std::vector", %"class.std::vector", %"class.std::vector", %"class.std::vector", %"class.std::vector", %"class.std::vector", %"class.std::vector", %"class.std::vector", %"class.std::vector", %"class.std::vector", %"class.std::vector", %"class.std::vector", %"class.std::vector", %"class.std::vector", %"class.std::vector", %"class.std::vector", %"class.std::vector", %"class.std::vector", double, double, double, double, double, double, double, double, double, double, double, double, double, double, double, double, double, double, double, double, double, double, double, double, double, double, double, double, i32, i32, i32, i32, i32, i32 }
%"class.std::vector.0" = type { %"struct.std::_Vector_base.1" }
%"struct.std::_Vector_base.1" = type { %"struct.std::_Vector_base<int, std::allocator<int>>::_Vector_impl" }
%"struct.std::_Vector_base<int, std::allocator<int>>::_Vector_impl" = type { %"struct.std::_Vector_base<int, std::allocator<int>>::_Vector_impl_data" }
%"struct.std::_Vector_base<int, std::allocator<int>>::_Vector_impl_data" = type { i32*, i32*, i32* }
%"class.std::vector" = type { %"struct.std::_Vector_base" }
%"struct.std::_Vector_base" = type { %"struct.std::_Vector_base<double, std::allocator<double>>::_Vector_impl" }
%"struct.std::_Vector_base<double, std::allocator<double>>::_Vector_impl" = type { %"struct.std::_Vector_base<double, std::allocator<double>>::_Vector_impl_data" }
%"struct.std::_Vector_base<double, std::allocator<double>>::_Vector_impl_data" = type { double*, double*, double* }
%struct.timeval = type { i64, i64 }
%struct._IO_FILE = type { i32, i8*, i8*, i8*, i8*, i8*, i8*, i8*, i8*, i8*, i8*, i8*, %struct._IO_marker*, %struct._IO_FILE*, i32, i32, i64, i16, i8, [1 x i8], i8*, i64, %struct._IO_codecvt*, %struct._IO_wide_data*, %struct._IO_FILE*, i8*, i64, i32, [20 x i8] }
%struct._IO_marker = type opaque
%struct._IO_codecvt = type opaque
%struct._IO_wide_data = type opaque
%"class.std::allocator" = type { i8 }
%"class.__gnu_cxx::new_allocator" = type { i8 }
%"class.std::allocator.2" = type { i8 }
%"class.__gnu_cxx::new_allocator.3" = type { i8 }
%"class.__gnu_cxx::__normal_iterator" = type { double* }
%"struct.std::integral_constant" = type { i8 }
%"struct.std::vector<double>::_Temporary_value" = type { %"class.std::vector"*, %"union.std::aligned_storage<8, 8>::type" }
%"union.std::aligned_storage<8, 8>::type" = type { [8 x i8] }
%"class.std::move_iterator" = type { double* }

$_ZN4MeshC2Ev = comdat any

$_ZN4MeshD2Ev = comdat any

$_ZN4Mesh8stoptimeEv = comdat any

$_ZN4Mesh4timeEv = comdat any

$_ZN4Mesh7dtfixedEv = comdat any

$_ZN4Mesh5cycleEv = comdat any

$_ZN4Mesh9deltatimeEv = comdat any

$_ZN4Mesh9dtcourantEv = comdat any

$_ZN4Mesh7dthydroEv = comdat any

$_ZN4Mesh15deltatimemultlbEv = comdat any

$_ZN4Mesh15deltatimemultubEv = comdat any

$_ZN4Mesh5dtmaxEv = comdat any

$_ZN4Mesh1pEi = comdat any

$_ZN4Mesh1qEi = comdat any

$_ZN4Mesh8nodelistEi = comdat any

$_ZN4Mesh1xEi = comdat any

$_ZN4Mesh1yEi = comdat any

$_ZN4Mesh1zEi = comdat any

$_ZN4Mesh2fxEi = comdat any

$_ZN4Mesh2fyEi = comdat any

$_ZN4Mesh2fzEi = comdat any

$_ZN4Mesh7numElemEv = comdat any

$_ZN4Mesh2ssEi = comdat any

$_ZN4Mesh8elemMassEi = comdat any

$_Z4CBRTd = comdat any

$_ZN4Mesh2xdEi = comdat any

$_ZN4Mesh2ydEi = comdat any

$_ZN4Mesh2zdEi = comdat any

$_Z8AllocateIdEPT_m = comdat any

$_ZN4Mesh4voloEi = comdat any

$_ZN4Mesh1vEi = comdat any

$_Z7ReleaseIdEvPPT_ = comdat any

$_ZN4Mesh6hgcoefEv = comdat any

$_ZN4Mesh7numNodeEv = comdat any

$_ZN4Mesh9nodalMassEi = comdat any

$_ZN4Mesh3xddEi = comdat any

$_ZN4Mesh3yddEi = comdat any

$_ZN4Mesh3zddEi = comdat any

$_ZN4Mesh5sizeXEv = comdat any

$_ZN4Mesh5symmXEi = comdat any

$_ZN4Mesh5symmYEi = comdat any

$_ZN4Mesh5symmZEi = comdat any

$_Z4FABSd = comdat any

$_ZN4Mesh5u_cutEv = comdat any

$_ZSt3maxIdERKT_S2_S2_ = comdat any

$_Z4SQRTd = comdat any

$_ZN4Mesh4vnewEi = comdat any

$_ZN4Mesh4delvEi = comdat any

$_ZN4Mesh6arealgEi = comdat any

$_ZN4Mesh3dxxEi = comdat any

$_ZN4Mesh3dyyEi = comdat any

$_ZN4Mesh3dzzEi = comdat any

$_ZN4Mesh4vdovEi = comdat any

$_ZN4Mesh9delx_zetaEi = comdat any

$_ZN4Mesh9delv_zetaEi = comdat any

$_ZN4Mesh7delx_xiEi = comdat any

$_ZN4Mesh7delv_xiEi = comdat any

$_ZN4Mesh8delx_etaEi = comdat any

$_ZN4Mesh8delv_etaEi = comdat any

$_ZN4Mesh11matElemlistEi = comdat any

$_ZN4Mesh6elemBCEi = comdat any

$_ZN4Mesh4lximEi = comdat any

$_ZN4Mesh4lxipEi = comdat any

$_ZN4Mesh5letamEi = comdat any

$_ZN4Mesh5letapEi = comdat any

$_ZN4Mesh6lzetamEi = comdat any

$_ZN4Mesh6lzetapEi = comdat any

$_ZN4Mesh2qqEi = comdat any

$_ZN4Mesh2qlEi = comdat any

$_ZN4Mesh15monoq_max_slopeEv = comdat any

$_ZN4Mesh18monoq_limiter_multEv = comdat any

$_ZN4Mesh9qlc_monoqEv = comdat any

$_ZN4Mesh9qqc_monoqEv = comdat any

$_ZN4Mesh5qstopEv = comdat any

$_ZN4Mesh5e_cutEv = comdat any

$_ZN4Mesh5p_cutEv = comdat any

$_ZN4Mesh5ss4o3Ev = comdat any

$_ZN4Mesh5q_cutEv = comdat any

$_ZN4Mesh7eosvmaxEv = comdat any

$_ZN4Mesh7eosvminEv = comdat any

$_ZN4Mesh4pminEv = comdat any

$_ZN4Mesh4eminEv = comdat any

$_ZN4Mesh7refdensEv = comdat any

$_ZN4Mesh1eEi = comdat any

$_ZN4Mesh5v_cutEv = comdat any

$_ZN4Mesh3qqcEv = comdat any

$_ZN4Mesh7dvovmaxEv = comdat any

$_ZN4Mesh5sizeYEv = comdat any

$_ZN4Mesh5sizeZEv = comdat any

$_ZN4Mesh22AllocateElemPersistentEm = comdat any

$_ZN4Mesh21AllocateElemTemporaryEm = comdat any

$_ZN4Mesh23AllocateNodalPersistentEm = comdat any

$_ZN4Mesh16AllocateNodesetsEm = comdat any

$_ZNSt6vectorIdSaIdEEC2Ev = comdat any

$_ZNSt6vectorIiSaIiEEC2Ev = comdat any

$_ZNSt12_Vector_baseIdSaIdEEC2Ev = comdat any

$_ZNSt12_Vector_baseIdSaIdEE12_Vector_implC2Ev = comdat any

$_ZNSaIdEC2Ev = comdat any

$_ZNSt12_Vector_baseIdSaIdEE17_Vector_impl_dataC2Ev = comdat any

$_ZN9__gnu_cxx13new_allocatorIdEC2Ev = comdat any

$_ZNSt12_Vector_baseIiSaIiEEC2Ev = comdat any

$_ZNSt12_Vector_baseIiSaIiEE12_Vector_implC2Ev = comdat any

$_ZNSaIiEC2Ev = comdat any

$_ZNSt12_Vector_baseIiSaIiEE17_Vector_impl_dataC2Ev = comdat any

$_ZN9__gnu_cxx13new_allocatorIiEC2Ev = comdat any

$_ZNSt6vectorIdSaIdEED2Ev = comdat any

$_ZNSt6vectorIiSaIiEED2Ev = comdat any

$_ZSt8_DestroyIPddEvT_S1_RSaIT0_E = comdat any

$_ZNSt12_Vector_baseIdSaIdEE19_M_get_Tp_allocatorEv = comdat any

$_ZNSt12_Vector_baseIdSaIdEED2Ev = comdat any

$__clang_call_terminate = comdat any

$_ZSt8_DestroyIPdEvT_S1_ = comdat any

$_ZNSt12_Destroy_auxILb1EE9__destroyIPdEEvT_S3_ = comdat any

$_ZNSt12_Vector_baseIdSaIdEE13_M_deallocateEPdm = comdat any

$_ZNSt12_Vector_baseIdSaIdEE12_Vector_implD2Ev = comdat any

$_ZNSt16allocator_traitsISaIdEE10deallocateERS0_Pdm = comdat any

$_ZN9__gnu_cxx13new_allocatorIdE10deallocateEPdm = comdat any

$_ZNSaIdED2Ev = comdat any

$_ZN9__gnu_cxx13new_allocatorIdED2Ev = comdat any

$_ZSt8_DestroyIPiiEvT_S1_RSaIT0_E = comdat any

$_ZNSt12_Vector_baseIiSaIiEE19_M_get_Tp_allocatorEv = comdat any

$_ZNSt12_Vector_baseIiSaIiEED2Ev = comdat any

$_ZSt8_DestroyIPiEvT_S1_ = comdat any

$_ZNSt12_Destroy_auxILb1EE9__destroyIPiEEvT_S3_ = comdat any

$_ZNSt12_Vector_baseIiSaIiEE13_M_deallocateEPim = comdat any

$_ZNSt12_Vector_baseIiSaIiEE12_Vector_implD2Ev = comdat any

$_ZNSt16allocator_traitsISaIiEE10deallocateERS0_Pim = comdat any

$_ZN9__gnu_cxx13new_allocatorIiE10deallocateEPim = comdat any

$_ZNSaIiED2Ev = comdat any

$_ZN9__gnu_cxx13new_allocatorIiED2Ev = comdat any

$_ZNSt6vectorIdSaIdEEixEm = comdat any

$_ZNSt6vectorIiSaIiEEixEm = comdat any

$_ZNSt6vectorIiSaIiEE6resizeEm = comdat any

$_ZNSt6vectorIdSaIdEE6resizeEmRKd = comdat any

$_ZNSt6vectorIdSaIdEE6resizeEm = comdat any

$_ZNKSt6vectorIiSaIiEE4sizeEv = comdat any

$_ZNSt6vectorIiSaIiEE17_M_default_appendEm = comdat any

$_ZNSt6vectorIiSaIiEE15_M_erase_at_endEPi = comdat any

$_ZNKSt6vectorIiSaIiEE8max_sizeEv = comdat any

$_ZSt27__uninitialized_default_n_aIPimiET_S1_T0_RSaIT1_E = comdat any

$_ZNKSt6vectorIiSaIiEE12_M_check_lenEmPKc = comdat any

$_ZNSt12_Vector_baseIiSaIiEE11_M_allocateEm = comdat any

$_ZNSt6vectorIiSaIiEE11_S_relocateEPiS2_S2_RS0_ = comdat any

$_ZNSt6vectorIiSaIiEE11_S_max_sizeERKS0_ = comdat any

$_ZNKSt12_Vector_baseIiSaIiEE19_M_get_Tp_allocatorEv = comdat any

$_ZNSt16allocator_traitsISaIiEE8max_sizeERKS0_ = comdat any

$_ZSt3minImERKT_S2_S2_ = comdat any

$_ZNK9__gnu_cxx13new_allocatorIiE8max_sizeEv = comdat any

$_ZSt25__uninitialized_default_nIPimET_S1_T0_ = comdat any

$_ZNSt27__uninitialized_default_n_1ILb1EE18__uninit_default_nIPimEET_S3_T0_ = comdat any

$_ZSt6fill_nIPimiET_S1_T0_RKT1_ = comdat any

$_ZSt12__niter_wrapIPiET_RKS1_S1_ = comdat any

$_ZSt10__fill_n_aIPimiEN9__gnu_cxx11__enable_ifIXsr11__is_scalarIT1_EE7__valueET_E6__typeES4_T0_RKS3_ = comdat any

$_ZSt12__niter_baseIPiET_S1_ = comdat any

$_ZSt3maxImERKT_S2_S2_ = comdat any

$_ZNSt16allocator_traitsISaIiEE8allocateERS0_m = comdat any

$_ZN9__gnu_cxx13new_allocatorIiE8allocateEmPKv = comdat any

$_ZNSt6vectorIiSaIiEE14_S_do_relocateEPiS2_S2_RS0_St17integral_constantIbLb1EE = comdat any

$_ZSt12__relocate_aIPiS0_SaIiEET0_T_S3_S2_RT1_ = comdat any

$_ZSt14__relocate_a_1IiiENSt9enable_ifIXsr3std24__is_bitwise_relocatableIT_EE5valueEPS1_E4typeES2_S2_S2_RSaIT0_E = comdat any

$_ZNKSt6vectorIdSaIdEE4sizeEv = comdat any

$_ZNSt6vectorIdSaIdEE14_M_fill_insertEN9__gnu_cxx17__normal_iteratorIPdS1_EEmRKd = comdat any

$_ZNSt6vectorIdSaIdEE3endEv = comdat any

$_ZNSt6vectorIdSaIdEE15_M_erase_at_endEPd = comdat any

$_ZNSt6vectorIdSaIdEE16_Temporary_valueC2IJRKdEEEPS1_DpOT_ = comdat any

$_ZNSt6vectorIdSaIdEE16_Temporary_value6_M_valEv = comdat any

$_ZN9__gnu_cxxmiIPdSt6vectorIdSaIdEEEENS_17__normal_iteratorIT_T0_E15difference_typeERKS8_SB_ = comdat any

$_ZSt22__uninitialized_move_aIPdS0_SaIdEET0_T_S3_S2_RT1_ = comdat any

$_ZSt13move_backwardIPdS0_ET0_T_S2_S1_ = comdat any

$_ZNK9__gnu_cxx17__normal_iteratorIPdSt6vectorIdSaIdEEE4baseEv = comdat any

$_ZSt4fillIPddEvT_S1_RKT0_ = comdat any

$_ZSt24__uninitialized_fill_n_aIPdmddET_S1_T0_RKT1_RSaIT2_E = comdat any

$_ZNSt6vectorIdSaIdEE16_Temporary_valueD2Ev = comdat any

$_ZNKSt6vectorIdSaIdEE12_M_check_lenEmPKc = comdat any

$_ZNSt6vectorIdSaIdEE5beginEv = comdat any

$_ZNSt12_Vector_baseIdSaIdEE11_M_allocateEm = comdat any

$_ZSt34__uninitialized_move_if_noexcept_aIPdS0_SaIdEET0_T_S3_S2_RT1_ = comdat any

$_ZNSt16allocator_traitsISaIdEE9constructIdJRKdEEEvRS0_PT_DpOT0_ = comdat any

$_ZNSt6vectorIdSaIdEE16_Temporary_value6_M_ptrEv = comdat any

$_ZSt7forwardIRKdEOT_RNSt16remove_referenceIS2_E4typeE = comdat any

$_ZN9__gnu_cxx13new_allocatorIdE9constructIdJRKdEEEvPT_DpOT0_ = comdat any

$_ZSt22__uninitialized_copy_aISt13move_iteratorIPdES1_dET0_T_S4_S3_RSaIT1_E = comdat any

$_ZSt18make_move_iteratorIPdESt13move_iteratorIT_ES2_ = comdat any

$_ZSt18uninitialized_copyISt13move_iteratorIPdES1_ET0_T_S4_S3_ = comdat any

$_ZNSt20__uninitialized_copyILb1EE13__uninit_copyISt13move_iteratorIPdES3_EET0_T_S6_S5_ = comdat any

$_ZSt4copyISt13move_iteratorIPdES1_ET0_T_S4_S3_ = comdat any

$_ZSt14__copy_move_a2ILb1EPdS0_ET1_T0_S2_S1_ = comdat any

$_ZSt12__miter_baseIPdEDTcl12__miter_basecldtfp_4baseEEESt13move_iteratorIT_E = comdat any

$_ZSt12__niter_wrapIPdET_RKS1_S1_ = comdat any

$_ZSt13__copy_move_aILb1EPdS0_ET1_T0_S2_S1_ = comdat any

$_ZSt12__niter_baseIPdET_S1_ = comdat any

$_ZNSt11__copy_moveILb1ELb1ESt26random_access_iterator_tagE8__copy_mIdEEPT_PKS3_S6_S4_ = comdat any

$_ZSt12__miter_baseIPdET_S1_ = comdat any

$_ZNKSt13move_iteratorIPdE4baseEv = comdat any

$_ZNSt13move_iteratorIPdEC2ES0_ = comdat any

$_ZSt23__copy_move_backward_a2ILb1EPdS0_ET1_T0_S2_S1_ = comdat any

$_ZSt22__copy_move_backward_aILb1EPdS0_ET1_T0_S2_S1_ = comdat any

$_ZNSt20__copy_move_backwardILb1ELb1ESt26random_access_iterator_tagE13__copy_move_bIdEEPT_PKS3_S6_S4_ = comdat any

$_ZSt8__fill_aIPddEN9__gnu_cxx11__enable_ifIXsr11__is_scalarIT0_EE7__valueEvE6__typeET_S6_RKS3_ = comdat any

$_ZSt20uninitialized_fill_nIPdmdET_S1_T0_RKT1_ = comdat any

$_ZNSt22__uninitialized_fill_nILb1EE15__uninit_fill_nIPdmdEET_S3_T0_RKT1_ = comdat any

$_ZSt6fill_nIPdmdET_S1_T0_RKT1_ = comdat any

$_ZSt10__fill_n_aIPdmdEN9__gnu_cxx11__enable_ifIXsr11__is_scalarIT1_EE7__valueET_E6__typeES4_T0_RKS3_ = comdat any

$_ZNSt16allocator_traitsISaIdEE7destroyIdEEvRS0_PT_ = comdat any

$_ZN9__gnu_cxx13new_allocatorIdE7destroyIdEEvPT_ = comdat any

$_ZNKSt6vectorIdSaIdEE8max_sizeEv = comdat any

$_ZNSt6vectorIdSaIdEE11_S_max_sizeERKS0_ = comdat any

$_ZNKSt12_Vector_baseIdSaIdEE19_M_get_Tp_allocatorEv = comdat any

$_ZNSt16allocator_traitsISaIdEE8max_sizeERKS0_ = comdat any

$_ZNK9__gnu_cxx13new_allocatorIdE8max_sizeEv = comdat any

$_ZN9__gnu_cxx17__normal_iteratorIPdSt6vectorIdSaIdEEEC2ERKS1_ = comdat any

$_ZNSt16allocator_traitsISaIdEE8allocateERS0_m = comdat any

$_ZN9__gnu_cxx13new_allocatorIdE8allocateEmPKv = comdat any

$_ZSt32__make_move_if_noexcept_iteratorIdSt13move_iteratorIPdEET0_PT_ = comdat any

$_ZNSt6vectorIdSaIdEE17_M_default_appendEm = comdat any

$_ZSt27__uninitialized_default_n_aIPdmdET_S1_T0_RSaIT1_E = comdat any

$_ZNSt6vectorIdSaIdEE11_S_relocateEPdS2_S2_RS0_ = comdat any

$_ZSt25__uninitialized_default_nIPdmET_S1_T0_ = comdat any

$_ZNSt27__uninitialized_default_n_1ILb1EE18__uninit_default_nIPdmEET_S3_T0_ = comdat any

$_ZNSt6vectorIdSaIdEE14_S_do_relocateEPdS2_S2_RS0_St17integral_constantIbLb1EE = comdat any

$_ZSt12__relocate_aIPdS0_SaIdEET0_T_S3_S2_RT1_ = comdat any

$_ZSt14__relocate_a_1IddENSt9enable_ifIXsr3std24__is_bitwise_relocatableIT_EE5valueEPS1_E4typeES2_S2_S2_RSaIT0_E = comdat any

@mesh = dso_local global %struct.Mesh zeroinitializer, align 8
@.str = private unnamed_addr constant [12 x i8] c"element.dat\00", align 1
@.str.1 = private unnamed_addr constant [2 x i8] c"w\00", align 1
@.str.2 = private unnamed_addr constant [5 x i8] c"%f \0A\00", align 1
@.str.3 = private unnamed_addr constant [26 x i8] c"vector::_M_default_append\00", align 1
@.str.4 = private unnamed_addr constant [23 x i8] c"vector::_M_fill_insert\00", align 1
@llvm.global_ctors = appending global [1 x { i32, void ()*, i8* }] [{ i32, void ()*, i8* } { i32 65535, void ()* @_GLOBAL__sub_I_LULESH.cc, i8* null }]
@call_namestr = internal constant [5 x i8] c"call\00"
@alloca_namestr = internal constant [7 x i8] c"alloca\00"
@load_namestr = internal constant [5 x i8] c"load\00"
@fsub_namestr = internal constant [5 x i8] c"fsub\00"
@icmp_namestr = internal constant [5 x i8] c"icmp\00"
@fneg_namestr = internal constant [5 x i8] c"fneg\00"
@sext_namestr = internal constant [5 x i8] c"sext\00"
@add_namestr = internal constant [4 x i8] c"add\00"
@fcmp_namestr = internal constant [5 x i8] c"fcmp\00"
@fdiv_namestr = internal constant [5 x i8] c"fdiv\00"
@fmul_namestr = internal constant [5 x i8] c"fmul\00"
@fadd_namestr = internal constant [5 x i8] c"fadd\00"
@mul_namestr = internal constant [4 x i8] c"mul\00"
@bitcast_namestr = internal constant [8 x i8] c"bitcast\00"
@and_namestr = internal constant [4 x i8] c"and\00"
@sitofp_namestr = internal constant [7 x i8] c"sitofp\00"
@sub_namestr = internal constant [4 x i8] c"sub\00"
@or_namestr = internal constant [3 x i8] c"or\00"
@extractvalue_namestr = internal constant [13 x i8] c"extractvalue\00"
@ptrtoint_namestr = internal constant [9 x i8] c"ptrtoint\00"
@sdiv_namestr = internal constant [5 x i8] c"sdiv\00"
@insertvalue_namestr = internal constant [12 x i8] c"insertvalue\00"
@phi_namestr = internal constant [4 x i8] c"phi\00"

; Function Attrs: noinline uwtable
define internal void @__cxx_global_var_init() #0 section ".text.startup" {
  call void @_ZN4MeshC2Ev(%struct.Mesh* nonnull align 8 dereferenceable(1376) @mesh) #2, !llfi_index !4
  %1 = call i32 @atexit(void ()* @__dtor_mesh) #2, !llfi_index !5
  %fi = call i32 @injectFault2(i64 2, i32 %1, i32 56, i32 0, i32 1, i32 0, i8* getelementptr inbounds ([5 x i8], [5 x i8]* @call_namestr, i32 0, i32 0)), !llfi_injectfault !6
  ret void, !llfi_index !7
}

; Function Attrs: noinline nounwind uwtable
define linkonce_odr dso_local void @_ZN4MeshC2Ev(%struct.Mesh* nonnull align 8 dereferenceable(1376) %0) unnamed_addr #1 comdat align 2 {
  %2 = alloca %struct.Mesh*, align 8, !llfi_index !8
  %fi = call %struct.Mesh** @injectFault1(i64 4, %struct.Mesh** %2, i32 31, i32 0, i32 1, i32 0, i8* getelementptr inbounds ([7 x i8], [7 x i8]* @alloca_namestr, i32 0, i32 0)), !llfi_injectfault !6
  store %struct.Mesh* %0, %struct.Mesh** %fi, align 8, !llfi_index !9
  %3 = load %struct.Mesh*, %struct.Mesh** %fi, align 8, !llfi_index !10
  %fi1 = call %struct.Mesh* @injectFault3(i64 6, %struct.Mesh* %3, i32 32, i32 0, i32 1, i32 0, i8* getelementptr inbounds ([5 x i8], [5 x i8]* @load_namestr, i32 0, i32 0)), !llfi_injectfault !6
  %4 = getelementptr inbounds %struct.Mesh, %struct.Mesh* %fi1, i32 0, i32 0, !llfi_index !11
  call void @_ZNSt6vectorIdSaIdEEC2Ev(%"class.std::vector"* nonnull align 8 dereferenceable(24) %4) #2, !llfi_index !12
  %5 = getelementptr inbounds %struct.Mesh, %struct.Mesh* %fi1, i32 0, i32 1, !llfi_index !13
  call void @_ZNSt6vectorIdSaIdEEC2Ev(%"class.std::vector"* nonnull align 8 dereferenceable(24) %5) #2, !llfi_index !14
  %6 = getelementptr inbounds %struct.Mesh, %struct.Mesh* %fi1, i32 0, i32 2, !llfi_index !15
  call void @_ZNSt6vectorIdSaIdEEC2Ev(%"class.std::vector"* nonnull align 8 dereferenceable(24) %6) #2, !llfi_index !16
  %7 = getelementptr inbounds %struct.Mesh, %struct.Mesh* %fi1, i32 0, i32 3, !llfi_index !17
  call void @_ZNSt6vectorIdSaIdEEC2Ev(%"class.std::vector"* nonnull align 8 dereferenceable(24) %7) #2, !llfi_index !18
  %8 = getelementptr inbounds %struct.Mesh, %struct.Mesh* %fi1, i32 0, i32 4, !llfi_index !19
  call void @_ZNSt6vectorIdSaIdEEC2Ev(%"class.std::vector"* nonnull align 8 dereferenceable(24) %8) #2, !llfi_index !20
  %9 = getelementptr inbounds %struct.Mesh, %struct.Mesh* %fi1, i32 0, i32 5, !llfi_index !21
  call void @_ZNSt6vectorIdSaIdEEC2Ev(%"class.std::vector"* nonnull align 8 dereferenceable(24) %9) #2, !llfi_index !22
  %10 = getelementptr inbounds %struct.Mesh, %struct.Mesh* %fi1, i32 0, i32 6, !llfi_index !23
  call void @_ZNSt6vectorIdSaIdEEC2Ev(%"class.std::vector"* nonnull align 8 dereferenceable(24) %10) #2, !llfi_index !24
  %11 = getelementptr inbounds %struct.Mesh, %struct.Mesh* %fi1, i32 0, i32 7, !llfi_index !25
  call void @_ZNSt6vectorIdSaIdEEC2Ev(%"class.std::vector"* nonnull align 8 dereferenceable(24) %11) #2, !llfi_index !26
  %12 = getelementptr inbounds %struct.Mesh, %struct.Mesh* %fi1, i32 0, i32 8, !llfi_index !27
  call void @_ZNSt6vectorIdSaIdEEC2Ev(%"class.std::vector"* nonnull align 8 dereferenceable(24) %12) #2, !llfi_index !28
  %13 = getelementptr inbounds %struct.Mesh, %struct.Mesh* %fi1, i32 0, i32 9, !llfi_index !29
  call void @_ZNSt6vectorIdSaIdEEC2Ev(%"class.std::vector"* nonnull align 8 dereferenceable(24) %13) #2, !llfi_index !30
  %14 = getelementptr inbounds %struct.Mesh, %struct.Mesh* %fi1, i32 0, i32 10, !llfi_index !31
  call void @_ZNSt6vectorIdSaIdEEC2Ev(%"class.std::vector"* nonnull align 8 dereferenceable(24) %14) #2, !llfi_index !32
  %15 = getelementptr inbounds %struct.Mesh, %struct.Mesh* %fi1, i32 0, i32 11, !llfi_index !33
  call void @_ZNSt6vectorIdSaIdEEC2Ev(%"class.std::vector"* nonnull align 8 dereferenceable(24) %15) #2, !llfi_index !34
  %16 = getelementptr inbounds %struct.Mesh, %struct.Mesh* %fi1, i32 0, i32 12, !llfi_index !35
  call void @_ZNSt6vectorIdSaIdEEC2Ev(%"class.std::vector"* nonnull align 8 dereferenceable(24) %16) #2, !llfi_index !36
  %17 = getelementptr inbounds %struct.Mesh, %struct.Mesh* %fi1, i32 0, i32 13, !llfi_index !37
  call void @_ZNSt6vectorIiSaIiEEC2Ev(%"class.std::vector.0"* nonnull align 8 dereferenceable(24) %17) #2, !llfi_index !38
  %18 = getelementptr inbounds %struct.Mesh, %struct.Mesh* %fi1, i32 0, i32 14, !llfi_index !39
  call void @_ZNSt6vectorIiSaIiEEC2Ev(%"class.std::vector.0"* nonnull align 8 dereferenceable(24) %18) #2, !llfi_index !40
  %19 = getelementptr inbounds %struct.Mesh, %struct.Mesh* %fi1, i32 0, i32 15, !llfi_index !41
  call void @_ZNSt6vectorIiSaIiEEC2Ev(%"class.std::vector.0"* nonnull align 8 dereferenceable(24) %19) #2, !llfi_index !42
  %20 = getelementptr inbounds %struct.Mesh, %struct.Mesh* %fi1, i32 0, i32 16, !llfi_index !43
  call void @_ZNSt6vectorIiSaIiEEC2Ev(%"class.std::vector.0"* nonnull align 8 dereferenceable(24) %20) #2, !llfi_index !44
  %21 = getelementptr inbounds %struct.Mesh, %struct.Mesh* %fi1, i32 0, i32 17, !llfi_index !45
  call void @_ZNSt6vectorIiSaIiEEC2Ev(%"class.std::vector.0"* nonnull align 8 dereferenceable(24) %21) #2, !llfi_index !46
  %22 = getelementptr inbounds %struct.Mesh, %struct.Mesh* %fi1, i32 0, i32 18, !llfi_index !47
  call void @_ZNSt6vectorIiSaIiEEC2Ev(%"class.std::vector.0"* nonnull align 8 dereferenceable(24) %22) #2, !llfi_index !48
  %23 = getelementptr inbounds %struct.Mesh, %struct.Mesh* %fi1, i32 0, i32 19, !llfi_index !49
  call void @_ZNSt6vectorIiSaIiEEC2Ev(%"class.std::vector.0"* nonnull align 8 dereferenceable(24) %23) #2, !llfi_index !50
  %24 = getelementptr inbounds %struct.Mesh, %struct.Mesh* %fi1, i32 0, i32 20, !llfi_index !51
  call void @_ZNSt6vectorIiSaIiEEC2Ev(%"class.std::vector.0"* nonnull align 8 dereferenceable(24) %24) #2, !llfi_index !52
  %25 = getelementptr inbounds %struct.Mesh, %struct.Mesh* %fi1, i32 0, i32 21, !llfi_index !53
  call void @_ZNSt6vectorIiSaIiEEC2Ev(%"class.std::vector.0"* nonnull align 8 dereferenceable(24) %25) #2, !llfi_index !54
  %26 = getelementptr inbounds %struct.Mesh, %struct.Mesh* %fi1, i32 0, i32 22, !llfi_index !55
  call void @_ZNSt6vectorIiSaIiEEC2Ev(%"class.std::vector.0"* nonnull align 8 dereferenceable(24) %26) #2, !llfi_index !56
  %27 = getelementptr inbounds %struct.Mesh, %struct.Mesh* %fi1, i32 0, i32 23, !llfi_index !57
  call void @_ZNSt6vectorIiSaIiEEC2Ev(%"class.std::vector.0"* nonnull align 8 dereferenceable(24) %27) #2, !llfi_index !58
  %28 = getelementptr inbounds %struct.Mesh, %struct.Mesh* %fi1, i32 0, i32 24, !llfi_index !59
  call void @_ZNSt6vectorIiSaIiEEC2Ev(%"class.std::vector.0"* nonnull align 8 dereferenceable(24) %28) #2, !llfi_index !60
  %29 = getelementptr inbounds %struct.Mesh, %struct.Mesh* %fi1, i32 0, i32 25, !llfi_index !61
  call void @_ZNSt6vectorIdSaIdEEC2Ev(%"class.std::vector"* nonnull align 8 dereferenceable(24) %29) #2, !llfi_index !62
  %30 = getelementptr inbounds %struct.Mesh, %struct.Mesh* %fi1, i32 0, i32 26, !llfi_index !63
  call void @_ZNSt6vectorIdSaIdEEC2Ev(%"class.std::vector"* nonnull align 8 dereferenceable(24) %30) #2, !llfi_index !64
  %31 = getelementptr inbounds %struct.Mesh, %struct.Mesh* %fi1, i32 0, i32 27, !llfi_index !65
  call void @_ZNSt6vectorIdSaIdEEC2Ev(%"class.std::vector"* nonnull align 8 dereferenceable(24) %31) #2, !llfi_index !66
  %32 = getelementptr inbounds %struct.Mesh, %struct.Mesh* %fi1, i32 0, i32 28, !llfi_index !67
  call void @_ZNSt6vectorIdSaIdEEC2Ev(%"class.std::vector"* nonnull align 8 dereferenceable(24) %32) #2, !llfi_index !68
  %33 = getelementptr inbounds %struct.Mesh, %struct.Mesh* %fi1, i32 0, i32 29, !llfi_index !69
  call void @_ZNSt6vectorIdSaIdEEC2Ev(%"class.std::vector"* nonnull align 8 dereferenceable(24) %33) #2, !llfi_index !70
  %34 = getelementptr inbounds %struct.Mesh, %struct.Mesh* %fi1, i32 0, i32 30, !llfi_index !71
  call void @_ZNSt6vectorIdSaIdEEC2Ev(%"class.std::vector"* nonnull align 8 dereferenceable(24) %34) #2, !llfi_index !72
  %35 = getelementptr inbounds %struct.Mesh, %struct.Mesh* %fi1, i32 0, i32 31, !llfi_index !73
  call void @_ZNSt6vectorIdSaIdEEC2Ev(%"class.std::vector"* nonnull align 8 dereferenceable(24) %35) #2, !llfi_index !74
  %36 = getelementptr inbounds %struct.Mesh, %struct.Mesh* %fi1, i32 0, i32 32, !llfi_index !75
  call void @_ZNSt6vectorIdSaIdEEC2Ev(%"class.std::vector"* nonnull align 8 dereferenceable(24) %36) #2, !llfi_index !76
  %37 = getelementptr inbounds %struct.Mesh, %struct.Mesh* %fi1, i32 0, i32 33, !llfi_index !77
  call void @_ZNSt6vectorIdSaIdEEC2Ev(%"class.std::vector"* nonnull align 8 dereferenceable(24) %37) #2, !llfi_index !78
  %38 = getelementptr inbounds %struct.Mesh, %struct.Mesh* %fi1, i32 0, i32 34, !llfi_index !79
  call void @_ZNSt6vectorIdSaIdEEC2Ev(%"class.std::vector"* nonnull align 8 dereferenceable(24) %38) #2, !llfi_index !80
  %39 = getelementptr inbounds %struct.Mesh, %struct.Mesh* %fi1, i32 0, i32 35, !llfi_index !81
  call void @_ZNSt6vectorIdSaIdEEC2Ev(%"class.std::vector"* nonnull align 8 dereferenceable(24) %39) #2, !llfi_index !82
  %40 = getelementptr inbounds %struct.Mesh, %struct.Mesh* %fi1, i32 0, i32 36, !llfi_index !83
  call void @_ZNSt6vectorIdSaIdEEC2Ev(%"class.std::vector"* nonnull align 8 dereferenceable(24) %40) #2, !llfi_index !84
  %41 = getelementptr inbounds %struct.Mesh, %struct.Mesh* %fi1, i32 0, i32 37, !llfi_index !85
  call void @_ZNSt6vectorIdSaIdEEC2Ev(%"class.std::vector"* nonnull align 8 dereferenceable(24) %41) #2, !llfi_index !86
  %42 = getelementptr inbounds %struct.Mesh, %struct.Mesh* %fi1, i32 0, i32 38, !llfi_index !87
  call void @_ZNSt6vectorIdSaIdEEC2Ev(%"class.std::vector"* nonnull align 8 dereferenceable(24) %42) #2, !llfi_index !88
  %43 = getelementptr inbounds %struct.Mesh, %struct.Mesh* %fi1, i32 0, i32 39, !llfi_index !89
  call void @_ZNSt6vectorIdSaIdEEC2Ev(%"class.std::vector"* nonnull align 8 dereferenceable(24) %43) #2, !llfi_index !90
  %44 = getelementptr inbounds %struct.Mesh, %struct.Mesh* %fi1, i32 0, i32 40, !llfi_index !91
  call void @_ZNSt6vectorIdSaIdEEC2Ev(%"class.std::vector"* nonnull align 8 dereferenceable(24) %44) #2, !llfi_index !92
  %45 = getelementptr inbounds %struct.Mesh, %struct.Mesh* %fi1, i32 0, i32 41, !llfi_index !93
  call void @_ZNSt6vectorIdSaIdEEC2Ev(%"class.std::vector"* nonnull align 8 dereferenceable(24) %45) #2, !llfi_index !94
  %46 = getelementptr inbounds %struct.Mesh, %struct.Mesh* %fi1, i32 0, i32 42, !llfi_index !95
  call void @_ZNSt6vectorIdSaIdEEC2Ev(%"class.std::vector"* nonnull align 8 dereferenceable(24) %46) #2, !llfi_index !96
  %47 = getelementptr inbounds %struct.Mesh, %struct.Mesh* %fi1, i32 0, i32 43, !llfi_index !97
  call void @_ZNSt6vectorIdSaIdEEC2Ev(%"class.std::vector"* nonnull align 8 dereferenceable(24) %47) #2, !llfi_index !98
  %48 = getelementptr inbounds %struct.Mesh, %struct.Mesh* %fi1, i32 0, i32 44, !llfi_index !99
  call void @_ZNSt6vectorIdSaIdEEC2Ev(%"class.std::vector"* nonnull align 8 dereferenceable(24) %48) #2, !llfi_index !100
  %49 = getelementptr inbounds %struct.Mesh, %struct.Mesh* %fi1, i32 0, i32 45, !llfi_index !101
  call void @_ZNSt6vectorIdSaIdEEC2Ev(%"class.std::vector"* nonnull align 8 dereferenceable(24) %49) #2, !llfi_index !102
  %50 = getelementptr inbounds %struct.Mesh, %struct.Mesh* %fi1, i32 0, i32 46, !llfi_index !103
  call void @_ZNSt6vectorIdSaIdEEC2Ev(%"class.std::vector"* nonnull align 8 dereferenceable(24) %50) #2, !llfi_index !104
  ret void, !llfi_index !105
}

; Function Attrs: noinline nounwind uwtable
define linkonce_odr dso_local void @_ZN4MeshD2Ev(%struct.Mesh* nonnull align 8 dereferenceable(1376) %0) unnamed_addr #1 comdat align 2 {
  %2 = alloca %struct.Mesh*, align 8, !llfi_index !106
  %fi = call %struct.Mesh** @injectFault1(i64 102, %struct.Mesh** %2, i32 31, i32 0, i32 1, i32 0, i8* getelementptr inbounds ([7 x i8], [7 x i8]* @alloca_namestr, i32 0, i32 0)), !llfi_injectfault !6
  store %struct.Mesh* %0, %struct.Mesh** %fi, align 8, !llfi_index !107
  %3 = load %struct.Mesh*, %struct.Mesh** %fi, align 8, !llfi_index !108
  %fi1 = call %struct.Mesh* @injectFault3(i64 104, %struct.Mesh* %3, i32 32, i32 0, i32 1, i32 0, i8* getelementptr inbounds ([5 x i8], [5 x i8]* @load_namestr, i32 0, i32 0)), !llfi_injectfault !6
  %4 = getelementptr inbounds %struct.Mesh, %struct.Mesh* %fi1, i32 0, i32 46, !llfi_index !109
  call void @_ZNSt6vectorIdSaIdEED2Ev(%"class.std::vector"* nonnull align 8 dereferenceable(24) %4) #2, !llfi_index !110
  %5 = getelementptr inbounds %struct.Mesh, %struct.Mesh* %fi1, i32 0, i32 45, !llfi_index !111
  call void @_ZNSt6vectorIdSaIdEED2Ev(%"class.std::vector"* nonnull align 8 dereferenceable(24) %5) #2, !llfi_index !112
  %6 = getelementptr inbounds %struct.Mesh, %struct.Mesh* %fi1, i32 0, i32 44, !llfi_index !113
  call void @_ZNSt6vectorIdSaIdEED2Ev(%"class.std::vector"* nonnull align 8 dereferenceable(24) %6) #2, !llfi_index !114
  %7 = getelementptr inbounds %struct.Mesh, %struct.Mesh* %fi1, i32 0, i32 43, !llfi_index !115
  call void @_ZNSt6vectorIdSaIdEED2Ev(%"class.std::vector"* nonnull align 8 dereferenceable(24) %7) #2, !llfi_index !116
  %8 = getelementptr inbounds %struct.Mesh, %struct.Mesh* %fi1, i32 0, i32 42, !llfi_index !117
  call void @_ZNSt6vectorIdSaIdEED2Ev(%"class.std::vector"* nonnull align 8 dereferenceable(24) %8) #2, !llfi_index !118
  %9 = getelementptr inbounds %struct.Mesh, %struct.Mesh* %fi1, i32 0, i32 41, !llfi_index !119
  call void @_ZNSt6vectorIdSaIdEED2Ev(%"class.std::vector"* nonnull align 8 dereferenceable(24) %9) #2, !llfi_index !120
  %10 = getelementptr inbounds %struct.Mesh, %struct.Mesh* %fi1, i32 0, i32 40, !llfi_index !121
  call void @_ZNSt6vectorIdSaIdEED2Ev(%"class.std::vector"* nonnull align 8 dereferenceable(24) %10) #2, !llfi_index !122
  %11 = getelementptr inbounds %struct.Mesh, %struct.Mesh* %fi1, i32 0, i32 39, !llfi_index !123
  call void @_ZNSt6vectorIdSaIdEED2Ev(%"class.std::vector"* nonnull align 8 dereferenceable(24) %11) #2, !llfi_index !124
  %12 = getelementptr inbounds %struct.Mesh, %struct.Mesh* %fi1, i32 0, i32 38, !llfi_index !125
  call void @_ZNSt6vectorIdSaIdEED2Ev(%"class.std::vector"* nonnull align 8 dereferenceable(24) %12) #2, !llfi_index !126
  %13 = getelementptr inbounds %struct.Mesh, %struct.Mesh* %fi1, i32 0, i32 37, !llfi_index !127
  call void @_ZNSt6vectorIdSaIdEED2Ev(%"class.std::vector"* nonnull align 8 dereferenceable(24) %13) #2, !llfi_index !128
  %14 = getelementptr inbounds %struct.Mesh, %struct.Mesh* %fi1, i32 0, i32 36, !llfi_index !129
  call void @_ZNSt6vectorIdSaIdEED2Ev(%"class.std::vector"* nonnull align 8 dereferenceable(24) %14) #2, !llfi_index !130
  %15 = getelementptr inbounds %struct.Mesh, %struct.Mesh* %fi1, i32 0, i32 35, !llfi_index !131
  call void @_ZNSt6vectorIdSaIdEED2Ev(%"class.std::vector"* nonnull align 8 dereferenceable(24) %15) #2, !llfi_index !132
  %16 = getelementptr inbounds %struct.Mesh, %struct.Mesh* %fi1, i32 0, i32 34, !llfi_index !133
  call void @_ZNSt6vectorIdSaIdEED2Ev(%"class.std::vector"* nonnull align 8 dereferenceable(24) %16) #2, !llfi_index !134
  %17 = getelementptr inbounds %struct.Mesh, %struct.Mesh* %fi1, i32 0, i32 33, !llfi_index !135
  call void @_ZNSt6vectorIdSaIdEED2Ev(%"class.std::vector"* nonnull align 8 dereferenceable(24) %17) #2, !llfi_index !136
  %18 = getelementptr inbounds %struct.Mesh, %struct.Mesh* %fi1, i32 0, i32 32, !llfi_index !137
  call void @_ZNSt6vectorIdSaIdEED2Ev(%"class.std::vector"* nonnull align 8 dereferenceable(24) %18) #2, !llfi_index !138
  %19 = getelementptr inbounds %struct.Mesh, %struct.Mesh* %fi1, i32 0, i32 31, !llfi_index !139
  call void @_ZNSt6vectorIdSaIdEED2Ev(%"class.std::vector"* nonnull align 8 dereferenceable(24) %19) #2, !llfi_index !140
  %20 = getelementptr inbounds %struct.Mesh, %struct.Mesh* %fi1, i32 0, i32 30, !llfi_index !141
  call void @_ZNSt6vectorIdSaIdEED2Ev(%"class.std::vector"* nonnull align 8 dereferenceable(24) %20) #2, !llfi_index !142
  %21 = getelementptr inbounds %struct.Mesh, %struct.Mesh* %fi1, i32 0, i32 29, !llfi_index !143
  call void @_ZNSt6vectorIdSaIdEED2Ev(%"class.std::vector"* nonnull align 8 dereferenceable(24) %21) #2, !llfi_index !144
  %22 = getelementptr inbounds %struct.Mesh, %struct.Mesh* %fi1, i32 0, i32 28, !llfi_index !145
  call void @_ZNSt6vectorIdSaIdEED2Ev(%"class.std::vector"* nonnull align 8 dereferenceable(24) %22) #2, !llfi_index !146
  %23 = getelementptr inbounds %struct.Mesh, %struct.Mesh* %fi1, i32 0, i32 27, !llfi_index !147
  call void @_ZNSt6vectorIdSaIdEED2Ev(%"class.std::vector"* nonnull align 8 dereferenceable(24) %23) #2, !llfi_index !148
  %24 = getelementptr inbounds %struct.Mesh, %struct.Mesh* %fi1, i32 0, i32 26, !llfi_index !149
  call void @_ZNSt6vectorIdSaIdEED2Ev(%"class.std::vector"* nonnull align 8 dereferenceable(24) %24) #2, !llfi_index !150
  %25 = getelementptr inbounds %struct.Mesh, %struct.Mesh* %fi1, i32 0, i32 25, !llfi_index !151
  call void @_ZNSt6vectorIdSaIdEED2Ev(%"class.std::vector"* nonnull align 8 dereferenceable(24) %25) #2, !llfi_index !152
  %26 = getelementptr inbounds %struct.Mesh, %struct.Mesh* %fi1, i32 0, i32 24, !llfi_index !153
  call void @_ZNSt6vectorIiSaIiEED2Ev(%"class.std::vector.0"* nonnull align 8 dereferenceable(24) %26) #2, !llfi_index !154
  %27 = getelementptr inbounds %struct.Mesh, %struct.Mesh* %fi1, i32 0, i32 23, !llfi_index !155
  call void @_ZNSt6vectorIiSaIiEED2Ev(%"class.std::vector.0"* nonnull align 8 dereferenceable(24) %27) #2, !llfi_index !156
  %28 = getelementptr inbounds %struct.Mesh, %struct.Mesh* %fi1, i32 0, i32 22, !llfi_index !157
  call void @_ZNSt6vectorIiSaIiEED2Ev(%"class.std::vector.0"* nonnull align 8 dereferenceable(24) %28) #2, !llfi_index !158
  %29 = getelementptr inbounds %struct.Mesh, %struct.Mesh* %fi1, i32 0, i32 21, !llfi_index !159
  call void @_ZNSt6vectorIiSaIiEED2Ev(%"class.std::vector.0"* nonnull align 8 dereferenceable(24) %29) #2, !llfi_index !160
  %30 = getelementptr inbounds %struct.Mesh, %struct.Mesh* %fi1, i32 0, i32 20, !llfi_index !161
  call void @_ZNSt6vectorIiSaIiEED2Ev(%"class.std::vector.0"* nonnull align 8 dereferenceable(24) %30) #2, !llfi_index !162
  %31 = getelementptr inbounds %struct.Mesh, %struct.Mesh* %fi1, i32 0, i32 19, !llfi_index !163
  call void @_ZNSt6vectorIiSaIiEED2Ev(%"class.std::vector.0"* nonnull align 8 dereferenceable(24) %31) #2, !llfi_index !164
  %32 = getelementptr inbounds %struct.Mesh, %struct.Mesh* %fi1, i32 0, i32 18, !llfi_index !165
  call void @_ZNSt6vectorIiSaIiEED2Ev(%"class.std::vector.0"* nonnull align 8 dereferenceable(24) %32) #2, !llfi_index !166
  %33 = getelementptr inbounds %struct.Mesh, %struct.Mesh* %fi1, i32 0, i32 17, !llfi_index !167
  call void @_ZNSt6vectorIiSaIiEED2Ev(%"class.std::vector.0"* nonnull align 8 dereferenceable(24) %33) #2, !llfi_index !168
  %34 = getelementptr inbounds %struct.Mesh, %struct.Mesh* %fi1, i32 0, i32 16, !llfi_index !169
  call void @_ZNSt6vectorIiSaIiEED2Ev(%"class.std::vector.0"* nonnull align 8 dereferenceable(24) %34) #2, !llfi_index !170
  %35 = getelementptr inbounds %struct.Mesh, %struct.Mesh* %fi1, i32 0, i32 15, !llfi_index !171
  call void @_ZNSt6vectorIiSaIiEED2Ev(%"class.std::vector.0"* nonnull align 8 dereferenceable(24) %35) #2, !llfi_index !172
  %36 = getelementptr inbounds %struct.Mesh, %struct.Mesh* %fi1, i32 0, i32 14, !llfi_index !173
  call void @_ZNSt6vectorIiSaIiEED2Ev(%"class.std::vector.0"* nonnull align 8 dereferenceable(24) %36) #2, !llfi_index !174
  %37 = getelementptr inbounds %struct.Mesh, %struct.Mesh* %fi1, i32 0, i32 13, !llfi_index !175
  call void @_ZNSt6vectorIiSaIiEED2Ev(%"class.std::vector.0"* nonnull align 8 dereferenceable(24) %37) #2, !llfi_index !176
  %38 = getelementptr inbounds %struct.Mesh, %struct.Mesh* %fi1, i32 0, i32 12, !llfi_index !177
  call void @_ZNSt6vectorIdSaIdEED2Ev(%"class.std::vector"* nonnull align 8 dereferenceable(24) %38) #2, !llfi_index !178
  %39 = getelementptr inbounds %struct.Mesh, %struct.Mesh* %fi1, i32 0, i32 11, !llfi_index !179
  call void @_ZNSt6vectorIdSaIdEED2Ev(%"class.std::vector"* nonnull align 8 dereferenceable(24) %39) #2, !llfi_index !180
  %40 = getelementptr inbounds %struct.Mesh, %struct.Mesh* %fi1, i32 0, i32 10, !llfi_index !181
  call void @_ZNSt6vectorIdSaIdEED2Ev(%"class.std::vector"* nonnull align 8 dereferenceable(24) %40) #2, !llfi_index !182
  %41 = getelementptr inbounds %struct.Mesh, %struct.Mesh* %fi1, i32 0, i32 9, !llfi_index !183
  call void @_ZNSt6vectorIdSaIdEED2Ev(%"class.std::vector"* nonnull align 8 dereferenceable(24) %41) #2, !llfi_index !184
  %42 = getelementptr inbounds %struct.Mesh, %struct.Mesh* %fi1, i32 0, i32 8, !llfi_index !185
  call void @_ZNSt6vectorIdSaIdEED2Ev(%"class.std::vector"* nonnull align 8 dereferenceable(24) %42) #2, !llfi_index !186
  %43 = getelementptr inbounds %struct.Mesh, %struct.Mesh* %fi1, i32 0, i32 7, !llfi_index !187
  call void @_ZNSt6vectorIdSaIdEED2Ev(%"class.std::vector"* nonnull align 8 dereferenceable(24) %43) #2, !llfi_index !188
  %44 = getelementptr inbounds %struct.Mesh, %struct.Mesh* %fi1, i32 0, i32 6, !llfi_index !189
  call void @_ZNSt6vectorIdSaIdEED2Ev(%"class.std::vector"* nonnull align 8 dereferenceable(24) %44) #2, !llfi_index !190
  %45 = getelementptr inbounds %struct.Mesh, %struct.Mesh* %fi1, i32 0, i32 5, !llfi_index !191
  call void @_ZNSt6vectorIdSaIdEED2Ev(%"class.std::vector"* nonnull align 8 dereferenceable(24) %45) #2, !llfi_index !192
  %46 = getelementptr inbounds %struct.Mesh, %struct.Mesh* %fi1, i32 0, i32 4, !llfi_index !193
  call void @_ZNSt6vectorIdSaIdEED2Ev(%"class.std::vector"* nonnull align 8 dereferenceable(24) %46) #2, !llfi_index !194
  %47 = getelementptr inbounds %struct.Mesh, %struct.Mesh* %fi1, i32 0, i32 3, !llfi_index !195
  call void @_ZNSt6vectorIdSaIdEED2Ev(%"class.std::vector"* nonnull align 8 dereferenceable(24) %47) #2, !llfi_index !196
  %48 = getelementptr inbounds %struct.Mesh, %struct.Mesh* %fi1, i32 0, i32 2, !llfi_index !197
  call void @_ZNSt6vectorIdSaIdEED2Ev(%"class.std::vector"* nonnull align 8 dereferenceable(24) %48) #2, !llfi_index !198
  %49 = getelementptr inbounds %struct.Mesh, %struct.Mesh* %fi1, i32 0, i32 1, !llfi_index !199
  call void @_ZNSt6vectorIdSaIdEED2Ev(%"class.std::vector"* nonnull align 8 dereferenceable(24) %49) #2, !llfi_index !200
  %50 = getelementptr inbounds %struct.Mesh, %struct.Mesh* %fi1, i32 0, i32 0, !llfi_index !201
  call void @_ZNSt6vectorIdSaIdEED2Ev(%"class.std::vector"* nonnull align 8 dereferenceable(24) %50) #2, !llfi_index !202
  ret void, !llfi_index !203
}

; Function Attrs: noinline uwtable
define internal void @__dtor_mesh() #0 section ".text.startup" {
  call void @_ZN4MeshD2Ev(%struct.Mesh* @mesh), !llfi_index !204
  ret void, !llfi_index !205
}

; Function Attrs: nounwind
declare dso_local i32 @atexit(void ()*) #2

; Function Attrs: mustprogress noinline uwtable
define dso_local void @_Z13TimeIncrementv() #3 {
  %1 = alloca double, align 8, !llfi_index !206
  %fi = call double* @injectFault5(i64 202, double* %1, i32 31, i32 0, i32 1, i32 0, i8* getelementptr inbounds ([7 x i8], [7 x i8]* @alloca_namestr, i32 0, i32 0)), !llfi_injectfault !6
  %2 = alloca double, align 8, !llfi_index !207
  %fi1 = call double* @injectFault5(i64 203, double* %2, i32 31, i32 0, i32 1, i32 0, i8* getelementptr inbounds ([7 x i8], [7 x i8]* @alloca_namestr, i32 0, i32 0)), !llfi_injectfault !6
  %3 = alloca double, align 8, !llfi_index !208
  %fi2 = call double* @injectFault5(i64 204, double* %3, i32 31, i32 0, i32 1, i32 0, i8* getelementptr inbounds ([7 x i8], [7 x i8]* @alloca_namestr, i32 0, i32 0)), !llfi_injectfault !6
  %4 = alloca double, align 8, !llfi_index !209
  %fi3 = call double* @injectFault5(i64 205, double* %4, i32 31, i32 0, i32 1, i32 0, i8* getelementptr inbounds ([7 x i8], [7 x i8]* @alloca_namestr, i32 0, i32 0)), !llfi_injectfault !6
  %5 = call nonnull align 8 dereferenceable(8) double* @_ZN4Mesh8stoptimeEv(%struct.Mesh* nonnull align 8 dereferenceable(1376) @mesh), !llfi_index !210
  %fi4 = call double* @injectFault5(i64 206, double* %5, i32 56, i32 0, i32 1, i32 0, i8* getelementptr inbounds ([5 x i8], [5 x i8]* @call_namestr, i32 0, i32 0)), !llfi_injectfault !6
  %6 = load double, double* %fi4, align 8, !llfi_index !211
  %fi5 = call double @injectFault0(i64 207, double %6, i32 32, i32 0, i32 1, i32 0, i8* getelementptr inbounds ([5 x i8], [5 x i8]* @load_namestr, i32 0, i32 0)), !llfi_injectfault !6
  %7 = call nonnull align 8 dereferenceable(8) double* @_ZN4Mesh4timeEv(%struct.Mesh* nonnull align 8 dereferenceable(1376) @mesh), !llfi_index !212
  %fi6 = call double* @injectFault5(i64 208, double* %7, i32 56, i32 0, i32 1, i32 0, i8* getelementptr inbounds ([5 x i8], [5 x i8]* @call_namestr, i32 0, i32 0)), !llfi_injectfault !6
  %8 = load double, double* %fi6, align 8, !llfi_index !213
  %fi7 = call double @injectFault0(i64 209, double %8, i32 32, i32 0, i32 1, i32 0, i8* getelementptr inbounds ([5 x i8], [5 x i8]* @load_namestr, i32 0, i32 0)), !llfi_injectfault !6
  %9 = fsub double %fi5, %fi7, !llfi_index !214
  %fi8 = call double @injectFault0(i64 210, double %9, i32 16, i32 0, i32 1, i32 0, i8* getelementptr inbounds ([5 x i8], [5 x i8]* @fsub_namestr, i32 0, i32 0)), !llfi_injectfault !6
  store double %fi8, double* %fi, align 8, !llfi_index !215
  %10 = call nonnull align 8 dereferenceable(8) double* @_ZN4Mesh7dtfixedEv(%struct.Mesh* nonnull align 8 dereferenceable(1376) @mesh), !llfi_index !216
  %fi9 = call double* @injectFault5(i64 212, double* %10, i32 56, i32 0, i32 1, i32 0, i8* getelementptr inbounds ([5 x i8], [5 x i8]* @call_namestr, i32 0, i32 0)), !llfi_injectfault !6
  %11 = load double, double* %fi9, align 8, !llfi_index !217
  %fi10 = call double @injectFault0(i64 213, double %11, i32 32, i32 0, i32 1, i32 0, i8* getelementptr inbounds ([5 x i8], [5 x i8]* @load_namestr, i32 0, i32 0)), !llfi_injectfault !6
  %12 = fcmp ole double %fi10, 0.000000e+00, !llfi_index !218
  %fi11 = call i1 @injectFault6(i64 214, i1 %12, i32 54, i32 0, i32 1, i32 0, i8* getelementptr inbounds ([5 x i8], [5 x i8]* @fcmp_namestr, i32 0, i32 0)), !llfi_injectfault !6
  br i1 %fi11, label %13, label %74, !llfi_index !219

13:                                               ; preds = %0
  %14 = call nonnull align 4 dereferenceable(4) i32* @_ZN4Mesh5cycleEv(%struct.Mesh* nonnull align 8 dereferenceable(1376) @mesh), !llfi_index !220
  %fi12 = call i32* @injectFault4(i64 216, i32* %14, i32 56, i32 0, i32 1, i32 0, i8* getelementptr inbounds ([5 x i8], [5 x i8]* @call_namestr, i32 0, i32 0)), !llfi_injectfault !6
  %15 = load i32, i32* %fi12, align 4, !llfi_index !221
  %fi13 = call i32 @injectFault2(i64 217, i32 %15, i32 32, i32 0, i32 1, i32 0, i8* getelementptr inbounds ([5 x i8], [5 x i8]* @load_namestr, i32 0, i32 0)), !llfi_injectfault !6
  %16 = icmp ne i32 %fi13, 0, !llfi_index !222
  %fi14 = call i1 @injectFault6(i64 218, i1 %16, i32 53, i32 0, i32 1, i32 0, i8* getelementptr inbounds ([5 x i8], [5 x i8]* @icmp_namestr, i32 0, i32 0)), !llfi_injectfault !6
  br i1 %fi14, label %17, label %74, !llfi_index !223

17:                                               ; preds = %13
  %18 = call nonnull align 8 dereferenceable(8) double* @_ZN4Mesh9deltatimeEv(%struct.Mesh* nonnull align 8 dereferenceable(1376) @mesh), !llfi_index !224
  %fi15 = call double* @injectFault5(i64 220, double* %18, i32 56, i32 0, i32 1, i32 0, i8* getelementptr inbounds ([5 x i8], [5 x i8]* @call_namestr, i32 0, i32 0)), !llfi_injectfault !6
  %19 = load double, double* %fi15, align 8, !llfi_index !225
  %fi16 = call double @injectFault0(i64 221, double %19, i32 32, i32 0, i32 1, i32 0, i8* getelementptr inbounds ([5 x i8], [5 x i8]* @load_namestr, i32 0, i32 0)), !llfi_injectfault !6
  store double %fi16, double* %fi2, align 8, !llfi_index !226
  store double 1.000000e+20, double* %fi3, align 8, !llfi_index !227
  %20 = call nonnull align 8 dereferenceable(8) double* @_ZN4Mesh9dtcourantEv(%struct.Mesh* nonnull align 8 dereferenceable(1376) @mesh), !llfi_index !228
  %fi17 = call double* @injectFault5(i64 224, double* %20, i32 56, i32 0, i32 1, i32 0, i8* getelementptr inbounds ([5 x i8], [5 x i8]* @call_namestr, i32 0, i32 0)), !llfi_injectfault !6
  %21 = load double, double* %fi17, align 8, !llfi_index !229
  %fi18 = call double @injectFault0(i64 225, double %21, i32 32, i32 0, i32 1, i32 0, i8* getelementptr inbounds ([5 x i8], [5 x i8]* @load_namestr, i32 0, i32 0)), !llfi_injectfault !6
  %22 = load double, double* %fi3, align 8, !llfi_index !230
  %fi19 = call double @injectFault0(i64 226, double %22, i32 32, i32 0, i32 1, i32 0, i8* getelementptr inbounds ([5 x i8], [5 x i8]* @load_namestr, i32 0, i32 0)), !llfi_injectfault !6
  %23 = fcmp olt double %fi18, %fi19, !llfi_index !231
  %fi20 = call i1 @injectFault6(i64 227, i1 %23, i32 54, i32 0, i32 1, i32 0, i8* getelementptr inbounds ([5 x i8], [5 x i8]* @fcmp_namestr, i32 0, i32 0)), !llfi_injectfault !6
  br i1 %fi20, label %24, label %28, !llfi_index !232

24:                                               ; preds = %17
  %25 = call nonnull align 8 dereferenceable(8) double* @_ZN4Mesh9dtcourantEv(%struct.Mesh* nonnull align 8 dereferenceable(1376) @mesh), !llfi_index !233
  %fi21 = call double* @injectFault5(i64 229, double* %25, i32 56, i32 0, i32 1, i32 0, i8* getelementptr inbounds ([5 x i8], [5 x i8]* @call_namestr, i32 0, i32 0)), !llfi_injectfault !6
  %26 = load double, double* %fi21, align 8, !llfi_index !234
  %fi22 = call double @injectFault0(i64 230, double %26, i32 32, i32 0, i32 1, i32 0, i8* getelementptr inbounds ([5 x i8], [5 x i8]* @load_namestr, i32 0, i32 0)), !llfi_injectfault !6
  %27 = fdiv double %fi22, 2.000000e+00, !llfi_index !235
  %fi23 = call double @injectFault0(i64 231, double %27, i32 21, i32 0, i32 1, i32 0, i8* getelementptr inbounds ([5 x i8], [5 x i8]* @fdiv_namestr, i32 0, i32 0)), !llfi_injectfault !6
  store double %fi23, double* %fi3, align 8, !llfi_index !236
  br label %28, !llfi_index !237

28:                                               ; preds = %24, %17
  %29 = call nonnull align 8 dereferenceable(8) double* @_ZN4Mesh7dthydroEv(%struct.Mesh* nonnull align 8 dereferenceable(1376) @mesh), !llfi_index !238
  %fi24 = call double* @injectFault5(i64 234, double* %29, i32 56, i32 0, i32 1, i32 0, i8* getelementptr inbounds ([5 x i8], [5 x i8]* @call_namestr, i32 0, i32 0)), !llfi_injectfault !6
  %30 = load double, double* %fi24, align 8, !llfi_index !239
  %fi25 = call double @injectFault0(i64 235, double %30, i32 32, i32 0, i32 1, i32 0, i8* getelementptr inbounds ([5 x i8], [5 x i8]* @load_namestr, i32 0, i32 0)), !llfi_injectfault !6
  %31 = load double, double* %fi3, align 8, !llfi_index !240
  %fi26 = call double @injectFault0(i64 236, double %31, i32 32, i32 0, i32 1, i32 0, i8* getelementptr inbounds ([5 x i8], [5 x i8]* @load_namestr, i32 0, i32 0)), !llfi_injectfault !6
  %32 = fcmp olt double %fi25, %fi26, !llfi_index !241
  %fi27 = call i1 @injectFault6(i64 237, i1 %32, i32 54, i32 0, i32 1, i32 0, i8* getelementptr inbounds ([5 x i8], [5 x i8]* @fcmp_namestr, i32 0, i32 0)), !llfi_injectfault !6
  br i1 %fi27, label %33, label %38, !llfi_index !242

33:                                               ; preds = %28
  %34 = call nonnull align 8 dereferenceable(8) double* @_ZN4Mesh7dthydroEv(%struct.Mesh* nonnull align 8 dereferenceable(1376) @mesh), !llfi_index !243
  %fi28 = call double* @injectFault5(i64 239, double* %34, i32 56, i32 0, i32 1, i32 0, i8* getelementptr inbounds ([5 x i8], [5 x i8]* @call_namestr, i32 0, i32 0)), !llfi_injectfault !6
  %35 = load double, double* %fi28, align 8, !llfi_index !244
  %fi29 = call double @injectFault0(i64 240, double %35, i32 32, i32 0, i32 1, i32 0, i8* getelementptr inbounds ([5 x i8], [5 x i8]* @load_namestr, i32 0, i32 0)), !llfi_injectfault !6
  %36 = fmul double %fi29, 2.000000e+00, !llfi_index !245
  %fi30 = call double @injectFault0(i64 241, double %36, i32 18, i32 0, i32 1, i32 0, i8* getelementptr inbounds ([5 x i8], [5 x i8]* @fmul_namestr, i32 0, i32 0)), !llfi_injectfault !6
  %37 = fdiv double %fi30, 3.000000e+00, !llfi_index !246
  %fi31 = call double @injectFault0(i64 242, double %37, i32 21, i32 0, i32 1, i32 0, i8* getelementptr inbounds ([5 x i8], [5 x i8]* @fdiv_namestr, i32 0, i32 0)), !llfi_injectfault !6
  store double %fi31, double* %fi3, align 8, !llfi_index !247
  br label %38, !llfi_index !248

38:                                               ; preds = %33, %28
  %39 = load double, double* %fi3, align 8, !llfi_index !249
  %fi32 = call double @injectFault0(i64 245, double %39, i32 32, i32 0, i32 1, i32 0, i8* getelementptr inbounds ([5 x i8], [5 x i8]* @load_namestr, i32 0, i32 0)), !llfi_injectfault !6
  %40 = load double, double* %fi2, align 8, !llfi_index !250
  %fi33 = call double @injectFault0(i64 246, double %40, i32 32, i32 0, i32 1, i32 0, i8* getelementptr inbounds ([5 x i8], [5 x i8]* @load_namestr, i32 0, i32 0)), !llfi_injectfault !6
  %41 = fdiv double %fi32, %fi33, !llfi_index !251
  %fi34 = call double @injectFault0(i64 247, double %41, i32 21, i32 0, i32 1, i32 0, i8* getelementptr inbounds ([5 x i8], [5 x i8]* @fdiv_namestr, i32 0, i32 0)), !llfi_injectfault !6
  store double %fi34, double* %fi1, align 8, !llfi_index !252
  %42 = load double, double* %fi1, align 8, !llfi_index !253
  %fi35 = call double @injectFault0(i64 249, double %42, i32 32, i32 0, i32 1, i32 0, i8* getelementptr inbounds ([5 x i8], [5 x i8]* @load_namestr, i32 0, i32 0)), !llfi_injectfault !6
  %43 = fcmp oge double %fi35, 1.000000e+00, !llfi_index !254
  %fi36 = call i1 @injectFault6(i64 250, i1 %43, i32 54, i32 0, i32 1, i32 0, i8* getelementptr inbounds ([5 x i8], [5 x i8]* @fcmp_namestr, i32 0, i32 0)), !llfi_injectfault !6
  br i1 %fi36, label %44, label %63, !llfi_index !255

44:                                               ; preds = %38
  %45 = load double, double* %fi1, align 8, !llfi_index !256
  %fi37 = call double @injectFault0(i64 252, double %45, i32 32, i32 0, i32 1, i32 0, i8* getelementptr inbounds ([5 x i8], [5 x i8]* @load_namestr, i32 0, i32 0)), !llfi_injectfault !6
  %46 = call nonnull align 8 dereferenceable(8) double* @_ZN4Mesh15deltatimemultlbEv(%struct.Mesh* nonnull align 8 dereferenceable(1376) @mesh), !llfi_index !257
  %fi38 = call double* @injectFault5(i64 253, double* %46, i32 56, i32 0, i32 1, i32 0, i8* getelementptr inbounds ([5 x i8], [5 x i8]* @call_namestr, i32 0, i32 0)), !llfi_injectfault !6
  %47 = load double, double* %fi38, align 8, !llfi_index !258
  %fi39 = call double @injectFault0(i64 254, double %47, i32 32, i32 0, i32 1, i32 0, i8* getelementptr inbounds ([5 x i8], [5 x i8]* @load_namestr, i32 0, i32 0)), !llfi_injectfault !6
  %48 = fcmp olt double %fi37, %fi39, !llfi_index !259
  %fi40 = call i1 @injectFault6(i64 255, i1 %48, i32 54, i32 0, i32 1, i32 0, i8* getelementptr inbounds ([5 x i8], [5 x i8]* @fcmp_namestr, i32 0, i32 0)), !llfi_injectfault !6
  br i1 %fi40, label %49, label %51, !llfi_index !260

49:                                               ; preds = %44
  %50 = load double, double* %fi2, align 8, !llfi_index !261
  %fi41 = call double @injectFault0(i64 257, double %50, i32 32, i32 0, i32 1, i32 0, i8* getelementptr inbounds ([5 x i8], [5 x i8]* @load_namestr, i32 0, i32 0)), !llfi_injectfault !6
  store double %fi41, double* %fi3, align 8, !llfi_index !262
  br label %62, !llfi_index !263

51:                                               ; preds = %44
  %52 = load double, double* %fi1, align 8, !llfi_index !264
  %fi42 = call double @injectFault0(i64 260, double %52, i32 32, i32 0, i32 1, i32 0, i8* getelementptr inbounds ([5 x i8], [5 x i8]* @load_namestr, i32 0, i32 0)), !llfi_injectfault !6
  %53 = call nonnull align 8 dereferenceable(8) double* @_ZN4Mesh15deltatimemultubEv(%struct.Mesh* nonnull align 8 dereferenceable(1376) @mesh), !llfi_index !265
  %fi43 = call double* @injectFault5(i64 261, double* %53, i32 56, i32 0, i32 1, i32 0, i8* getelementptr inbounds ([5 x i8], [5 x i8]* @call_namestr, i32 0, i32 0)), !llfi_injectfault !6
  %54 = load double, double* %fi43, align 8, !llfi_index !266
  %fi44 = call double @injectFault0(i64 262, double %54, i32 32, i32 0, i32 1, i32 0, i8* getelementptr inbounds ([5 x i8], [5 x i8]* @load_namestr, i32 0, i32 0)), !llfi_injectfault !6
  %55 = fcmp ogt double %fi42, %fi44, !llfi_index !267
  %fi45 = call i1 @injectFault6(i64 263, i1 %55, i32 54, i32 0, i32 1, i32 0, i8* getelementptr inbounds ([5 x i8], [5 x i8]* @fcmp_namestr, i32 0, i32 0)), !llfi_injectfault !6
  br i1 %fi45, label %56, label %61, !llfi_index !268

56:                                               ; preds = %51
  %57 = load double, double* %fi2, align 8, !llfi_index !269
  %fi46 = call double @injectFault0(i64 265, double %57, i32 32, i32 0, i32 1, i32 0, i8* getelementptr inbounds ([5 x i8], [5 x i8]* @load_namestr, i32 0, i32 0)), !llfi_injectfault !6
  %58 = call nonnull align 8 dereferenceable(8) double* @_ZN4Mesh15deltatimemultubEv(%struct.Mesh* nonnull align 8 dereferenceable(1376) @mesh), !llfi_index !270
  %fi47 = call double* @injectFault5(i64 266, double* %58, i32 56, i32 0, i32 1, i32 0, i8* getelementptr inbounds ([5 x i8], [5 x i8]* @call_namestr, i32 0, i32 0)), !llfi_injectfault !6
  %59 = load double, double* %fi47, align 8, !llfi_index !271
  %fi48 = call double @injectFault0(i64 267, double %59, i32 32, i32 0, i32 1, i32 0, i8* getelementptr inbounds ([5 x i8], [5 x i8]* @load_namestr, i32 0, i32 0)), !llfi_injectfault !6
  %60 = fmul double %fi46, %fi48, !llfi_index !272
  %fi49 = call double @injectFault0(i64 268, double %60, i32 18, i32 0, i32 1, i32 0, i8* getelementptr inbounds ([5 x i8], [5 x i8]* @fmul_namestr, i32 0, i32 0)), !llfi_injectfault !6
  store double %fi49, double* %fi3, align 8, !llfi_index !273
  br label %61, !llfi_index !274

61:                                               ; preds = %56, %51
  br label %62, !llfi_index !275

62:                                               ; preds = %61, %49
  br label %63, !llfi_index !276

63:                                               ; preds = %62, %38
  %64 = load double, double* %fi3, align 8, !llfi_index !277
  %fi50 = call double @injectFault0(i64 273, double %64, i32 32, i32 0, i32 1, i32 0, i8* getelementptr inbounds ([5 x i8], [5 x i8]* @load_namestr, i32 0, i32 0)), !llfi_injectfault !6
  %65 = call nonnull align 8 dereferenceable(8) double* @_ZN4Mesh5dtmaxEv(%struct.Mesh* nonnull align 8 dereferenceable(1376) @mesh), !llfi_index !278
  %fi51 = call double* @injectFault5(i64 274, double* %65, i32 56, i32 0, i32 1, i32 0, i8* getelementptr inbounds ([5 x i8], [5 x i8]* @call_namestr, i32 0, i32 0)), !llfi_injectfault !6
  %66 = load double, double* %fi51, align 8, !llfi_index !279
  %fi52 = call double @injectFault0(i64 275, double %66, i32 32, i32 0, i32 1, i32 0, i8* getelementptr inbounds ([5 x i8], [5 x i8]* @load_namestr, i32 0, i32 0)), !llfi_injectfault !6
  %67 = fcmp ogt double %fi50, %fi52, !llfi_index !280
  %fi53 = call i1 @injectFault6(i64 276, i1 %67, i32 54, i32 0, i32 1, i32 0, i8* getelementptr inbounds ([5 x i8], [5 x i8]* @fcmp_namestr, i32 0, i32 0)), !llfi_injectfault !6
  br i1 %fi53, label %68, label %71, !llfi_index !281

68:                                               ; preds = %63
  %69 = call nonnull align 8 dereferenceable(8) double* @_ZN4Mesh5dtmaxEv(%struct.Mesh* nonnull align 8 dereferenceable(1376) @mesh), !llfi_index !282
  %fi54 = call double* @injectFault5(i64 278, double* %69, i32 56, i32 0, i32 1, i32 0, i8* getelementptr inbounds ([5 x i8], [5 x i8]* @call_namestr, i32 0, i32 0)), !llfi_injectfault !6
  %70 = load double, double* %fi54, align 8, !llfi_index !283
  %fi55 = call double @injectFault0(i64 279, double %70, i32 32, i32 0, i32 1, i32 0, i8* getelementptr inbounds ([5 x i8], [5 x i8]* @load_namestr, i32 0, i32 0)), !llfi_injectfault !6
  store double %fi55, double* %fi3, align 8, !llfi_index !284
  br label %71, !llfi_index !285

71:                                               ; preds = %68, %63
  %72 = load double, double* %fi3, align 8, !llfi_index !286
  %fi56 = call double @injectFault0(i64 282, double %72, i32 32, i32 0, i32 1, i32 0, i8* getelementptr inbounds ([5 x i8], [5 x i8]* @load_namestr, i32 0, i32 0)), !llfi_injectfault !6
  %73 = call nonnull align 8 dereferenceable(8) double* @_ZN4Mesh9deltatimeEv(%struct.Mesh* nonnull align 8 dereferenceable(1376) @mesh), !llfi_index !287
  %fi57 = call double* @injectFault5(i64 283, double* %73, i32 56, i32 0, i32 1, i32 0, i8* getelementptr inbounds ([5 x i8], [5 x i8]* @call_namestr, i32 0, i32 0)), !llfi_injectfault !6
  store double %fi56, double* %fi57, align 8, !llfi_index !288
  br label %74, !llfi_index !289

74:                                               ; preds = %71, %13, %0
  %75 = load double, double* %fi, align 8, !llfi_index !290
  %fi58 = call double @injectFault0(i64 286, double %75, i32 32, i32 0, i32 1, i32 0, i8* getelementptr inbounds ([5 x i8], [5 x i8]* @load_namestr, i32 0, i32 0)), !llfi_injectfault !6
  %76 = call nonnull align 8 dereferenceable(8) double* @_ZN4Mesh9deltatimeEv(%struct.Mesh* nonnull align 8 dereferenceable(1376) @mesh), !llfi_index !291
  %fi59 = call double* @injectFault5(i64 287, double* %76, i32 56, i32 0, i32 1, i32 0, i8* getelementptr inbounds ([5 x i8], [5 x i8]* @call_namestr, i32 0, i32 0)), !llfi_injectfault !6
  %77 = load double, double* %fi59, align 8, !llfi_index !292
  %fi60 = call double @injectFault0(i64 288, double %77, i32 32, i32 0, i32 1, i32 0, i8* getelementptr inbounds ([5 x i8], [5 x i8]* @load_namestr, i32 0, i32 0)), !llfi_injectfault !6
  %78 = fcmp ogt double %fi58, %fi60, !llfi_index !293
  %fi61 = call i1 @injectFault6(i64 289, i1 %78, i32 54, i32 0, i32 1, i32 0, i8* getelementptr inbounds ([5 x i8], [5 x i8]* @fcmp_namestr, i32 0, i32 0)), !llfi_injectfault !6
  br i1 %fi61, label %79, label %91, !llfi_index !294

79:                                               ; preds = %74
  %80 = load double, double* %fi, align 8, !llfi_index !295
  %fi62 = call double @injectFault0(i64 291, double %80, i32 32, i32 0, i32 1, i32 0, i8* getelementptr inbounds ([5 x i8], [5 x i8]* @load_namestr, i32 0, i32 0)), !llfi_injectfault !6
  %81 = call nonnull align 8 dereferenceable(8) double* @_ZN4Mesh9deltatimeEv(%struct.Mesh* nonnull align 8 dereferenceable(1376) @mesh), !llfi_index !296
  %fi63 = call double* @injectFault5(i64 292, double* %81, i32 56, i32 0, i32 1, i32 0, i8* getelementptr inbounds ([5 x i8], [5 x i8]* @call_namestr, i32 0, i32 0)), !llfi_injectfault !6
  %82 = load double, double* %fi63, align 8, !llfi_index !297
  %fi64 = call double @injectFault0(i64 293, double %82, i32 32, i32 0, i32 1, i32 0, i8* getelementptr inbounds ([5 x i8], [5 x i8]* @load_namestr, i32 0, i32 0)), !llfi_injectfault !6
  %83 = fmul double 4.000000e+00, %fi64, !llfi_index !298
  %fi65 = call double @injectFault0(i64 294, double %83, i32 18, i32 0, i32 1, i32 0, i8* getelementptr inbounds ([5 x i8], [5 x i8]* @fmul_namestr, i32 0, i32 0)), !llfi_injectfault !6
  %84 = fdiv double %fi65, 3.000000e+00, !llfi_index !299
  %fi66 = call double @injectFault0(i64 295, double %84, i32 21, i32 0, i32 1, i32 0, i8* getelementptr inbounds ([5 x i8], [5 x i8]* @fdiv_namestr, i32 0, i32 0)), !llfi_injectfault !6
  %85 = fcmp olt double %fi62, %fi66, !llfi_index !300
  %fi67 = call i1 @injectFault6(i64 296, i1 %85, i32 54, i32 0, i32 1, i32 0, i8* getelementptr inbounds ([5 x i8], [5 x i8]* @fcmp_namestr, i32 0, i32 0)), !llfi_injectfault !6
  br i1 %fi67, label %86, label %91, !llfi_index !301

86:                                               ; preds = %79
  %87 = call nonnull align 8 dereferenceable(8) double* @_ZN4Mesh9deltatimeEv(%struct.Mesh* nonnull align 8 dereferenceable(1376) @mesh), !llfi_index !302
  %fi68 = call double* @injectFault5(i64 298, double* %87, i32 56, i32 0, i32 1, i32 0, i8* getelementptr inbounds ([5 x i8], [5 x i8]* @call_namestr, i32 0, i32 0)), !llfi_injectfault !6
  %88 = load double, double* %fi68, align 8, !llfi_index !303
  %fi69 = call double @injectFault0(i64 299, double %88, i32 32, i32 0, i32 1, i32 0, i8* getelementptr inbounds ([5 x i8], [5 x i8]* @load_namestr, i32 0, i32 0)), !llfi_injectfault !6
  %89 = fmul double 2.000000e+00, %fi69, !llfi_index !304
  %fi70 = call double @injectFault0(i64 300, double %89, i32 18, i32 0, i32 1, i32 0, i8* getelementptr inbounds ([5 x i8], [5 x i8]* @fmul_namestr, i32 0, i32 0)), !llfi_injectfault !6
  %90 = fdiv double %fi70, 3.000000e+00, !llfi_index !305
  %fi71 = call double @injectFault0(i64 301, double %90, i32 21, i32 0, i32 1, i32 0, i8* getelementptr inbounds ([5 x i8], [5 x i8]* @fdiv_namestr, i32 0, i32 0)), !llfi_injectfault !6
  store double %fi71, double* %fi, align 8, !llfi_index !306
  br label %91, !llfi_index !307

91:                                               ; preds = %86, %79, %74
  %92 = load double, double* %fi, align 8, !llfi_index !308
  %fi72 = call double @injectFault0(i64 304, double %92, i32 32, i32 0, i32 1, i32 0, i8* getelementptr inbounds ([5 x i8], [5 x i8]* @load_namestr, i32 0, i32 0)), !llfi_injectfault !6
  %93 = call nonnull align 8 dereferenceable(8) double* @_ZN4Mesh9deltatimeEv(%struct.Mesh* nonnull align 8 dereferenceable(1376) @mesh), !llfi_index !309
  %fi73 = call double* @injectFault5(i64 305, double* %93, i32 56, i32 0, i32 1, i32 0, i8* getelementptr inbounds ([5 x i8], [5 x i8]* @call_namestr, i32 0, i32 0)), !llfi_injectfault !6
  %94 = load double, double* %fi73, align 8, !llfi_index !310
  %fi74 = call double @injectFault0(i64 306, double %94, i32 32, i32 0, i32 1, i32 0, i8* getelementptr inbounds ([5 x i8], [5 x i8]* @load_namestr, i32 0, i32 0)), !llfi_injectfault !6
  %95 = fcmp olt double %fi72, %fi74, !llfi_index !311
  %fi75 = call i1 @injectFault6(i64 307, i1 %95, i32 54, i32 0, i32 1, i32 0, i8* getelementptr inbounds ([5 x i8], [5 x i8]* @fcmp_namestr, i32 0, i32 0)), !llfi_injectfault !6
  br i1 %fi75, label %96, label %99, !llfi_index !312

96:                                               ; preds = %91
  %97 = load double, double* %fi, align 8, !llfi_index !313
  %fi76 = call double @injectFault0(i64 309, double %97, i32 32, i32 0, i32 1, i32 0, i8* getelementptr inbounds ([5 x i8], [5 x i8]* @load_namestr, i32 0, i32 0)), !llfi_injectfault !6
  %98 = call nonnull align 8 dereferenceable(8) double* @_ZN4Mesh9deltatimeEv(%struct.Mesh* nonnull align 8 dereferenceable(1376) @mesh), !llfi_index !314
  %fi77 = call double* @injectFault5(i64 310, double* %98, i32 56, i32 0, i32 1, i32 0, i8* getelementptr inbounds ([5 x i8], [5 x i8]* @call_namestr, i32 0, i32 0)), !llfi_injectfault !6
  store double %fi76, double* %fi77, align 8, !llfi_index !315
  br label %99, !llfi_index !316

99:                                               ; preds = %96, %91
  %100 = call nonnull align 8 dereferenceable(8) double* @_ZN4Mesh9deltatimeEv(%struct.Mesh* nonnull align 8 dereferenceable(1376) @mesh), !llfi_index !317
  %fi78 = call double* @injectFault5(i64 313, double* %100, i32 56, i32 0, i32 1, i32 0, i8* getelementptr inbounds ([5 x i8], [5 x i8]* @call_namestr, i32 0, i32 0)), !llfi_injectfault !6
  %101 = load double, double* %fi78, align 8, !llfi_index !318
  %fi79 = call double @injectFault0(i64 314, double %101, i32 32, i32 0, i32 1, i32 0, i8* getelementptr inbounds ([5 x i8], [5 x i8]* @load_namestr, i32 0, i32 0)), !llfi_injectfault !6
  %102 = call nonnull align 8 dereferenceable(8) double* @_ZN4Mesh4timeEv(%struct.Mesh* nonnull align 8 dereferenceable(1376) @mesh), !llfi_index !319
  %fi80 = call double* @injectFault5(i64 315, double* %102, i32 56, i32 0, i32 1, i32 0, i8* getelementptr inbounds ([5 x i8], [5 x i8]* @call_namestr, i32 0, i32 0)), !llfi_injectfault !6
  %103 = load double, double* %fi80, align 8, !llfi_index !320
  %fi81 = call double @injectFault0(i64 316, double %103, i32 32, i32 0, i32 1, i32 0, i8* getelementptr inbounds ([5 x i8], [5 x i8]* @load_namestr, i32 0, i32 0)), !llfi_injectfault !6
  %104 = fadd double %fi81, %fi79, !llfi_index !321
  %fi82 = call double @injectFault0(i64 317, double %104, i32 14, i32 0, i32 1, i32 0, i8* getelementptr inbounds ([5 x i8], [5 x i8]* @fadd_namestr, i32 0, i32 0)), !llfi_injectfault !6
  store double %fi82, double* %fi80, align 8, !llfi_index !322
  %105 = call nonnull align 4 dereferenceable(4) i32* @_ZN4Mesh5cycleEv(%struct.Mesh* nonnull align 8 dereferenceable(1376) @mesh), !llfi_index !323
  %fi83 = call i32* @injectFault4(i64 319, i32* %105, i32 56, i32 0, i32 1, i32 0, i8* getelementptr inbounds ([5 x i8], [5 x i8]* @call_namestr, i32 0, i32 0)), !llfi_injectfault !6
  %106 = load i32, i32* %fi83, align 4, !llfi_index !324
  %fi84 = call i32 @injectFault2(i64 320, i32 %106, i32 32, i32 0, i32 1, i32 0, i8* getelementptr inbounds ([5 x i8], [5 x i8]* @load_namestr, i32 0, i32 0)), !llfi_injectfault !6
  %107 = add nsw i32 %fi84, 1, !llfi_index !325
  %fi85 = call i32 @injectFault2(i64 321, i32 %107, i32 13, i32 0, i32 1, i32 0, i8* getelementptr inbounds ([4 x i8], [4 x i8]* @add_namestr, i32 0, i32 0)), !llfi_injectfault !6
  store i32 %fi85, i32* %fi83, align 4, !llfi_index !326
  ret void, !llfi_index !327
}

; Function Attrs: mustprogress noinline nounwind uwtable
define linkonce_odr dso_local nonnull align 8 dereferenceable(8) double* @_ZN4Mesh8stoptimeEv(%struct.Mesh* nonnull align 8 dereferenceable(1376) %0) #4 comdat align 2 {
  %2 = alloca %struct.Mesh*, align 8, !llfi_index !328
  %fi = call %struct.Mesh** @injectFault1(i64 324, %struct.Mesh** %2, i32 31, i32 0, i32 1, i32 0, i8* getelementptr inbounds ([7 x i8], [7 x i8]* @alloca_namestr, i32 0, i32 0)), !llfi_injectfault !6
  store %struct.Mesh* %0, %struct.Mesh** %fi, align 8, !llfi_index !329
  %3 = load %struct.Mesh*, %struct.Mesh** %fi, align 8, !llfi_index !330
  %fi1 = call %struct.Mesh* @injectFault3(i64 326, %struct.Mesh* %3, i32 32, i32 0, i32 1, i32 0, i8* getelementptr inbounds ([5 x i8], [5 x i8]* @load_namestr, i32 0, i32 0)), !llfi_injectfault !6
  %4 = getelementptr inbounds %struct.Mesh, %struct.Mesh* %fi1, i32 0, i32 52, !llfi_index !331
  ret double* %4, !llfi_index !332
}

; Function Attrs: mustprogress noinline nounwind uwtable
define linkonce_odr dso_local nonnull align 8 dereferenceable(8) double* @_ZN4Mesh4timeEv(%struct.Mesh* nonnull align 8 dereferenceable(1376) %0) #4 comdat align 2 {
  %2 = alloca %struct.Mesh*, align 8, !llfi_index !333
  %fi = call %struct.Mesh** @injectFault1(i64 329, %struct.Mesh** %2, i32 31, i32 0, i32 1, i32 0, i8* getelementptr inbounds ([7 x i8], [7 x i8]* @alloca_namestr, i32 0, i32 0)), !llfi_injectfault !6
  store %struct.Mesh* %0, %struct.Mesh** %fi, align 8, !llfi_index !334
  %3 = load %struct.Mesh*, %struct.Mesh** %fi, align 8, !llfi_index !335
  %fi1 = call %struct.Mesh* @injectFault3(i64 331, %struct.Mesh* %3, i32 32, i32 0, i32 1, i32 0, i8* getelementptr inbounds ([5 x i8], [5 x i8]* @load_namestr, i32 0, i32 0)), !llfi_injectfault !6
  %4 = getelementptr inbounds %struct.Mesh, %struct.Mesh* %fi1, i32 0, i32 48, !llfi_index !336
  ret double* %4, !llfi_index !337
}

; Function Attrs: mustprogress noinline nounwind uwtable
define linkonce_odr dso_local nonnull align 8 dereferenceable(8) double* @_ZN4Mesh7dtfixedEv(%struct.Mesh* nonnull align 8 dereferenceable(1376) %0) #4 comdat align 2 {
  %2 = alloca %struct.Mesh*, align 8, !llfi_index !338
  %fi = call %struct.Mesh** @injectFault1(i64 334, %struct.Mesh** %2, i32 31, i32 0, i32 1, i32 0, i8* getelementptr inbounds ([7 x i8], [7 x i8]* @alloca_namestr, i32 0, i32 0)), !llfi_injectfault !6
  store %struct.Mesh* %0, %struct.Mesh** %fi, align 8, !llfi_index !339
  %3 = load %struct.Mesh*, %struct.Mesh** %fi, align 8, !llfi_index !340
  %fi1 = call %struct.Mesh* @injectFault3(i64 336, %struct.Mesh* %3, i32 32, i32 0, i32 1, i32 0, i8* getelementptr inbounds ([5 x i8], [5 x i8]* @load_namestr, i32 0, i32 0)), !llfi_injectfault !6
  %4 = getelementptr inbounds %struct.Mesh, %struct.Mesh* %fi1, i32 0, i32 47, !llfi_index !341
  ret double* %4, !llfi_index !342
}

; Function Attrs: mustprogress noinline nounwind uwtable
define linkonce_odr dso_local nonnull align 4 dereferenceable(4) i32* @_ZN4Mesh5cycleEv(%struct.Mesh* nonnull align 8 dereferenceable(1376) %0) #4 comdat align 2 {
  %2 = alloca %struct.Mesh*, align 8, !llfi_index !343
  %fi = call %struct.Mesh** @injectFault1(i64 339, %struct.Mesh** %2, i32 31, i32 0, i32 1, i32 0, i8* getelementptr inbounds ([7 x i8], [7 x i8]* @alloca_namestr, i32 0, i32 0)), !llfi_injectfault !6
  store %struct.Mesh* %0, %struct.Mesh** %fi, align 8, !llfi_index !344
  %3 = load %struct.Mesh*, %struct.Mesh** %fi, align 8, !llfi_index !345
  %fi1 = call %struct.Mesh* @injectFault3(i64 341, %struct.Mesh* %3, i32 32, i32 0, i32 1, i32 0, i8* getelementptr inbounds ([5 x i8], [5 x i8]* @load_namestr, i32 0, i32 0)), !llfi_injectfault !6
  %4 = getelementptr inbounds %struct.Mesh, %struct.Mesh* %fi1, i32 0, i32 75, !llfi_index !346
  ret i32* %4, !llfi_index !347
}

; Function Attrs: mustprogress noinline nounwind uwtable
define linkonce_odr dso_local nonnull align 8 dereferenceable(8) double* @_ZN4Mesh9deltatimeEv(%struct.Mesh* nonnull align 8 dereferenceable(1376) %0) #4 comdat align 2 {
  %2 = alloca %struct.Mesh*, align 8, !llfi_index !348
  %fi = call %struct.Mesh** @injectFault1(i64 344, %struct.Mesh** %2, i32 31, i32 0, i32 1, i32 0, i8* getelementptr inbounds ([7 x i8], [7 x i8]* @alloca_namestr, i32 0, i32 0)), !llfi_injectfault !6
  store %struct.Mesh* %0, %struct.Mesh** %fi, align 8, !llfi_index !349
  %3 = load %struct.Mesh*, %struct.Mesh** %fi, align 8, !llfi_index !350
  %fi1 = call %struct.Mesh* @injectFault3(i64 346, %struct.Mesh* %3, i32 32, i32 0, i32 1, i32 0, i8* getelementptr inbounds ([5 x i8], [5 x i8]* @load_namestr, i32 0, i32 0)), !llfi_injectfault !6
  %4 = getelementptr inbounds %struct.Mesh, %struct.Mesh* %fi1, i32 0, i32 49, !llfi_index !351
  ret double* %4, !llfi_index !352
}

; Function Attrs: mustprogress noinline nounwind uwtable
define linkonce_odr dso_local nonnull align 8 dereferenceable(8) double* @_ZN4Mesh9dtcourantEv(%struct.Mesh* nonnull align 8 dereferenceable(1376) %0) #4 comdat align 2 {
  %2 = alloca %struct.Mesh*, align 8, !llfi_index !353
  %fi = call %struct.Mesh** @injectFault1(i64 349, %struct.Mesh** %2, i32 31, i32 0, i32 1, i32 0, i8* getelementptr inbounds ([7 x i8], [7 x i8]* @alloca_namestr, i32 0, i32 0)), !llfi_injectfault !6
  store %struct.Mesh* %0, %struct.Mesh** %fi, align 8, !llfi_index !354
  %3 = load %struct.Mesh*, %struct.Mesh** %fi, align 8, !llfi_index !355
  %fi1 = call %struct.Mesh* @injectFault3(i64 351, %struct.Mesh* %3, i32 32, i32 0, i32 1, i32 0, i8* getelementptr inbounds ([5 x i8], [5 x i8]* @load_namestr, i32 0, i32 0)), !llfi_injectfault !6
  %4 = getelementptr inbounds %struct.Mesh, %struct.Mesh* %fi1, i32 0, i32 72, !llfi_index !356
  ret double* %4, !llfi_index !357
}

; Function Attrs: mustprogress noinline nounwind uwtable
define linkonce_odr dso_local nonnull align 8 dereferenceable(8) double* @_ZN4Mesh7dthydroEv(%struct.Mesh* nonnull align 8 dereferenceable(1376) %0) #4 comdat align 2 {
  %2 = alloca %struct.Mesh*, align 8, !llfi_index !358
  %fi = call %struct.Mesh** @injectFault1(i64 354, %struct.Mesh** %2, i32 31, i32 0, i32 1, i32 0, i8* getelementptr inbounds ([7 x i8], [7 x i8]* @alloca_namestr, i32 0, i32 0)), !llfi_injectfault !6
  store %struct.Mesh* %0, %struct.Mesh** %fi, align 8, !llfi_index !359
  %3 = load %struct.Mesh*, %struct.Mesh** %fi, align 8, !llfi_index !360
  %fi1 = call %struct.Mesh* @injectFault3(i64 356, %struct.Mesh* %3, i32 32, i32 0, i32 1, i32 0, i8* getelementptr inbounds ([5 x i8], [5 x i8]* @load_namestr, i32 0, i32 0)), !llfi_injectfault !6
  %4 = getelementptr inbounds %struct.Mesh, %struct.Mesh* %fi1, i32 0, i32 73, !llfi_index !361
  ret double* %4, !llfi_index !362
}

; Function Attrs: mustprogress noinline nounwind uwtable
define linkonce_odr dso_local nonnull align 8 dereferenceable(8) double* @_ZN4Mesh15deltatimemultlbEv(%struct.Mesh* nonnull align 8 dereferenceable(1376) %0) #4 comdat align 2 {
  %2 = alloca %struct.Mesh*, align 8, !llfi_index !363
  %fi = call %struct.Mesh** @injectFault1(i64 359, %struct.Mesh** %2, i32 31, i32 0, i32 1, i32 0, i8* getelementptr inbounds ([7 x i8], [7 x i8]* @alloca_namestr, i32 0, i32 0)), !llfi_injectfault !6
  store %struct.Mesh* %0, %struct.Mesh** %fi, align 8, !llfi_index !364
  %3 = load %struct.Mesh*, %struct.Mesh** %fi, align 8, !llfi_index !365
  %fi1 = call %struct.Mesh* @injectFault3(i64 361, %struct.Mesh* %3, i32 32, i32 0, i32 1, i32 0, i8* getelementptr inbounds ([5 x i8], [5 x i8]* @load_namestr, i32 0, i32 0)), !llfi_injectfault !6
  %4 = getelementptr inbounds %struct.Mesh, %struct.Mesh* %fi1, i32 0, i32 50, !llfi_index !366
  ret double* %4, !llfi_index !367
}

; Function Attrs: mustprogress noinline nounwind uwtable
define linkonce_odr dso_local nonnull align 8 dereferenceable(8) double* @_ZN4Mesh15deltatimemultubEv(%struct.Mesh* nonnull align 8 dereferenceable(1376) %0) #4 comdat align 2 {
  %2 = alloca %struct.Mesh*, align 8, !llfi_index !368
  %fi = call %struct.Mesh** @injectFault1(i64 364, %struct.Mesh** %2, i32 31, i32 0, i32 1, i32 0, i8* getelementptr inbounds ([7 x i8], [7 x i8]* @alloca_namestr, i32 0, i32 0)), !llfi_injectfault !6
  store %struct.Mesh* %0, %struct.Mesh** %fi, align 8, !llfi_index !369
  %3 = load %struct.Mesh*, %struct.Mesh** %fi, align 8, !llfi_index !370
  %fi1 = call %struct.Mesh* @injectFault3(i64 366, %struct.Mesh* %3, i32 32, i32 0, i32 1, i32 0, i8* getelementptr inbounds ([5 x i8], [5 x i8]* @load_namestr, i32 0, i32 0)), !llfi_injectfault !6
  %4 = getelementptr inbounds %struct.Mesh, %struct.Mesh* %fi1, i32 0, i32 51, !llfi_index !371
  ret double* %4, !llfi_index !372
}

; Function Attrs: mustprogress noinline nounwind uwtable
define linkonce_odr dso_local nonnull align 8 dereferenceable(8) double* @_ZN4Mesh5dtmaxEv(%struct.Mesh* nonnull align 8 dereferenceable(1376) %0) #4 comdat align 2 {
  %2 = alloca %struct.Mesh*, align 8, !llfi_index !373
  %fi = call %struct.Mesh** @injectFault1(i64 369, %struct.Mesh** %2, i32 31, i32 0, i32 1, i32 0, i8* getelementptr inbounds ([7 x i8], [7 x i8]* @alloca_namestr, i32 0, i32 0)), !llfi_injectfault !6
  store %struct.Mesh* %0, %struct.Mesh** %fi, align 8, !llfi_index !374
  %3 = load %struct.Mesh*, %struct.Mesh** %fi, align 8, !llfi_index !375
  %fi1 = call %struct.Mesh* @injectFault3(i64 371, %struct.Mesh* %3, i32 32, i32 0, i32 1, i32 0, i8* getelementptr inbounds ([5 x i8], [5 x i8]* @load_namestr, i32 0, i32 0)), !llfi_injectfault !6
  %4 = getelementptr inbounds %struct.Mesh, %struct.Mesh* %fi1, i32 0, i32 74, !llfi_index !376
  ret double* %4, !llfi_index !377
}

; Function Attrs: mustprogress noinline uwtable
define dso_local void @_Z23InitStressTermsForElemsiPdS_S_(i32 %0, double* %1, double* %2, double* %3) #3 {
  %5 = alloca i32, align 4, !llfi_index !378
  %fi22 = call i32* @injectFault4(i64 374, i32* %5, i32 31, i32 0, i32 1, i32 0, i8* getelementptr inbounds ([7 x i8], [7 x i8]* @alloca_namestr, i32 0, i32 0)), !llfi_injectfault !6
  %6 = alloca double*, align 8, !llfi_index !379
  %fi23 = call double** @injectFault8(i64 375, double** %6, i32 31, i32 0, i32 1, i32 0, i8* getelementptr inbounds ([7 x i8], [7 x i8]* @alloca_namestr, i32 0, i32 0)), !llfi_injectfault !6
  %7 = alloca double*, align 8, !llfi_index !380
  %fi24 = call double** @injectFault8(i64 376, double** %7, i32 31, i32 0, i32 1, i32 0, i8* getelementptr inbounds ([7 x i8], [7 x i8]* @alloca_namestr, i32 0, i32 0)), !llfi_injectfault !6
  %8 = alloca double*, align 8, !llfi_index !381
  %fi25 = call double** @injectFault8(i64 377, double** %8, i32 31, i32 0, i32 1, i32 0, i8* getelementptr inbounds ([7 x i8], [7 x i8]* @alloca_namestr, i32 0, i32 0)), !llfi_injectfault !6
  %9 = alloca i32, align 4, !llfi_index !382
  %fi26 = call i32* @injectFault4(i64 378, i32* %9, i32 31, i32 0, i32 1, i32 0, i8* getelementptr inbounds ([7 x i8], [7 x i8]* @alloca_namestr, i32 0, i32 0)), !llfi_injectfault !6
  store i32 %0, i32* %fi22, align 4, !llfi_index !383
  store double* %1, double** %fi23, align 8, !llfi_index !384
  store double* %2, double** %fi24, align 8, !llfi_index !385
  store double* %3, double** %fi25, align 8, !llfi_index !386
  store i32 0, i32* %fi26, align 4, !llfi_index !387
  br label %10, !llfi_index !388

10:                                               ; preds = %35, %4
  %11 = load i32, i32* %fi26, align 4, !llfi_index !389
  %fi = call i32 @injectFault2(i64 385, i32 %11, i32 32, i32 0, i32 1, i32 0, i8* getelementptr inbounds ([5 x i8], [5 x i8]* @load_namestr, i32 0, i32 0)), !llfi_injectfault !6
  %12 = load i32, i32* %fi22, align 4, !llfi_index !390
  %fi1 = call i32 @injectFault2(i64 386, i32 %12, i32 32, i32 0, i32 1, i32 0, i8* getelementptr inbounds ([5 x i8], [5 x i8]* @load_namestr, i32 0, i32 0)), !llfi_injectfault !6
  %13 = icmp slt i32 %fi, %fi1, !llfi_index !391
  %fi2 = call i1 @injectFault6(i64 387, i1 %13, i32 53, i32 0, i32 1, i32 0, i8* getelementptr inbounds ([5 x i8], [5 x i8]* @icmp_namestr, i32 0, i32 0)), !llfi_injectfault !6
  br i1 %fi2, label %14, label %38, !llfi_index !392

14:                                               ; preds = %10
  %15 = load i32, i32* %fi26, align 4, !llfi_index !393
  %fi3 = call i32 @injectFault2(i64 389, i32 %15, i32 32, i32 0, i32 1, i32 0, i8* getelementptr inbounds ([5 x i8], [5 x i8]* @load_namestr, i32 0, i32 0)), !llfi_injectfault !6
  %16 = call nonnull align 8 dereferenceable(8) double* @_ZN4Mesh1pEi(%struct.Mesh* nonnull align 8 dereferenceable(1376) @mesh, i32 %fi3), !llfi_index !394
  %fi4 = call double* @injectFault5(i64 390, double* %16, i32 56, i32 0, i32 1, i32 0, i8* getelementptr inbounds ([5 x i8], [5 x i8]* @call_namestr, i32 0, i32 0)), !llfi_injectfault !6
  %17 = load double, double* %fi4, align 8, !llfi_index !395
  %fi5 = call double @injectFault0(i64 391, double %17, i32 32, i32 0, i32 1, i32 0, i8* getelementptr inbounds ([5 x i8], [5 x i8]* @load_namestr, i32 0, i32 0)), !llfi_injectfault !6
  %18 = fneg double %fi5, !llfi_index !396
  %fi6 = call double @injectFault0(i64 392, double %18, i32 12, i32 0, i32 1, i32 0, i8* getelementptr inbounds ([5 x i8], [5 x i8]* @fneg_namestr, i32 0, i32 0)), !llfi_injectfault !6
  %19 = load i32, i32* %fi26, align 4, !llfi_index !397
  %fi7 = call i32 @injectFault2(i64 393, i32 %19, i32 32, i32 0, i32 1, i32 0, i8* getelementptr inbounds ([5 x i8], [5 x i8]* @load_namestr, i32 0, i32 0)), !llfi_injectfault !6
  %20 = call nonnull align 8 dereferenceable(8) double* @_ZN4Mesh1qEi(%struct.Mesh* nonnull align 8 dereferenceable(1376) @mesh, i32 %fi7), !llfi_index !398
  %fi8 = call double* @injectFault5(i64 394, double* %20, i32 56, i32 0, i32 1, i32 0, i8* getelementptr inbounds ([5 x i8], [5 x i8]* @call_namestr, i32 0, i32 0)), !llfi_injectfault !6
  %21 = load double, double* %fi8, align 8, !llfi_index !399
  %fi9 = call double @injectFault0(i64 395, double %21, i32 32, i32 0, i32 1, i32 0, i8* getelementptr inbounds ([5 x i8], [5 x i8]* @load_namestr, i32 0, i32 0)), !llfi_injectfault !6
  %22 = fsub double %fi6, %fi9, !llfi_index !400
  %fi10 = call double @injectFault0(i64 396, double %22, i32 16, i32 0, i32 1, i32 0, i8* getelementptr inbounds ([5 x i8], [5 x i8]* @fsub_namestr, i32 0, i32 0)), !llfi_injectfault !6
  %23 = load double*, double** %fi25, align 8, !llfi_index !401
  %fi11 = call double* @injectFault5(i64 397, double* %23, i32 32, i32 0, i32 1, i32 0, i8* getelementptr inbounds ([5 x i8], [5 x i8]* @load_namestr, i32 0, i32 0)), !llfi_injectfault !6
  %24 = load i32, i32* %fi26, align 4, !llfi_index !402
  %fi12 = call i32 @injectFault2(i64 398, i32 %24, i32 32, i32 0, i32 1, i32 0, i8* getelementptr inbounds ([5 x i8], [5 x i8]* @load_namestr, i32 0, i32 0)), !llfi_injectfault !6
  %25 = sext i32 %fi12 to i64, !llfi_index !403
  %fi13 = call i64 @injectFault7(i64 399, i64 %25, i32 40, i32 0, i32 1, i32 0, i8* getelementptr inbounds ([5 x i8], [5 x i8]* @sext_namestr, i32 0, i32 0)), !llfi_injectfault !6
  %26 = getelementptr inbounds double, double* %fi11, i64 %fi13, !llfi_index !404
  store double %fi10, double* %26, align 8, !llfi_index !405
  %27 = load double*, double** %fi24, align 8, !llfi_index !406
  %fi14 = call double* @injectFault5(i64 402, double* %27, i32 32, i32 0, i32 1, i32 0, i8* getelementptr inbounds ([5 x i8], [5 x i8]* @load_namestr, i32 0, i32 0)), !llfi_injectfault !6
  %28 = load i32, i32* %fi26, align 4, !llfi_index !407
  %fi15 = call i32 @injectFault2(i64 403, i32 %28, i32 32, i32 0, i32 1, i32 0, i8* getelementptr inbounds ([5 x i8], [5 x i8]* @load_namestr, i32 0, i32 0)), !llfi_injectfault !6
  %29 = sext i32 %fi15 to i64, !llfi_index !408
  %fi16 = call i64 @injectFault7(i64 404, i64 %29, i32 40, i32 0, i32 1, i32 0, i8* getelementptr inbounds ([5 x i8], [5 x i8]* @sext_namestr, i32 0, i32 0)), !llfi_injectfault !6
  %30 = getelementptr inbounds double, double* %fi14, i64 %fi16, !llfi_index !409
  store double %fi10, double* %30, align 8, !llfi_index !410
  %31 = load double*, double** %fi23, align 8, !llfi_index !411
  %fi17 = call double* @injectFault5(i64 407, double* %31, i32 32, i32 0, i32 1, i32 0, i8* getelementptr inbounds ([5 x i8], [5 x i8]* @load_namestr, i32 0, i32 0)), !llfi_injectfault !6
  %32 = load i32, i32* %fi26, align 4, !llfi_index !412
  %fi18 = call i32 @injectFault2(i64 408, i32 %32, i32 32, i32 0, i32 1, i32 0, i8* getelementptr inbounds ([5 x i8], [5 x i8]* @load_namestr, i32 0, i32 0)), !llfi_injectfault !6
  %33 = sext i32 %fi18 to i64, !llfi_index !413
  %fi19 = call i64 @injectFault7(i64 409, i64 %33, i32 40, i32 0, i32 1, i32 0, i8* getelementptr inbounds ([5 x i8], [5 x i8]* @sext_namestr, i32 0, i32 0)), !llfi_injectfault !6
  %34 = getelementptr inbounds double, double* %fi17, i64 %fi19, !llfi_index !414
  store double %fi10, double* %34, align 8, !llfi_index !415
  br label %35, !llfi_index !416

35:                                               ; preds = %14
  %36 = load i32, i32* %fi26, align 4, !llfi_index !417
  %fi20 = call i32 @injectFault2(i64 413, i32 %36, i32 32, i32 0, i32 1, i32 0, i8* getelementptr inbounds ([5 x i8], [5 x i8]* @load_namestr, i32 0, i32 0)), !llfi_injectfault !6
  %37 = add nsw i32 %fi20, 1, !llfi_index !418
  %fi21 = call i32 @injectFault2(i64 414, i32 %37, i32 13, i32 0, i32 1, i32 0, i8* getelementptr inbounds ([4 x i8], [4 x i8]* @add_namestr, i32 0, i32 0)), !llfi_injectfault !6
  store i32 %fi21, i32* %fi26, align 4, !llfi_index !419
  br label %10, !llvm.loop !420, !llfi_index !422

38:                                               ; preds = %10
  ret void, !llfi_index !423
}

; Function Attrs: mustprogress noinline nounwind uwtable
define linkonce_odr dso_local nonnull align 8 dereferenceable(8) double* @_ZN4Mesh1pEi(%struct.Mesh* nonnull align 8 dereferenceable(1376) %0, i32 %1) #4 comdat align 2 {
  %3 = alloca %struct.Mesh*, align 8, !llfi_index !424
  %fi = call %struct.Mesh** @injectFault1(i64 418, %struct.Mesh** %3, i32 31, i32 0, i32 1, i32 0, i8* getelementptr inbounds ([7 x i8], [7 x i8]* @alloca_namestr, i32 0, i32 0)), !llfi_injectfault !6
  %4 = alloca i32, align 4, !llfi_index !425
  %fi1 = call i32* @injectFault4(i64 419, i32* %4, i32 31, i32 0, i32 1, i32 0, i8* getelementptr inbounds ([7 x i8], [7 x i8]* @alloca_namestr, i32 0, i32 0)), !llfi_injectfault !6
  store %struct.Mesh* %0, %struct.Mesh** %fi, align 8, !llfi_index !426
  store i32 %1, i32* %fi1, align 4, !llfi_index !427
  %5 = load %struct.Mesh*, %struct.Mesh** %fi, align 8, !llfi_index !428
  %fi2 = call %struct.Mesh* @injectFault3(i64 422, %struct.Mesh* %5, i32 32, i32 0, i32 1, i32 0, i8* getelementptr inbounds ([5 x i8], [5 x i8]* @load_namestr, i32 0, i32 0)), !llfi_injectfault !6
  %6 = getelementptr inbounds %struct.Mesh, %struct.Mesh* %fi2, i32 0, i32 35, !llfi_index !429
  %7 = load i32, i32* %fi1, align 4, !llfi_index !430
  %fi3 = call i32 @injectFault2(i64 424, i32 %7, i32 32, i32 0, i32 1, i32 0, i8* getelementptr inbounds ([5 x i8], [5 x i8]* @load_namestr, i32 0, i32 0)), !llfi_injectfault !6
  %8 = sext i32 %fi3 to i64, !llfi_index !431
  %fi4 = call i64 @injectFault7(i64 425, i64 %8, i32 40, i32 0, i32 1, i32 0, i8* getelementptr inbounds ([5 x i8], [5 x i8]* @sext_namestr, i32 0, i32 0)), !llfi_injectfault !6
  %9 = call nonnull align 8 dereferenceable(8) double* @_ZNSt6vectorIdSaIdEEixEm(%"class.std::vector"* nonnull align 8 dereferenceable(24) %6, i64 %fi4) #2, !llfi_index !432
  %fi5 = call double* @injectFault5(i64 426, double* %9, i32 56, i32 0, i32 1, i32 0, i8* getelementptr inbounds ([5 x i8], [5 x i8]* @call_namestr, i32 0, i32 0)), !llfi_injectfault !6
  ret double* %fi5, !llfi_index !433
}

; Function Attrs: mustprogress noinline nounwind uwtable
define linkonce_odr dso_local nonnull align 8 dereferenceable(8) double* @_ZN4Mesh1qEi(%struct.Mesh* nonnull align 8 dereferenceable(1376) %0, i32 %1) #4 comdat align 2 {
  %3 = alloca %struct.Mesh*, align 8, !llfi_index !434
  %fi = call %struct.Mesh** @injectFault1(i64 428, %struct.Mesh** %3, i32 31, i32 0, i32 1, i32 0, i8* getelementptr inbounds ([7 x i8], [7 x i8]* @alloca_namestr, i32 0, i32 0)), !llfi_injectfault !6
  %4 = alloca i32, align 4, !llfi_index !435
  %fi1 = call i32* @injectFault4(i64 429, i32* %4, i32 31, i32 0, i32 1, i32 0, i8* getelementptr inbounds ([7 x i8], [7 x i8]* @alloca_namestr, i32 0, i32 0)), !llfi_injectfault !6
  store %struct.Mesh* %0, %struct.Mesh** %fi, align 8, !llfi_index !436
  store i32 %1, i32* %fi1, align 4, !llfi_index !437
  %5 = load %struct.Mesh*, %struct.Mesh** %fi, align 8, !llfi_index !438
  %fi2 = call %struct.Mesh* @injectFault3(i64 432, %struct.Mesh* %5, i32 32, i32 0, i32 1, i32 0, i8* getelementptr inbounds ([5 x i8], [5 x i8]* @load_namestr, i32 0, i32 0)), !llfi_injectfault !6
  %6 = getelementptr inbounds %struct.Mesh, %struct.Mesh* %fi2, i32 0, i32 36, !llfi_index !439
  %7 = load i32, i32* %fi1, align 4, !llfi_index !440
  %fi3 = call i32 @injectFault2(i64 434, i32 %7, i32 32, i32 0, i32 1, i32 0, i8* getelementptr inbounds ([5 x i8], [5 x i8]* @load_namestr, i32 0, i32 0)), !llfi_injectfault !6
  %8 = sext i32 %fi3 to i64, !llfi_index !441
  %fi4 = call i64 @injectFault7(i64 435, i64 %8, i32 40, i32 0, i32 1, i32 0, i8* getelementptr inbounds ([5 x i8], [5 x i8]* @sext_namestr, i32 0, i32 0)), !llfi_injectfault !6
  %9 = call nonnull align 8 dereferenceable(8) double* @_ZNSt6vectorIdSaIdEEixEm(%"class.std::vector"* nonnull align 8 dereferenceable(24) %6, i64 %fi4) #2, !llfi_index !442
  %fi5 = call double* @injectFault5(i64 436, double* %9, i32 56, i32 0, i32 1, i32 0, i8* getelementptr inbounds ([5 x i8], [5 x i8]* @call_namestr, i32 0, i32 0)), !llfi_injectfault !6
  ret double* %fi5, !llfi_index !443
}

; Function Attrs: mustprogress noinline nounwind uwtable
define dso_local void @_Z32CalcElemShapeFunctionDerivativesPKdS0_S0_PA8_dPd(double* %0, double* %1, double* %2, [8 x double]* %3, double* %4) #4 {
  %6 = alloca double*, align 8, !llfi_index !444
  %fi73 = call double** @injectFault8(i64 438, double** %6, i32 31, i32 0, i32 1, i32 0, i8* getelementptr inbounds ([7 x i8], [7 x i8]* @alloca_namestr, i32 0, i32 0)), !llfi_injectfault !6
  %7 = alloca double*, align 8, !llfi_index !445
  %fi74 = call double** @injectFault8(i64 439, double** %7, i32 31, i32 0, i32 1, i32 0, i8* getelementptr inbounds ([7 x i8], [7 x i8]* @alloca_namestr, i32 0, i32 0)), !llfi_injectfault !6
  %8 = alloca double*, align 8, !llfi_index !446
  %fi75 = call double** @injectFault8(i64 440, double** %8, i32 31, i32 0, i32 1, i32 0, i8* getelementptr inbounds ([7 x i8], [7 x i8]* @alloca_namestr, i32 0, i32 0)), !llfi_injectfault !6
  %9 = alloca [8 x double]*, align 8, !llfi_index !447
  %fi76 = call [8 x double]** @injectFault10(i64 441, [8 x double]** %9, i32 31, i32 0, i32 1, i32 0, i8* getelementptr inbounds ([7 x i8], [7 x i8]* @alloca_namestr, i32 0, i32 0)), !llfi_injectfault !6
  %10 = alloca double*, align 8, !llfi_index !448
  %fi77 = call double** @injectFault8(i64 442, double** %10, i32 31, i32 0, i32 1, i32 0, i8* getelementptr inbounds ([7 x i8], [7 x i8]* @alloca_namestr, i32 0, i32 0)), !llfi_injectfault !6
  %11 = alloca double, align 8, !llfi_index !449
  %fi78 = call double* @injectFault5(i64 443, double* %11, i32 31, i32 0, i32 1, i32 0, i8* getelementptr inbounds ([7 x i8], [7 x i8]* @alloca_namestr, i32 0, i32 0)), !llfi_injectfault !6
  %12 = alloca double, align 8, !llfi_index !450
  %fi79 = call double* @injectFault5(i64 444, double* %12, i32 31, i32 0, i32 1, i32 0, i8* getelementptr inbounds ([7 x i8], [7 x i8]* @alloca_namestr, i32 0, i32 0)), !llfi_injectfault !6
  %13 = alloca double, align 8, !llfi_index !451
  %fi80 = call double* @injectFault5(i64 445, double* %13, i32 31, i32 0, i32 1, i32 0, i8* getelementptr inbounds ([7 x i8], [7 x i8]* @alloca_namestr, i32 0, i32 0)), !llfi_injectfault !6
  %14 = alloca double, align 8, !llfi_index !452
  %fi81 = call double* @injectFault5(i64 446, double* %14, i32 31, i32 0, i32 1, i32 0, i8* getelementptr inbounds ([7 x i8], [7 x i8]* @alloca_namestr, i32 0, i32 0)), !llfi_injectfault !6
  %15 = alloca double, align 8, !llfi_index !453
  %fi82 = call double* @injectFault5(i64 447, double* %15, i32 31, i32 0, i32 1, i32 0, i8* getelementptr inbounds ([7 x i8], [7 x i8]* @alloca_namestr, i32 0, i32 0)), !llfi_injectfault !6
  %16 = alloca double, align 8, !llfi_index !454
  %fi83 = call double* @injectFault5(i64 448, double* %16, i32 31, i32 0, i32 1, i32 0, i8* getelementptr inbounds ([7 x i8], [7 x i8]* @alloca_namestr, i32 0, i32 0)), !llfi_injectfault !6
  %17 = alloca double, align 8, !llfi_index !455
  %fi84 = call double* @injectFault5(i64 449, double* %17, i32 31, i32 0, i32 1, i32 0, i8* getelementptr inbounds ([7 x i8], [7 x i8]* @alloca_namestr, i32 0, i32 0)), !llfi_injectfault !6
  %18 = alloca double, align 8, !llfi_index !456
  %fi85 = call double* @injectFault5(i64 450, double* %18, i32 31, i32 0, i32 1, i32 0, i8* getelementptr inbounds ([7 x i8], [7 x i8]* @alloca_namestr, i32 0, i32 0)), !llfi_injectfault !6
  %19 = alloca double, align 8, !llfi_index !457
  %fi86 = call double* @injectFault5(i64 451, double* %19, i32 31, i32 0, i32 1, i32 0, i8* getelementptr inbounds ([7 x i8], [7 x i8]* @alloca_namestr, i32 0, i32 0)), !llfi_injectfault !6
  %20 = alloca double, align 8, !llfi_index !458
  %fi87 = call double* @injectFault5(i64 452, double* %20, i32 31, i32 0, i32 1, i32 0, i8* getelementptr inbounds ([7 x i8], [7 x i8]* @alloca_namestr, i32 0, i32 0)), !llfi_injectfault !6
  %21 = alloca double, align 8, !llfi_index !459
  %fi88 = call double* @injectFault5(i64 453, double* %21, i32 31, i32 0, i32 1, i32 0, i8* getelementptr inbounds ([7 x i8], [7 x i8]* @alloca_namestr, i32 0, i32 0)), !llfi_injectfault !6
  %22 = alloca double, align 8, !llfi_index !460
  %fi89 = call double* @injectFault5(i64 454, double* %22, i32 31, i32 0, i32 1, i32 0, i8* getelementptr inbounds ([7 x i8], [7 x i8]* @alloca_namestr, i32 0, i32 0)), !llfi_injectfault !6
  %23 = alloca double, align 8, !llfi_index !461
  %fi90 = call double* @injectFault5(i64 455, double* %23, i32 31, i32 0, i32 1, i32 0, i8* getelementptr inbounds ([7 x i8], [7 x i8]* @alloca_namestr, i32 0, i32 0)), !llfi_injectfault !6
  %24 = alloca double, align 8, !llfi_index !462
  %fi91 = call double* @injectFault5(i64 456, double* %24, i32 31, i32 0, i32 1, i32 0, i8* getelementptr inbounds ([7 x i8], [7 x i8]* @alloca_namestr, i32 0, i32 0)), !llfi_injectfault !6
  %25 = alloca double, align 8, !llfi_index !463
  %fi92 = call double* @injectFault5(i64 457, double* %25, i32 31, i32 0, i32 1, i32 0, i8* getelementptr inbounds ([7 x i8], [7 x i8]* @alloca_namestr, i32 0, i32 0)), !llfi_injectfault !6
  %26 = alloca double, align 8, !llfi_index !464
  %fi93 = call double* @injectFault5(i64 458, double* %26, i32 31, i32 0, i32 1, i32 0, i8* getelementptr inbounds ([7 x i8], [7 x i8]* @alloca_namestr, i32 0, i32 0)), !llfi_injectfault !6
  %27 = alloca double, align 8, !llfi_index !465
  %fi94 = call double* @injectFault5(i64 459, double* %27, i32 31, i32 0, i32 1, i32 0, i8* getelementptr inbounds ([7 x i8], [7 x i8]* @alloca_namestr, i32 0, i32 0)), !llfi_injectfault !6
  %28 = alloca double, align 8, !llfi_index !466
  %fi95 = call double* @injectFault5(i64 460, double* %28, i32 31, i32 0, i32 1, i32 0, i8* getelementptr inbounds ([7 x i8], [7 x i8]* @alloca_namestr, i32 0, i32 0)), !llfi_injectfault !6
  %29 = alloca double, align 8, !llfi_index !467
  %fi96 = call double* @injectFault5(i64 461, double* %29, i32 31, i32 0, i32 1, i32 0, i8* getelementptr inbounds ([7 x i8], [7 x i8]* @alloca_namestr, i32 0, i32 0)), !llfi_injectfault !6
  %30 = alloca double, align 8, !llfi_index !468
  %fi97 = call double* @injectFault5(i64 462, double* %30, i32 31, i32 0, i32 1, i32 0, i8* getelementptr inbounds ([7 x i8], [7 x i8]* @alloca_namestr, i32 0, i32 0)), !llfi_injectfault !6
  %31 = alloca double, align 8, !llfi_index !469
  %fi98 = call double* @injectFault5(i64 463, double* %31, i32 31, i32 0, i32 1, i32 0, i8* getelementptr inbounds ([7 x i8], [7 x i8]* @alloca_namestr, i32 0, i32 0)), !llfi_injectfault !6
  %32 = alloca double, align 8, !llfi_index !470
  %fi99 = call double* @injectFault5(i64 464, double* %32, i32 31, i32 0, i32 1, i32 0, i8* getelementptr inbounds ([7 x i8], [7 x i8]* @alloca_namestr, i32 0, i32 0)), !llfi_injectfault !6
  %33 = alloca double, align 8, !llfi_index !471
  %fi100 = call double* @injectFault5(i64 465, double* %33, i32 31, i32 0, i32 1, i32 0, i8* getelementptr inbounds ([7 x i8], [7 x i8]* @alloca_namestr, i32 0, i32 0)), !llfi_injectfault !6
  %34 = alloca double, align 8, !llfi_index !472
  %fi101 = call double* @injectFault5(i64 466, double* %34, i32 31, i32 0, i32 1, i32 0, i8* getelementptr inbounds ([7 x i8], [7 x i8]* @alloca_namestr, i32 0, i32 0)), !llfi_injectfault !6
  %35 = alloca double, align 8, !llfi_index !473
  %fi102 = call double* @injectFault5(i64 467, double* %35, i32 31, i32 0, i32 1, i32 0, i8* getelementptr inbounds ([7 x i8], [7 x i8]* @alloca_namestr, i32 0, i32 0)), !llfi_injectfault !6
  %36 = alloca double, align 8, !llfi_index !474
  %fi103 = call double* @injectFault5(i64 468, double* %36, i32 31, i32 0, i32 1, i32 0, i8* getelementptr inbounds ([7 x i8], [7 x i8]* @alloca_namestr, i32 0, i32 0)), !llfi_injectfault !6
  %37 = alloca double, align 8, !llfi_index !475
  %fi104 = call double* @injectFault5(i64 469, double* %37, i32 31, i32 0, i32 1, i32 0, i8* getelementptr inbounds ([7 x i8], [7 x i8]* @alloca_namestr, i32 0, i32 0)), !llfi_injectfault !6
  %38 = alloca double, align 8, !llfi_index !476
  %fi105 = call double* @injectFault5(i64 470, double* %38, i32 31, i32 0, i32 1, i32 0, i8* getelementptr inbounds ([7 x i8], [7 x i8]* @alloca_namestr, i32 0, i32 0)), !llfi_injectfault !6
  %39 = alloca double, align 8, !llfi_index !477
  %fi106 = call double* @injectFault5(i64 471, double* %39, i32 31, i32 0, i32 1, i32 0, i8* getelementptr inbounds ([7 x i8], [7 x i8]* @alloca_namestr, i32 0, i32 0)), !llfi_injectfault !6
  %40 = alloca double, align 8, !llfi_index !478
  %fi107 = call double* @injectFault5(i64 472, double* %40, i32 31, i32 0, i32 1, i32 0, i8* getelementptr inbounds ([7 x i8], [7 x i8]* @alloca_namestr, i32 0, i32 0)), !llfi_injectfault !6
  %41 = alloca double, align 8, !llfi_index !479
  %fi108 = call double* @injectFault5(i64 473, double* %41, i32 31, i32 0, i32 1, i32 0, i8* getelementptr inbounds ([7 x i8], [7 x i8]* @alloca_namestr, i32 0, i32 0)), !llfi_injectfault !6
  %42 = alloca double, align 8, !llfi_index !480
  %fi109 = call double* @injectFault5(i64 474, double* %42, i32 31, i32 0, i32 1, i32 0, i8* getelementptr inbounds ([7 x i8], [7 x i8]* @alloca_namestr, i32 0, i32 0)), !llfi_injectfault !6
  %43 = alloca double, align 8, !llfi_index !481
  %fi110 = call double* @injectFault5(i64 475, double* %43, i32 31, i32 0, i32 1, i32 0, i8* getelementptr inbounds ([7 x i8], [7 x i8]* @alloca_namestr, i32 0, i32 0)), !llfi_injectfault !6
  %44 = alloca double, align 8, !llfi_index !482
  %fi111 = call double* @injectFault5(i64 476, double* %44, i32 31, i32 0, i32 1, i32 0, i8* getelementptr inbounds ([7 x i8], [7 x i8]* @alloca_namestr, i32 0, i32 0)), !llfi_injectfault !6
  %45 = alloca double, align 8, !llfi_index !483
  %fi112 = call double* @injectFault5(i64 477, double* %45, i32 31, i32 0, i32 1, i32 0, i8* getelementptr inbounds ([7 x i8], [7 x i8]* @alloca_namestr, i32 0, i32 0)), !llfi_injectfault !6
  %46 = alloca double, align 8, !llfi_index !484
  %fi113 = call double* @injectFault5(i64 478, double* %46, i32 31, i32 0, i32 1, i32 0, i8* getelementptr inbounds ([7 x i8], [7 x i8]* @alloca_namestr, i32 0, i32 0)), !llfi_injectfault !6
  %47 = alloca double, align 8, !llfi_index !485
  %fi114 = call double* @injectFault5(i64 479, double* %47, i32 31, i32 0, i32 1, i32 0, i8* getelementptr inbounds ([7 x i8], [7 x i8]* @alloca_namestr, i32 0, i32 0)), !llfi_injectfault !6
  %48 = alloca double, align 8, !llfi_index !486
  %fi115 = call double* @injectFault5(i64 480, double* %48, i32 31, i32 0, i32 1, i32 0, i8* getelementptr inbounds ([7 x i8], [7 x i8]* @alloca_namestr, i32 0, i32 0)), !llfi_injectfault !6
  %49 = alloca double, align 8, !llfi_index !487
  %fi116 = call double* @injectFault5(i64 481, double* %49, i32 31, i32 0, i32 1, i32 0, i8* getelementptr inbounds ([7 x i8], [7 x i8]* @alloca_namestr, i32 0, i32 0)), !llfi_injectfault !6
  %50 = alloca double, align 8, !llfi_index !488
  %fi117 = call double* @injectFault5(i64 482, double* %50, i32 31, i32 0, i32 1, i32 0, i8* getelementptr inbounds ([7 x i8], [7 x i8]* @alloca_namestr, i32 0, i32 0)), !llfi_injectfault !6
  %51 = alloca double, align 8, !llfi_index !489
  %fi118 = call double* @injectFault5(i64 483, double* %51, i32 31, i32 0, i32 1, i32 0, i8* getelementptr inbounds ([7 x i8], [7 x i8]* @alloca_namestr, i32 0, i32 0)), !llfi_injectfault !6
  %52 = alloca double, align 8, !llfi_index !490
  %fi119 = call double* @injectFault5(i64 484, double* %52, i32 31, i32 0, i32 1, i32 0, i8* getelementptr inbounds ([7 x i8], [7 x i8]* @alloca_namestr, i32 0, i32 0)), !llfi_injectfault !6
  store double* %0, double** %fi73, align 8, !llfi_index !491
  store double* %1, double** %fi74, align 8, !llfi_index !492
  store double* %2, double** %fi75, align 8, !llfi_index !493
  store [8 x double]* %3, [8 x double]** %fi76, align 8, !llfi_index !494
  store double* %4, double** %fi77, align 8, !llfi_index !495
  %53 = load double*, double** %fi73, align 8, !llfi_index !496
  %fi120 = call double* @injectFault5(i64 490, double* %53, i32 32, i32 0, i32 1, i32 0, i8* getelementptr inbounds ([5 x i8], [5 x i8]* @load_namestr, i32 0, i32 0)), !llfi_injectfault !6
  %54 = getelementptr inbounds double, double* %fi120, i64 0, !llfi_index !497
  %55 = load double, double* %54, align 8, !llfi_index !498
  %fi121 = call double @injectFault0(i64 492, double %55, i32 32, i32 0, i32 1, i32 0, i8* getelementptr inbounds ([5 x i8], [5 x i8]* @load_namestr, i32 0, i32 0)), !llfi_injectfault !6
  store double %fi121, double* %fi78, align 8, !llfi_index !499
  %56 = load double*, double** %fi73, align 8, !llfi_index !500
  %fi122 = call double* @injectFault5(i64 494, double* %56, i32 32, i32 0, i32 1, i32 0, i8* getelementptr inbounds ([5 x i8], [5 x i8]* @load_namestr, i32 0, i32 0)), !llfi_injectfault !6
  %57 = getelementptr inbounds double, double* %fi122, i64 1, !llfi_index !501
  %58 = load double, double* %57, align 8, !llfi_index !502
  %fi123 = call double @injectFault0(i64 496, double %58, i32 32, i32 0, i32 1, i32 0, i8* getelementptr inbounds ([5 x i8], [5 x i8]* @load_namestr, i32 0, i32 0)), !llfi_injectfault !6
  store double %fi123, double* %fi79, align 8, !llfi_index !503
  %59 = load double*, double** %fi73, align 8, !llfi_index !504
  %fi124 = call double* @injectFault5(i64 498, double* %59, i32 32, i32 0, i32 1, i32 0, i8* getelementptr inbounds ([5 x i8], [5 x i8]* @load_namestr, i32 0, i32 0)), !llfi_injectfault !6
  %60 = getelementptr inbounds double, double* %fi124, i64 2, !llfi_index !505
  %61 = load double, double* %60, align 8, !llfi_index !506
  %fi125 = call double @injectFault0(i64 500, double %61, i32 32, i32 0, i32 1, i32 0, i8* getelementptr inbounds ([5 x i8], [5 x i8]* @load_namestr, i32 0, i32 0)), !llfi_injectfault !6
  store double %fi125, double* %fi80, align 8, !llfi_index !507
  %62 = load double*, double** %fi73, align 8, !llfi_index !508
  %fi126 = call double* @injectFault5(i64 502, double* %62, i32 32, i32 0, i32 1, i32 0, i8* getelementptr inbounds ([5 x i8], [5 x i8]* @load_namestr, i32 0, i32 0)), !llfi_injectfault !6
  %63 = getelementptr inbounds double, double* %fi126, i64 3, !llfi_index !509
  %64 = load double, double* %63, align 8, !llfi_index !510
  %fi127 = call double @injectFault0(i64 504, double %64, i32 32, i32 0, i32 1, i32 0, i8* getelementptr inbounds ([5 x i8], [5 x i8]* @load_namestr, i32 0, i32 0)), !llfi_injectfault !6
  store double %fi127, double* %fi81, align 8, !llfi_index !511
  %65 = load double*, double** %fi73, align 8, !llfi_index !512
  %fi128 = call double* @injectFault5(i64 506, double* %65, i32 32, i32 0, i32 1, i32 0, i8* getelementptr inbounds ([5 x i8], [5 x i8]* @load_namestr, i32 0, i32 0)), !llfi_injectfault !6
  %66 = getelementptr inbounds double, double* %fi128, i64 4, !llfi_index !513
  %67 = load double, double* %66, align 8, !llfi_index !514
  %fi129 = call double @injectFault0(i64 508, double %67, i32 32, i32 0, i32 1, i32 0, i8* getelementptr inbounds ([5 x i8], [5 x i8]* @load_namestr, i32 0, i32 0)), !llfi_injectfault !6
  store double %fi129, double* %fi82, align 8, !llfi_index !515
  %68 = load double*, double** %fi73, align 8, !llfi_index !516
  %fi130 = call double* @injectFault5(i64 510, double* %68, i32 32, i32 0, i32 1, i32 0, i8* getelementptr inbounds ([5 x i8], [5 x i8]* @load_namestr, i32 0, i32 0)), !llfi_injectfault !6
  %69 = getelementptr inbounds double, double* %fi130, i64 5, !llfi_index !517
  %70 = load double, double* %69, align 8, !llfi_index !518
  %fi131 = call double @injectFault0(i64 512, double %70, i32 32, i32 0, i32 1, i32 0, i8* getelementptr inbounds ([5 x i8], [5 x i8]* @load_namestr, i32 0, i32 0)), !llfi_injectfault !6
  store double %fi131, double* %fi83, align 8, !llfi_index !519
  %71 = load double*, double** %fi73, align 8, !llfi_index !520
  %fi132 = call double* @injectFault5(i64 514, double* %71, i32 32, i32 0, i32 1, i32 0, i8* getelementptr inbounds ([5 x i8], [5 x i8]* @load_namestr, i32 0, i32 0)), !llfi_injectfault !6
  %72 = getelementptr inbounds double, double* %fi132, i64 6, !llfi_index !521
  %73 = load double, double* %72, align 8, !llfi_index !522
  %fi133 = call double @injectFault0(i64 516, double %73, i32 32, i32 0, i32 1, i32 0, i8* getelementptr inbounds ([5 x i8], [5 x i8]* @load_namestr, i32 0, i32 0)), !llfi_injectfault !6
  store double %fi133, double* %fi84, align 8, !llfi_index !523
  %74 = load double*, double** %fi73, align 8, !llfi_index !524
  %fi134 = call double* @injectFault5(i64 518, double* %74, i32 32, i32 0, i32 1, i32 0, i8* getelementptr inbounds ([5 x i8], [5 x i8]* @load_namestr, i32 0, i32 0)), !llfi_injectfault !6
  %75 = getelementptr inbounds double, double* %fi134, i64 7, !llfi_index !525
  %76 = load double, double* %75, align 8, !llfi_index !526
  %fi135 = call double @injectFault0(i64 520, double %76, i32 32, i32 0, i32 1, i32 0, i8* getelementptr inbounds ([5 x i8], [5 x i8]* @load_namestr, i32 0, i32 0)), !llfi_injectfault !6
  store double %fi135, double* %fi85, align 8, !llfi_index !527
  %77 = load double*, double** %fi74, align 8, !llfi_index !528
  %fi136 = call double* @injectFault5(i64 522, double* %77, i32 32, i32 0, i32 1, i32 0, i8* getelementptr inbounds ([5 x i8], [5 x i8]* @load_namestr, i32 0, i32 0)), !llfi_injectfault !6
  %78 = getelementptr inbounds double, double* %fi136, i64 0, !llfi_index !529
  %79 = load double, double* %78, align 8, !llfi_index !530
  %fi137 = call double @injectFault0(i64 524, double %79, i32 32, i32 0, i32 1, i32 0, i8* getelementptr inbounds ([5 x i8], [5 x i8]* @load_namestr, i32 0, i32 0)), !llfi_injectfault !6
  store double %fi137, double* %fi86, align 8, !llfi_index !531
  %80 = load double*, double** %fi74, align 8, !llfi_index !532
  %fi138 = call double* @injectFault5(i64 526, double* %80, i32 32, i32 0, i32 1, i32 0, i8* getelementptr inbounds ([5 x i8], [5 x i8]* @load_namestr, i32 0, i32 0)), !llfi_injectfault !6
  %81 = getelementptr inbounds double, double* %fi138, i64 1, !llfi_index !533
  %82 = load double, double* %81, align 8, !llfi_index !534
  %fi139 = call double @injectFault0(i64 528, double %82, i32 32, i32 0, i32 1, i32 0, i8* getelementptr inbounds ([5 x i8], [5 x i8]* @load_namestr, i32 0, i32 0)), !llfi_injectfault !6
  store double %fi139, double* %fi87, align 8, !llfi_index !535
  %83 = load double*, double** %fi74, align 8, !llfi_index !536
  %fi140 = call double* @injectFault5(i64 530, double* %83, i32 32, i32 0, i32 1, i32 0, i8* getelementptr inbounds ([5 x i8], [5 x i8]* @load_namestr, i32 0, i32 0)), !llfi_injectfault !6
  %84 = getelementptr inbounds double, double* %fi140, i64 2, !llfi_index !537
  %85 = load double, double* %84, align 8, !llfi_index !538
  %fi141 = call double @injectFault0(i64 532, double %85, i32 32, i32 0, i32 1, i32 0, i8* getelementptr inbounds ([5 x i8], [5 x i8]* @load_namestr, i32 0, i32 0)), !llfi_injectfault !6
  store double %fi141, double* %fi88, align 8, !llfi_index !539
  %86 = load double*, double** %fi74, align 8, !llfi_index !540
  %fi142 = call double* @injectFault5(i64 534, double* %86, i32 32, i32 0, i32 1, i32 0, i8* getelementptr inbounds ([5 x i8], [5 x i8]* @load_namestr, i32 0, i32 0)), !llfi_injectfault !6
  %87 = getelementptr inbounds double, double* %fi142, i64 3, !llfi_index !541
  %88 = load double, double* %87, align 8, !llfi_index !542
  %fi143 = call double @injectFault0(i64 536, double %88, i32 32, i32 0, i32 1, i32 0, i8* getelementptr inbounds ([5 x i8], [5 x i8]* @load_namestr, i32 0, i32 0)), !llfi_injectfault !6
  store double %fi143, double* %fi89, align 8, !llfi_index !543
  %89 = load double*, double** %fi74, align 8, !llfi_index !544
  %fi144 = call double* @injectFault5(i64 538, double* %89, i32 32, i32 0, i32 1, i32 0, i8* getelementptr inbounds ([5 x i8], [5 x i8]* @load_namestr, i32 0, i32 0)), !llfi_injectfault !6
  %90 = getelementptr inbounds double, double* %fi144, i64 4, !llfi_index !545
  %91 = load double, double* %90, align 8, !llfi_index !546
  %fi145 = call double @injectFault0(i64 540, double %91, i32 32, i32 0, i32 1, i32 0, i8* getelementptr inbounds ([5 x i8], [5 x i8]* @load_namestr, i32 0, i32 0)), !llfi_injectfault !6
  store double %fi145, double* %fi90, align 8, !llfi_index !547
  %92 = load double*, double** %fi74, align 8, !llfi_index !548
  %fi146 = call double* @injectFault5(i64 542, double* %92, i32 32, i32 0, i32 1, i32 0, i8* getelementptr inbounds ([5 x i8], [5 x i8]* @load_namestr, i32 0, i32 0)), !llfi_injectfault !6
  %93 = getelementptr inbounds double, double* %fi146, i64 5, !llfi_index !549
  %94 = load double, double* %93, align 8, !llfi_index !550
  %fi147 = call double @injectFault0(i64 544, double %94, i32 32, i32 0, i32 1, i32 0, i8* getelementptr inbounds ([5 x i8], [5 x i8]* @load_namestr, i32 0, i32 0)), !llfi_injectfault !6
  store double %fi147, double* %fi91, align 8, !llfi_index !551
  %95 = load double*, double** %fi74, align 8, !llfi_index !552
  %fi148 = call double* @injectFault5(i64 546, double* %95, i32 32, i32 0, i32 1, i32 0, i8* getelementptr inbounds ([5 x i8], [5 x i8]* @load_namestr, i32 0, i32 0)), !llfi_injectfault !6
  %96 = getelementptr inbounds double, double* %fi148, i64 6, !llfi_index !553
  %97 = load double, double* %96, align 8, !llfi_index !554
  %fi149 = call double @injectFault0(i64 548, double %97, i32 32, i32 0, i32 1, i32 0, i8* getelementptr inbounds ([5 x i8], [5 x i8]* @load_namestr, i32 0, i32 0)), !llfi_injectfault !6
  store double %fi149, double* %fi92, align 8, !llfi_index !555
  %98 = load double*, double** %fi74, align 8, !llfi_index !556
  %fi150 = call double* @injectFault5(i64 550, double* %98, i32 32, i32 0, i32 1, i32 0, i8* getelementptr inbounds ([5 x i8], [5 x i8]* @load_namestr, i32 0, i32 0)), !llfi_injectfault !6
  %99 = getelementptr inbounds double, double* %fi150, i64 7, !llfi_index !557
  %100 = load double, double* %99, align 8, !llfi_index !558
  %fi151 = call double @injectFault0(i64 552, double %100, i32 32, i32 0, i32 1, i32 0, i8* getelementptr inbounds ([5 x i8], [5 x i8]* @load_namestr, i32 0, i32 0)), !llfi_injectfault !6
  store double %fi151, double* %fi93, align 8, !llfi_index !559
  %101 = load double*, double** %fi75, align 8, !llfi_index !560
  %fi152 = call double* @injectFault5(i64 554, double* %101, i32 32, i32 0, i32 1, i32 0, i8* getelementptr inbounds ([5 x i8], [5 x i8]* @load_namestr, i32 0, i32 0)), !llfi_injectfault !6
  %102 = getelementptr inbounds double, double* %fi152, i64 0, !llfi_index !561
  %103 = load double, double* %102, align 8, !llfi_index !562
  %fi153 = call double @injectFault0(i64 556, double %103, i32 32, i32 0, i32 1, i32 0, i8* getelementptr inbounds ([5 x i8], [5 x i8]* @load_namestr, i32 0, i32 0)), !llfi_injectfault !6
  store double %fi153, double* %fi94, align 8, !llfi_index !563
  %104 = load double*, double** %fi75, align 8, !llfi_index !564
  %fi154 = call double* @injectFault5(i64 558, double* %104, i32 32, i32 0, i32 1, i32 0, i8* getelementptr inbounds ([5 x i8], [5 x i8]* @load_namestr, i32 0, i32 0)), !llfi_injectfault !6
  %105 = getelementptr inbounds double, double* %fi154, i64 1, !llfi_index !565
  %106 = load double, double* %105, align 8, !llfi_index !566
  %fi155 = call double @injectFault0(i64 560, double %106, i32 32, i32 0, i32 1, i32 0, i8* getelementptr inbounds ([5 x i8], [5 x i8]* @load_namestr, i32 0, i32 0)), !llfi_injectfault !6
  store double %fi155, double* %fi95, align 8, !llfi_index !567
  %107 = load double*, double** %fi75, align 8, !llfi_index !568
  %fi156 = call double* @injectFault5(i64 562, double* %107, i32 32, i32 0, i32 1, i32 0, i8* getelementptr inbounds ([5 x i8], [5 x i8]* @load_namestr, i32 0, i32 0)), !llfi_injectfault !6
  %108 = getelementptr inbounds double, double* %fi156, i64 2, !llfi_index !569
  %109 = load double, double* %108, align 8, !llfi_index !570
  %fi157 = call double @injectFault0(i64 564, double %109, i32 32, i32 0, i32 1, i32 0, i8* getelementptr inbounds ([5 x i8], [5 x i8]* @load_namestr, i32 0, i32 0)), !llfi_injectfault !6
  store double %fi157, double* %fi96, align 8, !llfi_index !571
  %110 = load double*, double** %fi75, align 8, !llfi_index !572
  %fi158 = call double* @injectFault5(i64 566, double* %110, i32 32, i32 0, i32 1, i32 0, i8* getelementptr inbounds ([5 x i8], [5 x i8]* @load_namestr, i32 0, i32 0)), !llfi_injectfault !6
  %111 = getelementptr inbounds double, double* %fi158, i64 3, !llfi_index !573
  %112 = load double, double* %111, align 8, !llfi_index !574
  %fi159 = call double @injectFault0(i64 568, double %112, i32 32, i32 0, i32 1, i32 0, i8* getelementptr inbounds ([5 x i8], [5 x i8]* @load_namestr, i32 0, i32 0)), !llfi_injectfault !6
  store double %fi159, double* %fi97, align 8, !llfi_index !575
  %113 = load double*, double** %fi75, align 8, !llfi_index !576
  %fi160 = call double* @injectFault5(i64 570, double* %113, i32 32, i32 0, i32 1, i32 0, i8* getelementptr inbounds ([5 x i8], [5 x i8]* @load_namestr, i32 0, i32 0)), !llfi_injectfault !6
  %114 = getelementptr inbounds double, double* %fi160, i64 4, !llfi_index !577
  %115 = load double, double* %114, align 8, !llfi_index !578
  %fi161 = call double @injectFault0(i64 572, double %115, i32 32, i32 0, i32 1, i32 0, i8* getelementptr inbounds ([5 x i8], [5 x i8]* @load_namestr, i32 0, i32 0)), !llfi_injectfault !6
  store double %fi161, double* %fi98, align 8, !llfi_index !579
  %116 = load double*, double** %fi75, align 8, !llfi_index !580
  %fi162 = call double* @injectFault5(i64 574, double* %116, i32 32, i32 0, i32 1, i32 0, i8* getelementptr inbounds ([5 x i8], [5 x i8]* @load_namestr, i32 0, i32 0)), !llfi_injectfault !6
  %117 = getelementptr inbounds double, double* %fi162, i64 5, !llfi_index !581
  %118 = load double, double* %117, align 8, !llfi_index !582
  %fi163 = call double @injectFault0(i64 576, double %118, i32 32, i32 0, i32 1, i32 0, i8* getelementptr inbounds ([5 x i8], [5 x i8]* @load_namestr, i32 0, i32 0)), !llfi_injectfault !6
  store double %fi163, double* %fi99, align 8, !llfi_index !583
  %119 = load double*, double** %fi75, align 8, !llfi_index !584
  %fi164 = call double* @injectFault5(i64 578, double* %119, i32 32, i32 0, i32 1, i32 0, i8* getelementptr inbounds ([5 x i8], [5 x i8]* @load_namestr, i32 0, i32 0)), !llfi_injectfault !6
  %120 = getelementptr inbounds double, double* %fi164, i64 6, !llfi_index !585
  %121 = load double, double* %120, align 8, !llfi_index !586
  %fi165 = call double @injectFault0(i64 580, double %121, i32 32, i32 0, i32 1, i32 0, i8* getelementptr inbounds ([5 x i8], [5 x i8]* @load_namestr, i32 0, i32 0)), !llfi_injectfault !6
  store double %fi165, double* %fi100, align 8, !llfi_index !587
  %122 = load double*, double** %fi75, align 8, !llfi_index !588
  %fi166 = call double* @injectFault5(i64 582, double* %122, i32 32, i32 0, i32 1, i32 0, i8* getelementptr inbounds ([5 x i8], [5 x i8]* @load_namestr, i32 0, i32 0)), !llfi_injectfault !6
  %123 = getelementptr inbounds double, double* %fi166, i64 7, !llfi_index !589
  %124 = load double, double* %123, align 8, !llfi_index !590
  %fi167 = call double @injectFault0(i64 584, double %124, i32 32, i32 0, i32 1, i32 0, i8* getelementptr inbounds ([5 x i8], [5 x i8]* @load_namestr, i32 0, i32 0)), !llfi_injectfault !6
  store double %fi167, double* %fi101, align 8, !llfi_index !591
  %125 = load double, double* %fi84, align 8, !llfi_index !592
  %fi168 = call double @injectFault0(i64 586, double %125, i32 32, i32 0, i32 1, i32 0, i8* getelementptr inbounds ([5 x i8], [5 x i8]* @load_namestr, i32 0, i32 0)), !llfi_injectfault !6
  %126 = load double, double* %fi78, align 8, !llfi_index !593
  %fi169 = call double @injectFault0(i64 587, double %126, i32 32, i32 0, i32 1, i32 0, i8* getelementptr inbounds ([5 x i8], [5 x i8]* @load_namestr, i32 0, i32 0)), !llfi_injectfault !6
  %127 = fsub double %fi168, %fi169, !llfi_index !594
  %fi170 = call double @injectFault0(i64 588, double %127, i32 16, i32 0, i32 1, i32 0, i8* getelementptr inbounds ([5 x i8], [5 x i8]* @fsub_namestr, i32 0, i32 0)), !llfi_injectfault !6
  %128 = load double, double* %fi83, align 8, !llfi_index !595
  %fi171 = call double @injectFault0(i64 589, double %128, i32 32, i32 0, i32 1, i32 0, i8* getelementptr inbounds ([5 x i8], [5 x i8]* @load_namestr, i32 0, i32 0)), !llfi_injectfault !6
  %129 = load double, double* %fi81, align 8, !llfi_index !596
  %fi177 = call double @injectFault0(i64 590, double %129, i32 32, i32 0, i32 1, i32 0, i8* getelementptr inbounds ([5 x i8], [5 x i8]* @load_namestr, i32 0, i32 0)), !llfi_injectfault !6
  %130 = fsub double %fi171, %fi177, !llfi_index !597
  %fi178 = call double @injectFault0(i64 591, double %130, i32 16, i32 0, i32 1, i32 0, i8* getelementptr inbounds ([5 x i8], [5 x i8]* @fsub_namestr, i32 0, i32 0)), !llfi_injectfault !6
  %131 = fadd double %fi170, %fi178, !llfi_index !598
  %fi179 = call double @injectFault0(i64 592, double %131, i32 14, i32 0, i32 1, i32 0, i8* getelementptr inbounds ([5 x i8], [5 x i8]* @fadd_namestr, i32 0, i32 0)), !llfi_injectfault !6
  %132 = load double, double* %fi85, align 8, !llfi_index !599
  %fi180 = call double @injectFault0(i64 593, double %132, i32 32, i32 0, i32 1, i32 0, i8* getelementptr inbounds ([5 x i8], [5 x i8]* @load_namestr, i32 0, i32 0)), !llfi_injectfault !6
  %133 = load double, double* %fi79, align 8, !llfi_index !600
  %fi181 = call double @injectFault0(i64 594, double %133, i32 32, i32 0, i32 1, i32 0, i8* getelementptr inbounds ([5 x i8], [5 x i8]* @load_namestr, i32 0, i32 0)), !llfi_injectfault !6
  %134 = fsub double %fi180, %fi181, !llfi_index !601
  %fi182 = call double @injectFault0(i64 595, double %134, i32 16, i32 0, i32 1, i32 0, i8* getelementptr inbounds ([5 x i8], [5 x i8]* @fsub_namestr, i32 0, i32 0)), !llfi_injectfault !6
  %135 = fsub double %fi179, %fi182, !llfi_index !602
  %fi183 = call double @injectFault0(i64 596, double %135, i32 16, i32 0, i32 1, i32 0, i8* getelementptr inbounds ([5 x i8], [5 x i8]* @fsub_namestr, i32 0, i32 0)), !llfi_injectfault !6
  %136 = load double, double* %fi82, align 8, !llfi_index !603
  %fi184 = call double @injectFault0(i64 597, double %136, i32 32, i32 0, i32 1, i32 0, i8* getelementptr inbounds ([5 x i8], [5 x i8]* @load_namestr, i32 0, i32 0)), !llfi_injectfault !6
  %137 = load double, double* %fi80, align 8, !llfi_index !604
  %fi185 = call double @injectFault0(i64 598, double %137, i32 32, i32 0, i32 1, i32 0, i8* getelementptr inbounds ([5 x i8], [5 x i8]* @load_namestr, i32 0, i32 0)), !llfi_injectfault !6
  %138 = fsub double %fi184, %fi185, !llfi_index !605
  %fi186 = call double @injectFault0(i64 599, double %138, i32 16, i32 0, i32 1, i32 0, i8* getelementptr inbounds ([5 x i8], [5 x i8]* @fsub_namestr, i32 0, i32 0)), !llfi_injectfault !6
  %139 = fsub double %fi183, %fi186, !llfi_index !606
  %fi187 = call double @injectFault0(i64 600, double %139, i32 16, i32 0, i32 1, i32 0, i8* getelementptr inbounds ([5 x i8], [5 x i8]* @fsub_namestr, i32 0, i32 0)), !llfi_injectfault !6
  %140 = fmul double 1.250000e-01, %fi187, !llfi_index !607
  %fi188 = call double @injectFault0(i64 601, double %140, i32 18, i32 0, i32 1, i32 0, i8* getelementptr inbounds ([5 x i8], [5 x i8]* @fmul_namestr, i32 0, i32 0)), !llfi_injectfault !6
  store double %fi188, double* %fi102, align 8, !llfi_index !608
  %141 = load double, double* %fi84, align 8, !llfi_index !609
  %fi189 = call double @injectFault0(i64 603, double %141, i32 32, i32 0, i32 1, i32 0, i8* getelementptr inbounds ([5 x i8], [5 x i8]* @load_namestr, i32 0, i32 0)), !llfi_injectfault !6
  %142 = load double, double* %fi78, align 8, !llfi_index !610
  %fi190 = call double @injectFault0(i64 604, double %142, i32 32, i32 0, i32 1, i32 0, i8* getelementptr inbounds ([5 x i8], [5 x i8]* @load_namestr, i32 0, i32 0)), !llfi_injectfault !6
  %143 = fsub double %fi189, %fi190, !llfi_index !611
  %fi191 = call double @injectFault0(i64 605, double %143, i32 16, i32 0, i32 1, i32 0, i8* getelementptr inbounds ([5 x i8], [5 x i8]* @fsub_namestr, i32 0, i32 0)), !llfi_injectfault !6
  %144 = load double, double* %fi83, align 8, !llfi_index !612
  %fi192 = call double @injectFault0(i64 606, double %144, i32 32, i32 0, i32 1, i32 0, i8* getelementptr inbounds ([5 x i8], [5 x i8]* @load_namestr, i32 0, i32 0)), !llfi_injectfault !6
  %145 = load double, double* %fi81, align 8, !llfi_index !613
  %fi193 = call double @injectFault0(i64 607, double %145, i32 32, i32 0, i32 1, i32 0, i8* getelementptr inbounds ([5 x i8], [5 x i8]* @load_namestr, i32 0, i32 0)), !llfi_injectfault !6
  %146 = fsub double %fi192, %fi193, !llfi_index !614
  %fi194 = call double @injectFault0(i64 608, double %146, i32 16, i32 0, i32 1, i32 0, i8* getelementptr inbounds ([5 x i8], [5 x i8]* @fsub_namestr, i32 0, i32 0)), !llfi_injectfault !6
  %147 = fsub double %fi191, %fi194, !llfi_index !615
  %fi195 = call double @injectFault0(i64 609, double %147, i32 16, i32 0, i32 1, i32 0, i8* getelementptr inbounds ([5 x i8], [5 x i8]* @fsub_namestr, i32 0, i32 0)), !llfi_injectfault !6
  %148 = load double, double* %fi85, align 8, !llfi_index !616
  %fi196 = call double @injectFault0(i64 610, double %148, i32 32, i32 0, i32 1, i32 0, i8* getelementptr inbounds ([5 x i8], [5 x i8]* @load_namestr, i32 0, i32 0)), !llfi_injectfault !6
  %149 = load double, double* %fi79, align 8, !llfi_index !617
  %fi197 = call double @injectFault0(i64 611, double %149, i32 32, i32 0, i32 1, i32 0, i8* getelementptr inbounds ([5 x i8], [5 x i8]* @load_namestr, i32 0, i32 0)), !llfi_injectfault !6
  %150 = fsub double %fi196, %fi197, !llfi_index !618
  %fi198 = call double @injectFault0(i64 612, double %150, i32 16, i32 0, i32 1, i32 0, i8* getelementptr inbounds ([5 x i8], [5 x i8]* @fsub_namestr, i32 0, i32 0)), !llfi_injectfault !6
  %151 = fadd double %fi195, %fi198, !llfi_index !619
  %fi199 = call double @injectFault0(i64 613, double %151, i32 14, i32 0, i32 1, i32 0, i8* getelementptr inbounds ([5 x i8], [5 x i8]* @fadd_namestr, i32 0, i32 0)), !llfi_injectfault !6
  %152 = load double, double* %fi82, align 8, !llfi_index !620
  %fi200 = call double @injectFault0(i64 614, double %152, i32 32, i32 0, i32 1, i32 0, i8* getelementptr inbounds ([5 x i8], [5 x i8]* @load_namestr, i32 0, i32 0)), !llfi_injectfault !6
  %153 = load double, double* %fi80, align 8, !llfi_index !621
  %fi201 = call double @injectFault0(i64 615, double %153, i32 32, i32 0, i32 1, i32 0, i8* getelementptr inbounds ([5 x i8], [5 x i8]* @load_namestr, i32 0, i32 0)), !llfi_injectfault !6
  %154 = fsub double %fi200, %fi201, !llfi_index !622
  %fi202 = call double @injectFault0(i64 616, double %154, i32 16, i32 0, i32 1, i32 0, i8* getelementptr inbounds ([5 x i8], [5 x i8]* @fsub_namestr, i32 0, i32 0)), !llfi_injectfault !6
  %155 = fsub double %fi199, %fi202, !llfi_index !623
  %fi203 = call double @injectFault0(i64 617, double %155, i32 16, i32 0, i32 1, i32 0, i8* getelementptr inbounds ([5 x i8], [5 x i8]* @fsub_namestr, i32 0, i32 0)), !llfi_injectfault !6
  %156 = fmul double 1.250000e-01, %fi203, !llfi_index !624
  %fi204 = call double @injectFault0(i64 618, double %156, i32 18, i32 0, i32 1, i32 0, i8* getelementptr inbounds ([5 x i8], [5 x i8]* @fmul_namestr, i32 0, i32 0)), !llfi_injectfault !6
  store double %fi204, double* %fi103, align 8, !llfi_index !625
  %157 = load double, double* %fi84, align 8, !llfi_index !626
  %fi205 = call double @injectFault0(i64 620, double %157, i32 32, i32 0, i32 1, i32 0, i8* getelementptr inbounds ([5 x i8], [5 x i8]* @load_namestr, i32 0, i32 0)), !llfi_injectfault !6
  %158 = load double, double* %fi78, align 8, !llfi_index !627
  %fi206 = call double @injectFault0(i64 621, double %158, i32 32, i32 0, i32 1, i32 0, i8* getelementptr inbounds ([5 x i8], [5 x i8]* @load_namestr, i32 0, i32 0)), !llfi_injectfault !6
  %159 = fsub double %fi205, %fi206, !llfi_index !628
  %fi207 = call double @injectFault0(i64 622, double %159, i32 16, i32 0, i32 1, i32 0, i8* getelementptr inbounds ([5 x i8], [5 x i8]* @fsub_namestr, i32 0, i32 0)), !llfi_injectfault !6
  %160 = load double, double* %fi83, align 8, !llfi_index !629
  %fi208 = call double @injectFault0(i64 623, double %160, i32 32, i32 0, i32 1, i32 0, i8* getelementptr inbounds ([5 x i8], [5 x i8]* @load_namestr, i32 0, i32 0)), !llfi_injectfault !6
  %161 = load double, double* %fi81, align 8, !llfi_index !630
  %fi209 = call double @injectFault0(i64 624, double %161, i32 32, i32 0, i32 1, i32 0, i8* getelementptr inbounds ([5 x i8], [5 x i8]* @load_namestr, i32 0, i32 0)), !llfi_injectfault !6
  %162 = fsub double %fi208, %fi209, !llfi_index !631
  %fi210 = call double @injectFault0(i64 625, double %162, i32 16, i32 0, i32 1, i32 0, i8* getelementptr inbounds ([5 x i8], [5 x i8]* @fsub_namestr, i32 0, i32 0)), !llfi_injectfault !6
  %163 = fadd double %fi207, %fi210, !llfi_index !632
  %fi211 = call double @injectFault0(i64 626, double %163, i32 14, i32 0, i32 1, i32 0, i8* getelementptr inbounds ([5 x i8], [5 x i8]* @fadd_namestr, i32 0, i32 0)), !llfi_injectfault !6
  %164 = load double, double* %fi85, align 8, !llfi_index !633
  %fi212 = call double @injectFault0(i64 627, double %164, i32 32, i32 0, i32 1, i32 0, i8* getelementptr inbounds ([5 x i8], [5 x i8]* @load_namestr, i32 0, i32 0)), !llfi_injectfault !6
  %165 = load double, double* %fi79, align 8, !llfi_index !634
  %fi213 = call double @injectFault0(i64 628, double %165, i32 32, i32 0, i32 1, i32 0, i8* getelementptr inbounds ([5 x i8], [5 x i8]* @load_namestr, i32 0, i32 0)), !llfi_injectfault !6
  %166 = fsub double %fi212, %fi213, !llfi_index !635
  %fi214 = call double @injectFault0(i64 629, double %166, i32 16, i32 0, i32 1, i32 0, i8* getelementptr inbounds ([5 x i8], [5 x i8]* @fsub_namestr, i32 0, i32 0)), !llfi_injectfault !6
  %167 = fadd double %fi211, %fi214, !llfi_index !636
  %fi215 = call double @injectFault0(i64 630, double %167, i32 14, i32 0, i32 1, i32 0, i8* getelementptr inbounds ([5 x i8], [5 x i8]* @fadd_namestr, i32 0, i32 0)), !llfi_injectfault !6
  %168 = load double, double* %fi82, align 8, !llfi_index !637
  %fi216 = call double @injectFault0(i64 631, double %168, i32 32, i32 0, i32 1, i32 0, i8* getelementptr inbounds ([5 x i8], [5 x i8]* @load_namestr, i32 0, i32 0)), !llfi_injectfault !6
  %169 = load double, double* %fi80, align 8, !llfi_index !638
  %fi217 = call double @injectFault0(i64 632, double %169, i32 32, i32 0, i32 1, i32 0, i8* getelementptr inbounds ([5 x i8], [5 x i8]* @load_namestr, i32 0, i32 0)), !llfi_injectfault !6
  %170 = fsub double %fi216, %fi217, !llfi_index !639
  %fi218 = call double @injectFault0(i64 633, double %170, i32 16, i32 0, i32 1, i32 0, i8* getelementptr inbounds ([5 x i8], [5 x i8]* @fsub_namestr, i32 0, i32 0)), !llfi_injectfault !6
  %171 = fadd double %fi215, %fi218, !llfi_index !640
  %fi219 = call double @injectFault0(i64 634, double %171, i32 14, i32 0, i32 1, i32 0, i8* getelementptr inbounds ([5 x i8], [5 x i8]* @fadd_namestr, i32 0, i32 0)), !llfi_injectfault !6
  %172 = fmul double 1.250000e-01, %fi219, !llfi_index !641
  %fi220 = call double @injectFault0(i64 635, double %172, i32 18, i32 0, i32 1, i32 0, i8* getelementptr inbounds ([5 x i8], [5 x i8]* @fmul_namestr, i32 0, i32 0)), !llfi_injectfault !6
  store double %fi220, double* %fi104, align 8, !llfi_index !642
  %173 = load double, double* %fi92, align 8, !llfi_index !643
  %fi221 = call double @injectFault0(i64 637, double %173, i32 32, i32 0, i32 1, i32 0, i8* getelementptr inbounds ([5 x i8], [5 x i8]* @load_namestr, i32 0, i32 0)), !llfi_injectfault !6
  %174 = load double, double* %fi86, align 8, !llfi_index !644
  %fi222 = call double @injectFault0(i64 638, double %174, i32 32, i32 0, i32 1, i32 0, i8* getelementptr inbounds ([5 x i8], [5 x i8]* @load_namestr, i32 0, i32 0)), !llfi_injectfault !6
  %175 = fsub double %fi221, %fi222, !llfi_index !645
  %fi223 = call double @injectFault0(i64 639, double %175, i32 16, i32 0, i32 1, i32 0, i8* getelementptr inbounds ([5 x i8], [5 x i8]* @fsub_namestr, i32 0, i32 0)), !llfi_injectfault !6
  %176 = load double, double* %fi91, align 8, !llfi_index !646
  %fi224 = call double @injectFault0(i64 640, double %176, i32 32, i32 0, i32 1, i32 0, i8* getelementptr inbounds ([5 x i8], [5 x i8]* @load_namestr, i32 0, i32 0)), !llfi_injectfault !6
  %177 = load double, double* %fi89, align 8, !llfi_index !647
  %fi225 = call double @injectFault0(i64 641, double %177, i32 32, i32 0, i32 1, i32 0, i8* getelementptr inbounds ([5 x i8], [5 x i8]* @load_namestr, i32 0, i32 0)), !llfi_injectfault !6
  %178 = fsub double %fi224, %fi225, !llfi_index !648
  %fi226 = call double @injectFault0(i64 642, double %178, i32 16, i32 0, i32 1, i32 0, i8* getelementptr inbounds ([5 x i8], [5 x i8]* @fsub_namestr, i32 0, i32 0)), !llfi_injectfault !6
  %179 = fadd double %fi223, %fi226, !llfi_index !649
  %fi227 = call double @injectFault0(i64 643, double %179, i32 14, i32 0, i32 1, i32 0, i8* getelementptr inbounds ([5 x i8], [5 x i8]* @fadd_namestr, i32 0, i32 0)), !llfi_injectfault !6
  %180 = load double, double* %fi93, align 8, !llfi_index !650
  %fi228 = call double @injectFault0(i64 644, double %180, i32 32, i32 0, i32 1, i32 0, i8* getelementptr inbounds ([5 x i8], [5 x i8]* @load_namestr, i32 0, i32 0)), !llfi_injectfault !6
  %181 = load double, double* %fi87, align 8, !llfi_index !651
  %fi229 = call double @injectFault0(i64 645, double %181, i32 32, i32 0, i32 1, i32 0, i8* getelementptr inbounds ([5 x i8], [5 x i8]* @load_namestr, i32 0, i32 0)), !llfi_injectfault !6
  %182 = fsub double %fi228, %fi229, !llfi_index !652
  %fi230 = call double @injectFault0(i64 646, double %182, i32 16, i32 0, i32 1, i32 0, i8* getelementptr inbounds ([5 x i8], [5 x i8]* @fsub_namestr, i32 0, i32 0)), !llfi_injectfault !6
  %183 = fsub double %fi227, %fi230, !llfi_index !653
  %fi231 = call double @injectFault0(i64 647, double %183, i32 16, i32 0, i32 1, i32 0, i8* getelementptr inbounds ([5 x i8], [5 x i8]* @fsub_namestr, i32 0, i32 0)), !llfi_injectfault !6
  %184 = load double, double* %fi90, align 8, !llfi_index !654
  %fi232 = call double @injectFault0(i64 648, double %184, i32 32, i32 0, i32 1, i32 0, i8* getelementptr inbounds ([5 x i8], [5 x i8]* @load_namestr, i32 0, i32 0)), !llfi_injectfault !6
  %185 = load double, double* %fi88, align 8, !llfi_index !655
  %fi233 = call double @injectFault0(i64 649, double %185, i32 32, i32 0, i32 1, i32 0, i8* getelementptr inbounds ([5 x i8], [5 x i8]* @load_namestr, i32 0, i32 0)), !llfi_injectfault !6
  %186 = fsub double %fi232, %fi233, !llfi_index !656
  %fi234 = call double @injectFault0(i64 650, double %186, i32 16, i32 0, i32 1, i32 0, i8* getelementptr inbounds ([5 x i8], [5 x i8]* @fsub_namestr, i32 0, i32 0)), !llfi_injectfault !6
  %187 = fsub double %fi231, %fi234, !llfi_index !657
  %fi235 = call double @injectFault0(i64 651, double %187, i32 16, i32 0, i32 1, i32 0, i8* getelementptr inbounds ([5 x i8], [5 x i8]* @fsub_namestr, i32 0, i32 0)), !llfi_injectfault !6
  %188 = fmul double 1.250000e-01, %fi235, !llfi_index !658
  %fi236 = call double @injectFault0(i64 652, double %188, i32 18, i32 0, i32 1, i32 0, i8* getelementptr inbounds ([5 x i8], [5 x i8]* @fmul_namestr, i32 0, i32 0)), !llfi_injectfault !6
  store double %fi236, double* %fi105, align 8, !llfi_index !659
  %189 = load double, double* %fi92, align 8, !llfi_index !660
  %fi237 = call double @injectFault0(i64 654, double %189, i32 32, i32 0, i32 1, i32 0, i8* getelementptr inbounds ([5 x i8], [5 x i8]* @load_namestr, i32 0, i32 0)), !llfi_injectfault !6
  %190 = load double, double* %fi86, align 8, !llfi_index !661
  %fi238 = call double @injectFault0(i64 655, double %190, i32 32, i32 0, i32 1, i32 0, i8* getelementptr inbounds ([5 x i8], [5 x i8]* @load_namestr, i32 0, i32 0)), !llfi_injectfault !6
  %191 = fsub double %fi237, %fi238, !llfi_index !662
  %fi239 = call double @injectFault0(i64 656, double %191, i32 16, i32 0, i32 1, i32 0, i8* getelementptr inbounds ([5 x i8], [5 x i8]* @fsub_namestr, i32 0, i32 0)), !llfi_injectfault !6
  %192 = load double, double* %fi91, align 8, !llfi_index !663
  %fi240 = call double @injectFault0(i64 657, double %192, i32 32, i32 0, i32 1, i32 0, i8* getelementptr inbounds ([5 x i8], [5 x i8]* @load_namestr, i32 0, i32 0)), !llfi_injectfault !6
  %193 = load double, double* %fi89, align 8, !llfi_index !664
  %fi241 = call double @injectFault0(i64 658, double %193, i32 32, i32 0, i32 1, i32 0, i8* getelementptr inbounds ([5 x i8], [5 x i8]* @load_namestr, i32 0, i32 0)), !llfi_injectfault !6
  %194 = fsub double %fi240, %fi241, !llfi_index !665
  %fi242 = call double @injectFault0(i64 659, double %194, i32 16, i32 0, i32 1, i32 0, i8* getelementptr inbounds ([5 x i8], [5 x i8]* @fsub_namestr, i32 0, i32 0)), !llfi_injectfault !6
  %195 = fsub double %fi239, %fi242, !llfi_index !666
  %fi243 = call double @injectFault0(i64 660, double %195, i32 16, i32 0, i32 1, i32 0, i8* getelementptr inbounds ([5 x i8], [5 x i8]* @fsub_namestr, i32 0, i32 0)), !llfi_injectfault !6
  %196 = load double, double* %fi93, align 8, !llfi_index !667
  %fi244 = call double @injectFault0(i64 661, double %196, i32 32, i32 0, i32 1, i32 0, i8* getelementptr inbounds ([5 x i8], [5 x i8]* @load_namestr, i32 0, i32 0)), !llfi_injectfault !6
  %197 = load double, double* %fi87, align 8, !llfi_index !668
  %fi245 = call double @injectFault0(i64 662, double %197, i32 32, i32 0, i32 1, i32 0, i8* getelementptr inbounds ([5 x i8], [5 x i8]* @load_namestr, i32 0, i32 0)), !llfi_injectfault !6
  %198 = fsub double %fi244, %fi245, !llfi_index !669
  %fi246 = call double @injectFault0(i64 663, double %198, i32 16, i32 0, i32 1, i32 0, i8* getelementptr inbounds ([5 x i8], [5 x i8]* @fsub_namestr, i32 0, i32 0)), !llfi_injectfault !6
  %199 = fadd double %fi243, %fi246, !llfi_index !670
  %fi247 = call double @injectFault0(i64 664, double %199, i32 14, i32 0, i32 1, i32 0, i8* getelementptr inbounds ([5 x i8], [5 x i8]* @fadd_namestr, i32 0, i32 0)), !llfi_injectfault !6
  %200 = load double, double* %fi90, align 8, !llfi_index !671
  %fi248 = call double @injectFault0(i64 665, double %200, i32 32, i32 0, i32 1, i32 0, i8* getelementptr inbounds ([5 x i8], [5 x i8]* @load_namestr, i32 0, i32 0)), !llfi_injectfault !6
  %201 = load double, double* %fi88, align 8, !llfi_index !672
  %fi249 = call double @injectFault0(i64 666, double %201, i32 32, i32 0, i32 1, i32 0, i8* getelementptr inbounds ([5 x i8], [5 x i8]* @load_namestr, i32 0, i32 0)), !llfi_injectfault !6
  %202 = fsub double %fi248, %fi249, !llfi_index !673
  %fi250 = call double @injectFault0(i64 667, double %202, i32 16, i32 0, i32 1, i32 0, i8* getelementptr inbounds ([5 x i8], [5 x i8]* @fsub_namestr, i32 0, i32 0)), !llfi_injectfault !6
  %203 = fsub double %fi247, %fi250, !llfi_index !674
  %fi251 = call double @injectFault0(i64 668, double %203, i32 16, i32 0, i32 1, i32 0, i8* getelementptr inbounds ([5 x i8], [5 x i8]* @fsub_namestr, i32 0, i32 0)), !llfi_injectfault !6
  %204 = fmul double 1.250000e-01, %fi251, !llfi_index !675
  %fi252 = call double @injectFault0(i64 669, double %204, i32 18, i32 0, i32 1, i32 0, i8* getelementptr inbounds ([5 x i8], [5 x i8]* @fmul_namestr, i32 0, i32 0)), !llfi_injectfault !6
  store double %fi252, double* %fi106, align 8, !llfi_index !676
  %205 = load double, double* %fi92, align 8, !llfi_index !677
  %fi253 = call double @injectFault0(i64 671, double %205, i32 32, i32 0, i32 1, i32 0, i8* getelementptr inbounds ([5 x i8], [5 x i8]* @load_namestr, i32 0, i32 0)), !llfi_injectfault !6
  %206 = load double, double* %fi86, align 8, !llfi_index !678
  %fi254 = call double @injectFault0(i64 672, double %206, i32 32, i32 0, i32 1, i32 0, i8* getelementptr inbounds ([5 x i8], [5 x i8]* @load_namestr, i32 0, i32 0)), !llfi_injectfault !6
  %207 = fsub double %fi253, %fi254, !llfi_index !679
  %fi255 = call double @injectFault0(i64 673, double %207, i32 16, i32 0, i32 1, i32 0, i8* getelementptr inbounds ([5 x i8], [5 x i8]* @fsub_namestr, i32 0, i32 0)), !llfi_injectfault !6
  %208 = load double, double* %fi91, align 8, !llfi_index !680
  %fi256 = call double @injectFault0(i64 674, double %208, i32 32, i32 0, i32 1, i32 0, i8* getelementptr inbounds ([5 x i8], [5 x i8]* @load_namestr, i32 0, i32 0)), !llfi_injectfault !6
  %209 = load double, double* %fi89, align 8, !llfi_index !681
  %fi257 = call double @injectFault0(i64 675, double %209, i32 32, i32 0, i32 1, i32 0, i8* getelementptr inbounds ([5 x i8], [5 x i8]* @load_namestr, i32 0, i32 0)), !llfi_injectfault !6
  %210 = fsub double %fi256, %fi257, !llfi_index !682
  %fi258 = call double @injectFault0(i64 676, double %210, i32 16, i32 0, i32 1, i32 0, i8* getelementptr inbounds ([5 x i8], [5 x i8]* @fsub_namestr, i32 0, i32 0)), !llfi_injectfault !6
  %211 = fadd double %fi255, %fi258, !llfi_index !683
  %fi259 = call double @injectFault0(i64 677, double %211, i32 14, i32 0, i32 1, i32 0, i8* getelementptr inbounds ([5 x i8], [5 x i8]* @fadd_namestr, i32 0, i32 0)), !llfi_injectfault !6
  %212 = load double, double* %fi93, align 8, !llfi_index !684
  %fi260 = call double @injectFault0(i64 678, double %212, i32 32, i32 0, i32 1, i32 0, i8* getelementptr inbounds ([5 x i8], [5 x i8]* @load_namestr, i32 0, i32 0)), !llfi_injectfault !6
  %213 = load double, double* %fi87, align 8, !llfi_index !685
  %fi261 = call double @injectFault0(i64 679, double %213, i32 32, i32 0, i32 1, i32 0, i8* getelementptr inbounds ([5 x i8], [5 x i8]* @load_namestr, i32 0, i32 0)), !llfi_injectfault !6
  %214 = fsub double %fi260, %fi261, !llfi_index !686
  %fi262 = call double @injectFault0(i64 680, double %214, i32 16, i32 0, i32 1, i32 0, i8* getelementptr inbounds ([5 x i8], [5 x i8]* @fsub_namestr, i32 0, i32 0)), !llfi_injectfault !6
  %215 = fadd double %fi259, %fi262, !llfi_index !687
  %fi263 = call double @injectFault0(i64 681, double %215, i32 14, i32 0, i32 1, i32 0, i8* getelementptr inbounds ([5 x i8], [5 x i8]* @fadd_namestr, i32 0, i32 0)), !llfi_injectfault !6
  %216 = load double, double* %fi90, align 8, !llfi_index !688
  %fi264 = call double @injectFault0(i64 682, double %216, i32 32, i32 0, i32 1, i32 0, i8* getelementptr inbounds ([5 x i8], [5 x i8]* @load_namestr, i32 0, i32 0)), !llfi_injectfault !6
  %217 = load double, double* %fi88, align 8, !llfi_index !689
  %fi265 = call double @injectFault0(i64 683, double %217, i32 32, i32 0, i32 1, i32 0, i8* getelementptr inbounds ([5 x i8], [5 x i8]* @load_namestr, i32 0, i32 0)), !llfi_injectfault !6
  %218 = fsub double %fi264, %fi265, !llfi_index !690
  %fi266 = call double @injectFault0(i64 684, double %218, i32 16, i32 0, i32 1, i32 0, i8* getelementptr inbounds ([5 x i8], [5 x i8]* @fsub_namestr, i32 0, i32 0)), !llfi_injectfault !6
  %219 = fadd double %fi263, %fi266, !llfi_index !691
  %fi267 = call double @injectFault0(i64 685, double %219, i32 14, i32 0, i32 1, i32 0, i8* getelementptr inbounds ([5 x i8], [5 x i8]* @fadd_namestr, i32 0, i32 0)), !llfi_injectfault !6
  %220 = fmul double 1.250000e-01, %fi267, !llfi_index !692
  %fi268 = call double @injectFault0(i64 686, double %220, i32 18, i32 0, i32 1, i32 0, i8* getelementptr inbounds ([5 x i8], [5 x i8]* @fmul_namestr, i32 0, i32 0)), !llfi_injectfault !6
  store double %fi268, double* %fi107, align 8, !llfi_index !693
  %221 = load double, double* %fi100, align 8, !llfi_index !694
  %fi269 = call double @injectFault0(i64 688, double %221, i32 32, i32 0, i32 1, i32 0, i8* getelementptr inbounds ([5 x i8], [5 x i8]* @load_namestr, i32 0, i32 0)), !llfi_injectfault !6
  %222 = load double, double* %fi94, align 8, !llfi_index !695
  %fi270 = call double @injectFault0(i64 689, double %222, i32 32, i32 0, i32 1, i32 0, i8* getelementptr inbounds ([5 x i8], [5 x i8]* @load_namestr, i32 0, i32 0)), !llfi_injectfault !6
  %223 = fsub double %fi269, %fi270, !llfi_index !696
  %fi271 = call double @injectFault0(i64 690, double %223, i32 16, i32 0, i32 1, i32 0, i8* getelementptr inbounds ([5 x i8], [5 x i8]* @fsub_namestr, i32 0, i32 0)), !llfi_injectfault !6
  %224 = load double, double* %fi99, align 8, !llfi_index !697
  %fi272 = call double @injectFault0(i64 691, double %224, i32 32, i32 0, i32 1, i32 0, i8* getelementptr inbounds ([5 x i8], [5 x i8]* @load_namestr, i32 0, i32 0)), !llfi_injectfault !6
  %225 = load double, double* %fi97, align 8, !llfi_index !698
  %fi273 = call double @injectFault0(i64 692, double %225, i32 32, i32 0, i32 1, i32 0, i8* getelementptr inbounds ([5 x i8], [5 x i8]* @load_namestr, i32 0, i32 0)), !llfi_injectfault !6
  %226 = fsub double %fi272, %fi273, !llfi_index !699
  %fi274 = call double @injectFault0(i64 693, double %226, i32 16, i32 0, i32 1, i32 0, i8* getelementptr inbounds ([5 x i8], [5 x i8]* @fsub_namestr, i32 0, i32 0)), !llfi_injectfault !6
  %227 = fadd double %fi271, %fi274, !llfi_index !700
  %fi275 = call double @injectFault0(i64 694, double %227, i32 14, i32 0, i32 1, i32 0, i8* getelementptr inbounds ([5 x i8], [5 x i8]* @fadd_namestr, i32 0, i32 0)), !llfi_injectfault !6
  %228 = load double, double* %fi101, align 8, !llfi_index !701
  %fi276 = call double @injectFault0(i64 695, double %228, i32 32, i32 0, i32 1, i32 0, i8* getelementptr inbounds ([5 x i8], [5 x i8]* @load_namestr, i32 0, i32 0)), !llfi_injectfault !6
  %229 = load double, double* %fi95, align 8, !llfi_index !702
  %fi277 = call double @injectFault0(i64 696, double %229, i32 32, i32 0, i32 1, i32 0, i8* getelementptr inbounds ([5 x i8], [5 x i8]* @load_namestr, i32 0, i32 0)), !llfi_injectfault !6
  %230 = fsub double %fi276, %fi277, !llfi_index !703
  %fi278 = call double @injectFault0(i64 697, double %230, i32 16, i32 0, i32 1, i32 0, i8* getelementptr inbounds ([5 x i8], [5 x i8]* @fsub_namestr, i32 0, i32 0)), !llfi_injectfault !6
  %231 = fsub double %fi275, %fi278, !llfi_index !704
  %fi279 = call double @injectFault0(i64 698, double %231, i32 16, i32 0, i32 1, i32 0, i8* getelementptr inbounds ([5 x i8], [5 x i8]* @fsub_namestr, i32 0, i32 0)), !llfi_injectfault !6
  %232 = load double, double* %fi98, align 8, !llfi_index !705
  %fi280 = call double @injectFault0(i64 699, double %232, i32 32, i32 0, i32 1, i32 0, i8* getelementptr inbounds ([5 x i8], [5 x i8]* @load_namestr, i32 0, i32 0)), !llfi_injectfault !6
  %233 = load double, double* %fi96, align 8, !llfi_index !706
  %fi281 = call double @injectFault0(i64 700, double %233, i32 32, i32 0, i32 1, i32 0, i8* getelementptr inbounds ([5 x i8], [5 x i8]* @load_namestr, i32 0, i32 0)), !llfi_injectfault !6
  %234 = fsub double %fi280, %fi281, !llfi_index !707
  %fi282 = call double @injectFault0(i64 701, double %234, i32 16, i32 0, i32 1, i32 0, i8* getelementptr inbounds ([5 x i8], [5 x i8]* @fsub_namestr, i32 0, i32 0)), !llfi_injectfault !6
  %235 = fsub double %fi279, %fi282, !llfi_index !708
  %fi283 = call double @injectFault0(i64 702, double %235, i32 16, i32 0, i32 1, i32 0, i8* getelementptr inbounds ([5 x i8], [5 x i8]* @fsub_namestr, i32 0, i32 0)), !llfi_injectfault !6
  %236 = fmul double 1.250000e-01, %fi283, !llfi_index !709
  %fi284 = call double @injectFault0(i64 703, double %236, i32 18, i32 0, i32 1, i32 0, i8* getelementptr inbounds ([5 x i8], [5 x i8]* @fmul_namestr, i32 0, i32 0)), !llfi_injectfault !6
  store double %fi284, double* %fi108, align 8, !llfi_index !710
  %237 = load double, double* %fi100, align 8, !llfi_index !711
  %fi285 = call double @injectFault0(i64 705, double %237, i32 32, i32 0, i32 1, i32 0, i8* getelementptr inbounds ([5 x i8], [5 x i8]* @load_namestr, i32 0, i32 0)), !llfi_injectfault !6
  %238 = load double, double* %fi94, align 8, !llfi_index !712
  %fi286 = call double @injectFault0(i64 706, double %238, i32 32, i32 0, i32 1, i32 0, i8* getelementptr inbounds ([5 x i8], [5 x i8]* @load_namestr, i32 0, i32 0)), !llfi_injectfault !6
  %239 = fsub double %fi285, %fi286, !llfi_index !713
  %fi287 = call double @injectFault0(i64 707, double %239, i32 16, i32 0, i32 1, i32 0, i8* getelementptr inbounds ([5 x i8], [5 x i8]* @fsub_namestr, i32 0, i32 0)), !llfi_injectfault !6
  %240 = load double, double* %fi99, align 8, !llfi_index !714
  %fi288 = call double @injectFault0(i64 708, double %240, i32 32, i32 0, i32 1, i32 0, i8* getelementptr inbounds ([5 x i8], [5 x i8]* @load_namestr, i32 0, i32 0)), !llfi_injectfault !6
  %241 = load double, double* %fi97, align 8, !llfi_index !715
  %fi289 = call double @injectFault0(i64 709, double %241, i32 32, i32 0, i32 1, i32 0, i8* getelementptr inbounds ([5 x i8], [5 x i8]* @load_namestr, i32 0, i32 0)), !llfi_injectfault !6
  %242 = fsub double %fi288, %fi289, !llfi_index !716
  %fi290 = call double @injectFault0(i64 710, double %242, i32 16, i32 0, i32 1, i32 0, i8* getelementptr inbounds ([5 x i8], [5 x i8]* @fsub_namestr, i32 0, i32 0)), !llfi_injectfault !6
  %243 = fsub double %fi287, %fi290, !llfi_index !717
  %fi291 = call double @injectFault0(i64 711, double %243, i32 16, i32 0, i32 1, i32 0, i8* getelementptr inbounds ([5 x i8], [5 x i8]* @fsub_namestr, i32 0, i32 0)), !llfi_injectfault !6
  %244 = load double, double* %fi101, align 8, !llfi_index !718
  %fi292 = call double @injectFault0(i64 712, double %244, i32 32, i32 0, i32 1, i32 0, i8* getelementptr inbounds ([5 x i8], [5 x i8]* @load_namestr, i32 0, i32 0)), !llfi_injectfault !6
  %245 = load double, double* %fi95, align 8, !llfi_index !719
  %fi293 = call double @injectFault0(i64 713, double %245, i32 32, i32 0, i32 1, i32 0, i8* getelementptr inbounds ([5 x i8], [5 x i8]* @load_namestr, i32 0, i32 0)), !llfi_injectfault !6
  %246 = fsub double %fi292, %fi293, !llfi_index !720
  %fi294 = call double @injectFault0(i64 714, double %246, i32 16, i32 0, i32 1, i32 0, i8* getelementptr inbounds ([5 x i8], [5 x i8]* @fsub_namestr, i32 0, i32 0)), !llfi_injectfault !6
  %247 = fadd double %fi291, %fi294, !llfi_index !721
  %fi295 = call double @injectFault0(i64 715, double %247, i32 14, i32 0, i32 1, i32 0, i8* getelementptr inbounds ([5 x i8], [5 x i8]* @fadd_namestr, i32 0, i32 0)), !llfi_injectfault !6
  %248 = load double, double* %fi98, align 8, !llfi_index !722
  %fi296 = call double @injectFault0(i64 716, double %248, i32 32, i32 0, i32 1, i32 0, i8* getelementptr inbounds ([5 x i8], [5 x i8]* @load_namestr, i32 0, i32 0)), !llfi_injectfault !6
  %249 = load double, double* %fi96, align 8, !llfi_index !723
  %fi297 = call double @injectFault0(i64 717, double %249, i32 32, i32 0, i32 1, i32 0, i8* getelementptr inbounds ([5 x i8], [5 x i8]* @load_namestr, i32 0, i32 0)), !llfi_injectfault !6
  %250 = fsub double %fi296, %fi297, !llfi_index !724
  %fi298 = call double @injectFault0(i64 718, double %250, i32 16, i32 0, i32 1, i32 0, i8* getelementptr inbounds ([5 x i8], [5 x i8]* @fsub_namestr, i32 0, i32 0)), !llfi_injectfault !6
  %251 = fsub double %fi295, %fi298, !llfi_index !725
  %fi299 = call double @injectFault0(i64 719, double %251, i32 16, i32 0, i32 1, i32 0, i8* getelementptr inbounds ([5 x i8], [5 x i8]* @fsub_namestr, i32 0, i32 0)), !llfi_injectfault !6
  %252 = fmul double 1.250000e-01, %fi299, !llfi_index !726
  %fi300 = call double @injectFault0(i64 720, double %252, i32 18, i32 0, i32 1, i32 0, i8* getelementptr inbounds ([5 x i8], [5 x i8]* @fmul_namestr, i32 0, i32 0)), !llfi_injectfault !6
  store double %fi300, double* %fi109, align 8, !llfi_index !727
  %253 = load double, double* %fi100, align 8, !llfi_index !728
  %fi301 = call double @injectFault0(i64 722, double %253, i32 32, i32 0, i32 1, i32 0, i8* getelementptr inbounds ([5 x i8], [5 x i8]* @load_namestr, i32 0, i32 0)), !llfi_injectfault !6
  %254 = load double, double* %fi94, align 8, !llfi_index !729
  %fi302 = call double @injectFault0(i64 723, double %254, i32 32, i32 0, i32 1, i32 0, i8* getelementptr inbounds ([5 x i8], [5 x i8]* @load_namestr, i32 0, i32 0)), !llfi_injectfault !6
  %255 = fsub double %fi301, %fi302, !llfi_index !730
  %fi303 = call double @injectFault0(i64 724, double %255, i32 16, i32 0, i32 1, i32 0, i8* getelementptr inbounds ([5 x i8], [5 x i8]* @fsub_namestr, i32 0, i32 0)), !llfi_injectfault !6
  %256 = load double, double* %fi99, align 8, !llfi_index !731
  %fi304 = call double @injectFault0(i64 725, double %256, i32 32, i32 0, i32 1, i32 0, i8* getelementptr inbounds ([5 x i8], [5 x i8]* @load_namestr, i32 0, i32 0)), !llfi_injectfault !6
  %257 = load double, double* %fi97, align 8, !llfi_index !732
  %fi172 = call double @injectFault0(i64 726, double %257, i32 32, i32 0, i32 1, i32 0, i8* getelementptr inbounds ([5 x i8], [5 x i8]* @load_namestr, i32 0, i32 0)), !llfi_injectfault !6
  %258 = fsub double %fi304, %fi172, !llfi_index !733
  %fi173 = call double @injectFault0(i64 727, double %258, i32 16, i32 0, i32 1, i32 0, i8* getelementptr inbounds ([5 x i8], [5 x i8]* @fsub_namestr, i32 0, i32 0)), !llfi_injectfault !6
  %259 = fadd double %fi303, %fi173, !llfi_index !734
  %fi174 = call double @injectFault0(i64 728, double %259, i32 14, i32 0, i32 1, i32 0, i8* getelementptr inbounds ([5 x i8], [5 x i8]* @fadd_namestr, i32 0, i32 0)), !llfi_injectfault !6
  %260 = load double, double* %fi101, align 8, !llfi_index !735
  %fi175 = call double @injectFault0(i64 729, double %260, i32 32, i32 0, i32 1, i32 0, i8* getelementptr inbounds ([5 x i8], [5 x i8]* @load_namestr, i32 0, i32 0)), !llfi_injectfault !6
  %261 = load double, double* %fi95, align 8, !llfi_index !736
  %fi176 = call double @injectFault0(i64 730, double %261, i32 32, i32 0, i32 1, i32 0, i8* getelementptr inbounds ([5 x i8], [5 x i8]* @load_namestr, i32 0, i32 0)), !llfi_injectfault !6
  %262 = fsub double %fi175, %fi176, !llfi_index !737
  %fi310 = call double @injectFault0(i64 731, double %262, i32 16, i32 0, i32 1, i32 0, i8* getelementptr inbounds ([5 x i8], [5 x i8]* @fsub_namestr, i32 0, i32 0)), !llfi_injectfault !6
  %263 = fadd double %fi174, %fi310, !llfi_index !738
  %fi311 = call double @injectFault0(i64 732, double %263, i32 14, i32 0, i32 1, i32 0, i8* getelementptr inbounds ([5 x i8], [5 x i8]* @fadd_namestr, i32 0, i32 0)), !llfi_injectfault !6
  %264 = load double, double* %fi98, align 8, !llfi_index !739
  %fi312 = call double @injectFault0(i64 733, double %264, i32 32, i32 0, i32 1, i32 0, i8* getelementptr inbounds ([5 x i8], [5 x i8]* @load_namestr, i32 0, i32 0)), !llfi_injectfault !6
  %265 = load double, double* %fi96, align 8, !llfi_index !740
  %fi313 = call double @injectFault0(i64 734, double %265, i32 32, i32 0, i32 1, i32 0, i8* getelementptr inbounds ([5 x i8], [5 x i8]* @load_namestr, i32 0, i32 0)), !llfi_injectfault !6
  %266 = fsub double %fi312, %fi313, !llfi_index !741
  %fi314 = call double @injectFault0(i64 735, double %266, i32 16, i32 0, i32 1, i32 0, i8* getelementptr inbounds ([5 x i8], [5 x i8]* @fsub_namestr, i32 0, i32 0)), !llfi_injectfault !6
  %267 = fadd double %fi311, %fi314, !llfi_index !742
  %fi315 = call double @injectFault0(i64 736, double %267, i32 14, i32 0, i32 1, i32 0, i8* getelementptr inbounds ([5 x i8], [5 x i8]* @fadd_namestr, i32 0, i32 0)), !llfi_injectfault !6
  %268 = fmul double 1.250000e-01, %fi315, !llfi_index !743
  %fi316 = call double @injectFault0(i64 737, double %268, i32 18, i32 0, i32 1, i32 0, i8* getelementptr inbounds ([5 x i8], [5 x i8]* @fmul_namestr, i32 0, i32 0)), !llfi_injectfault !6
  store double %fi316, double* %fi110, align 8, !llfi_index !744
  %269 = load double, double* %fi106, align 8, !llfi_index !745
  %fi317 = call double @injectFault0(i64 739, double %269, i32 32, i32 0, i32 1, i32 0, i8* getelementptr inbounds ([5 x i8], [5 x i8]* @load_namestr, i32 0, i32 0)), !llfi_injectfault !6
  %270 = load double, double* %fi110, align 8, !llfi_index !746
  %fi318 = call double @injectFault0(i64 740, double %270, i32 32, i32 0, i32 1, i32 0, i8* getelementptr inbounds ([5 x i8], [5 x i8]* @load_namestr, i32 0, i32 0)), !llfi_injectfault !6
  %271 = fmul double %fi317, %fi318, !llfi_index !747
  %fi319 = call double @injectFault0(i64 741, double %271, i32 18, i32 0, i32 1, i32 0, i8* getelementptr inbounds ([5 x i8], [5 x i8]* @fmul_namestr, i32 0, i32 0)), !llfi_injectfault !6
  %272 = load double, double* %fi109, align 8, !llfi_index !748
  %fi320 = call double @injectFault0(i64 742, double %272, i32 32, i32 0, i32 1, i32 0, i8* getelementptr inbounds ([5 x i8], [5 x i8]* @load_namestr, i32 0, i32 0)), !llfi_injectfault !6
  %273 = load double, double* %fi107, align 8, !llfi_index !749
  %fi321 = call double @injectFault0(i64 743, double %273, i32 32, i32 0, i32 1, i32 0, i8* getelementptr inbounds ([5 x i8], [5 x i8]* @load_namestr, i32 0, i32 0)), !llfi_injectfault !6
  %274 = fmul double %fi320, %fi321, !llfi_index !750
  %fi322 = call double @injectFault0(i64 744, double %274, i32 18, i32 0, i32 1, i32 0, i8* getelementptr inbounds ([5 x i8], [5 x i8]* @fmul_namestr, i32 0, i32 0)), !llfi_injectfault !6
  %275 = fsub double %fi319, %fi322, !llfi_index !751
  %fi323 = call double @injectFault0(i64 745, double %275, i32 16, i32 0, i32 1, i32 0, i8* getelementptr inbounds ([5 x i8], [5 x i8]* @fsub_namestr, i32 0, i32 0)), !llfi_injectfault !6
  store double %fi323, double* %fi111, align 8, !llfi_index !752
  %276 = load double, double* %fi105, align 8, !llfi_index !753
  %fi324 = call double @injectFault0(i64 747, double %276, i32 32, i32 0, i32 1, i32 0, i8* getelementptr inbounds ([5 x i8], [5 x i8]* @load_namestr, i32 0, i32 0)), !llfi_injectfault !6
  %277 = load double, double* %fi110, align 8, !llfi_index !754
  %fi325 = call double @injectFault0(i64 748, double %277, i32 32, i32 0, i32 1, i32 0, i8* getelementptr inbounds ([5 x i8], [5 x i8]* @load_namestr, i32 0, i32 0)), !llfi_injectfault !6
  %278 = fmul double %fi324, %fi325, !llfi_index !755
  %fi326 = call double @injectFault0(i64 749, double %278, i32 18, i32 0, i32 1, i32 0, i8* getelementptr inbounds ([5 x i8], [5 x i8]* @fmul_namestr, i32 0, i32 0)), !llfi_injectfault !6
  %279 = fneg double %fi326, !llfi_index !756
  %fi327 = call double @injectFault0(i64 750, double %279, i32 12, i32 0, i32 1, i32 0, i8* getelementptr inbounds ([5 x i8], [5 x i8]* @fneg_namestr, i32 0, i32 0)), !llfi_injectfault !6
  %280 = load double, double* %fi108, align 8, !llfi_index !757
  %fi328 = call double @injectFault0(i64 751, double %280, i32 32, i32 0, i32 1, i32 0, i8* getelementptr inbounds ([5 x i8], [5 x i8]* @load_namestr, i32 0, i32 0)), !llfi_injectfault !6
  %281 = load double, double* %fi107, align 8, !llfi_index !758
  %fi329 = call double @injectFault0(i64 752, double %281, i32 32, i32 0, i32 1, i32 0, i8* getelementptr inbounds ([5 x i8], [5 x i8]* @load_namestr, i32 0, i32 0)), !llfi_injectfault !6
  %282 = fmul double %fi328, %fi329, !llfi_index !759
  %fi330 = call double @injectFault0(i64 753, double %282, i32 18, i32 0, i32 1, i32 0, i8* getelementptr inbounds ([5 x i8], [5 x i8]* @fmul_namestr, i32 0, i32 0)), !llfi_injectfault !6
  %283 = fadd double %fi327, %fi330, !llfi_index !760
  %fi331 = call double @injectFault0(i64 754, double %283, i32 14, i32 0, i32 1, i32 0, i8* getelementptr inbounds ([5 x i8], [5 x i8]* @fadd_namestr, i32 0, i32 0)), !llfi_injectfault !6
  store double %fi331, double* %fi112, align 8, !llfi_index !761
  %284 = load double, double* %fi105, align 8, !llfi_index !762
  %fi332 = call double @injectFault0(i64 756, double %284, i32 32, i32 0, i32 1, i32 0, i8* getelementptr inbounds ([5 x i8], [5 x i8]* @load_namestr, i32 0, i32 0)), !llfi_injectfault !6
  %285 = load double, double* %fi109, align 8, !llfi_index !763
  %fi333 = call double @injectFault0(i64 757, double %285, i32 32, i32 0, i32 1, i32 0, i8* getelementptr inbounds ([5 x i8], [5 x i8]* @load_namestr, i32 0, i32 0)), !llfi_injectfault !6
  %286 = fmul double %fi332, %fi333, !llfi_index !764
  %fi334 = call double @injectFault0(i64 758, double %286, i32 18, i32 0, i32 1, i32 0, i8* getelementptr inbounds ([5 x i8], [5 x i8]* @fmul_namestr, i32 0, i32 0)), !llfi_injectfault !6
  %287 = load double, double* %fi108, align 8, !llfi_index !765
  %fi335 = call double @injectFault0(i64 759, double %287, i32 32, i32 0, i32 1, i32 0, i8* getelementptr inbounds ([5 x i8], [5 x i8]* @load_namestr, i32 0, i32 0)), !llfi_injectfault !6
  %288 = load double, double* %fi106, align 8, !llfi_index !766
  %fi336 = call double @injectFault0(i64 760, double %288, i32 32, i32 0, i32 1, i32 0, i8* getelementptr inbounds ([5 x i8], [5 x i8]* @load_namestr, i32 0, i32 0)), !llfi_injectfault !6
  %289 = fmul double %fi335, %fi336, !llfi_index !767
  %fi337 = call double @injectFault0(i64 761, double %289, i32 18, i32 0, i32 1, i32 0, i8* getelementptr inbounds ([5 x i8], [5 x i8]* @fmul_namestr, i32 0, i32 0)), !llfi_injectfault !6
  %290 = fsub double %fi334, %fi337, !llfi_index !768
  %fi338 = call double @injectFault0(i64 762, double %290, i32 16, i32 0, i32 1, i32 0, i8* getelementptr inbounds ([5 x i8], [5 x i8]* @fsub_namestr, i32 0, i32 0)), !llfi_injectfault !6
  store double %fi338, double* %fi113, align 8, !llfi_index !769
  %291 = load double, double* %fi103, align 8, !llfi_index !770
  %fi339 = call double @injectFault0(i64 764, double %291, i32 32, i32 0, i32 1, i32 0, i8* getelementptr inbounds ([5 x i8], [5 x i8]* @load_namestr, i32 0, i32 0)), !llfi_injectfault !6
  %292 = load double, double* %fi110, align 8, !llfi_index !771
  %fi340 = call double @injectFault0(i64 765, double %292, i32 32, i32 0, i32 1, i32 0, i8* getelementptr inbounds ([5 x i8], [5 x i8]* @load_namestr, i32 0, i32 0)), !llfi_injectfault !6
  %293 = fmul double %fi339, %fi340, !llfi_index !772
  %fi341 = call double @injectFault0(i64 766, double %293, i32 18, i32 0, i32 1, i32 0, i8* getelementptr inbounds ([5 x i8], [5 x i8]* @fmul_namestr, i32 0, i32 0)), !llfi_injectfault !6
  %294 = fneg double %fi341, !llfi_index !773
  %fi342 = call double @injectFault0(i64 767, double %294, i32 12, i32 0, i32 1, i32 0, i8* getelementptr inbounds ([5 x i8], [5 x i8]* @fneg_namestr, i32 0, i32 0)), !llfi_injectfault !6
  %295 = load double, double* %fi109, align 8, !llfi_index !774
  %fi343 = call double @injectFault0(i64 768, double %295, i32 32, i32 0, i32 1, i32 0, i8* getelementptr inbounds ([5 x i8], [5 x i8]* @load_namestr, i32 0, i32 0)), !llfi_injectfault !6
  %296 = load double, double* %fi104, align 8, !llfi_index !775
  %fi = call double @injectFault0(i64 769, double %296, i32 32, i32 0, i32 1, i32 0, i8* getelementptr inbounds ([5 x i8], [5 x i8]* @load_namestr, i32 0, i32 0)), !llfi_injectfault !6
  %297 = fmul double %fi343, %fi, !llfi_index !776
  %fi1 = call double @injectFault0(i64 770, double %297, i32 18, i32 0, i32 1, i32 0, i8* getelementptr inbounds ([5 x i8], [5 x i8]* @fmul_namestr, i32 0, i32 0)), !llfi_injectfault !6
  %298 = fadd double %fi342, %fi1, !llfi_index !777
  %fi2 = call double @injectFault0(i64 771, double %298, i32 14, i32 0, i32 1, i32 0, i8* getelementptr inbounds ([5 x i8], [5 x i8]* @fadd_namestr, i32 0, i32 0)), !llfi_injectfault !6
  store double %fi2, double* %fi114, align 8, !llfi_index !778
  %299 = load double, double* %fi102, align 8, !llfi_index !779
  %fi3 = call double @injectFault0(i64 773, double %299, i32 32, i32 0, i32 1, i32 0, i8* getelementptr inbounds ([5 x i8], [5 x i8]* @load_namestr, i32 0, i32 0)), !llfi_injectfault !6
  %300 = load double, double* %fi110, align 8, !llfi_index !780
  %fi4 = call double @injectFault0(i64 774, double %300, i32 32, i32 0, i32 1, i32 0, i8* getelementptr inbounds ([5 x i8], [5 x i8]* @load_namestr, i32 0, i32 0)), !llfi_injectfault !6
  %301 = fmul double %fi3, %fi4, !llfi_index !781
  %fi5 = call double @injectFault0(i64 775, double %301, i32 18, i32 0, i32 1, i32 0, i8* getelementptr inbounds ([5 x i8], [5 x i8]* @fmul_namestr, i32 0, i32 0)), !llfi_injectfault !6
  %302 = load double, double* %fi108, align 8, !llfi_index !782
  %fi6 = call double @injectFault0(i64 776, double %302, i32 32, i32 0, i32 1, i32 0, i8* getelementptr inbounds ([5 x i8], [5 x i8]* @load_namestr, i32 0, i32 0)), !llfi_injectfault !6
  %303 = load double, double* %fi104, align 8, !llfi_index !783
  %fi7 = call double @injectFault0(i64 777, double %303, i32 32, i32 0, i32 1, i32 0, i8* getelementptr inbounds ([5 x i8], [5 x i8]* @load_namestr, i32 0, i32 0)), !llfi_injectfault !6
  %304 = fmul double %fi6, %fi7, !llfi_index !784
  %fi8 = call double @injectFault0(i64 778, double %304, i32 18, i32 0, i32 1, i32 0, i8* getelementptr inbounds ([5 x i8], [5 x i8]* @fmul_namestr, i32 0, i32 0)), !llfi_injectfault !6
  %305 = fsub double %fi5, %fi8, !llfi_index !785
  %fi9 = call double @injectFault0(i64 779, double %305, i32 16, i32 0, i32 1, i32 0, i8* getelementptr inbounds ([5 x i8], [5 x i8]* @fsub_namestr, i32 0, i32 0)), !llfi_injectfault !6
  store double %fi9, double* %fi115, align 8, !llfi_index !786
  %306 = load double, double* %fi102, align 8, !llfi_index !787
  %fi10 = call double @injectFault0(i64 781, double %306, i32 32, i32 0, i32 1, i32 0, i8* getelementptr inbounds ([5 x i8], [5 x i8]* @load_namestr, i32 0, i32 0)), !llfi_injectfault !6
  %307 = load double, double* %fi109, align 8, !llfi_index !788
  %fi11 = call double @injectFault0(i64 782, double %307, i32 32, i32 0, i32 1, i32 0, i8* getelementptr inbounds ([5 x i8], [5 x i8]* @load_namestr, i32 0, i32 0)), !llfi_injectfault !6
  %308 = fmul double %fi10, %fi11, !llfi_index !789
  %fi12 = call double @injectFault0(i64 783, double %308, i32 18, i32 0, i32 1, i32 0, i8* getelementptr inbounds ([5 x i8], [5 x i8]* @fmul_namestr, i32 0, i32 0)), !llfi_injectfault !6
  %309 = fneg double %fi12, !llfi_index !790
  %fi13 = call double @injectFault0(i64 784, double %309, i32 12, i32 0, i32 1, i32 0, i8* getelementptr inbounds ([5 x i8], [5 x i8]* @fneg_namestr, i32 0, i32 0)), !llfi_injectfault !6
  %310 = load double, double* %fi108, align 8, !llfi_index !791
  %fi14 = call double @injectFault0(i64 785, double %310, i32 32, i32 0, i32 1, i32 0, i8* getelementptr inbounds ([5 x i8], [5 x i8]* @load_namestr, i32 0, i32 0)), !llfi_injectfault !6
  %311 = load double, double* %fi103, align 8, !llfi_index !792
  %fi15 = call double @injectFault0(i64 786, double %311, i32 32, i32 0, i32 1, i32 0, i8* getelementptr inbounds ([5 x i8], [5 x i8]* @load_namestr, i32 0, i32 0)), !llfi_injectfault !6
  %312 = fmul double %fi14, %fi15, !llfi_index !793
  %fi16 = call double @injectFault0(i64 787, double %312, i32 18, i32 0, i32 1, i32 0, i8* getelementptr inbounds ([5 x i8], [5 x i8]* @fmul_namestr, i32 0, i32 0)), !llfi_injectfault !6
  %313 = fadd double %fi13, %fi16, !llfi_index !794
  %fi17 = call double @injectFault0(i64 788, double %313, i32 14, i32 0, i32 1, i32 0, i8* getelementptr inbounds ([5 x i8], [5 x i8]* @fadd_namestr, i32 0, i32 0)), !llfi_injectfault !6
  store double %fi17, double* %fi116, align 8, !llfi_index !795
  %314 = load double, double* %fi103, align 8, !llfi_index !796
  %fi18 = call double @injectFault0(i64 790, double %314, i32 32, i32 0, i32 1, i32 0, i8* getelementptr inbounds ([5 x i8], [5 x i8]* @load_namestr, i32 0, i32 0)), !llfi_injectfault !6
  %315 = load double, double* %fi107, align 8, !llfi_index !797
  %fi19 = call double @injectFault0(i64 791, double %315, i32 32, i32 0, i32 1, i32 0, i8* getelementptr inbounds ([5 x i8], [5 x i8]* @load_namestr, i32 0, i32 0)), !llfi_injectfault !6
  %316 = fmul double %fi18, %fi19, !llfi_index !798
  %fi20 = call double @injectFault0(i64 792, double %316, i32 18, i32 0, i32 1, i32 0, i8* getelementptr inbounds ([5 x i8], [5 x i8]* @fmul_namestr, i32 0, i32 0)), !llfi_injectfault !6
  %317 = load double, double* %fi106, align 8, !llfi_index !799
  %fi21 = call double @injectFault0(i64 793, double %317, i32 32, i32 0, i32 1, i32 0, i8* getelementptr inbounds ([5 x i8], [5 x i8]* @load_namestr, i32 0, i32 0)), !llfi_injectfault !6
  %318 = load double, double* %fi104, align 8, !llfi_index !800
  %fi22 = call double @injectFault0(i64 794, double %318, i32 32, i32 0, i32 1, i32 0, i8* getelementptr inbounds ([5 x i8], [5 x i8]* @load_namestr, i32 0, i32 0)), !llfi_injectfault !6
  %319 = fmul double %fi21, %fi22, !llfi_index !801
  %fi23 = call double @injectFault0(i64 795, double %319, i32 18, i32 0, i32 1, i32 0, i8* getelementptr inbounds ([5 x i8], [5 x i8]* @fmul_namestr, i32 0, i32 0)), !llfi_injectfault !6
  %320 = fsub double %fi20, %fi23, !llfi_index !802
  %fi24 = call double @injectFault0(i64 796, double %320, i32 16, i32 0, i32 1, i32 0, i8* getelementptr inbounds ([5 x i8], [5 x i8]* @fsub_namestr, i32 0, i32 0)), !llfi_injectfault !6
  store double %fi24, double* %fi117, align 8, !llfi_index !803
  %321 = load double, double* %fi102, align 8, !llfi_index !804
  %fi25 = call double @injectFault0(i64 798, double %321, i32 32, i32 0, i32 1, i32 0, i8* getelementptr inbounds ([5 x i8], [5 x i8]* @load_namestr, i32 0, i32 0)), !llfi_injectfault !6
  %322 = load double, double* %fi107, align 8, !llfi_index !805
  %fi26 = call double @injectFault0(i64 799, double %322, i32 32, i32 0, i32 1, i32 0, i8* getelementptr inbounds ([5 x i8], [5 x i8]* @load_namestr, i32 0, i32 0)), !llfi_injectfault !6
  %323 = fmul double %fi25, %fi26, !llfi_index !806
  %fi27 = call double @injectFault0(i64 800, double %323, i32 18, i32 0, i32 1, i32 0, i8* getelementptr inbounds ([5 x i8], [5 x i8]* @fmul_namestr, i32 0, i32 0)), !llfi_injectfault !6
  %324 = fneg double %fi27, !llfi_index !807
  %fi28 = call double @injectFault0(i64 801, double %324, i32 12, i32 0, i32 1, i32 0, i8* getelementptr inbounds ([5 x i8], [5 x i8]* @fneg_namestr, i32 0, i32 0)), !llfi_injectfault !6
  %325 = load double, double* %fi105, align 8, !llfi_index !808
  %fi29 = call double @injectFault0(i64 802, double %325, i32 32, i32 0, i32 1, i32 0, i8* getelementptr inbounds ([5 x i8], [5 x i8]* @load_namestr, i32 0, i32 0)), !llfi_injectfault !6
  %326 = load double, double* %fi104, align 8, !llfi_index !809
  %fi30 = call double @injectFault0(i64 803, double %326, i32 32, i32 0, i32 1, i32 0, i8* getelementptr inbounds ([5 x i8], [5 x i8]* @load_namestr, i32 0, i32 0)), !llfi_injectfault !6
  %327 = fmul double %fi29, %fi30, !llfi_index !810
  %fi31 = call double @injectFault0(i64 804, double %327, i32 18, i32 0, i32 1, i32 0, i8* getelementptr inbounds ([5 x i8], [5 x i8]* @fmul_namestr, i32 0, i32 0)), !llfi_injectfault !6
  %328 = fadd double %fi28, %fi31, !llfi_index !811
  %fi32 = call double @injectFault0(i64 805, double %328, i32 14, i32 0, i32 1, i32 0, i8* getelementptr inbounds ([5 x i8], [5 x i8]* @fadd_namestr, i32 0, i32 0)), !llfi_injectfault !6
  store double %fi32, double* %fi118, align 8, !llfi_index !812
  %329 = load double, double* %fi102, align 8, !llfi_index !813
  %fi33 = call double @injectFault0(i64 807, double %329, i32 32, i32 0, i32 1, i32 0, i8* getelementptr inbounds ([5 x i8], [5 x i8]* @load_namestr, i32 0, i32 0)), !llfi_injectfault !6
  %330 = load double, double* %fi106, align 8, !llfi_index !814
  %fi34 = call double @injectFault0(i64 808, double %330, i32 32, i32 0, i32 1, i32 0, i8* getelementptr inbounds ([5 x i8], [5 x i8]* @load_namestr, i32 0, i32 0)), !llfi_injectfault !6
  %331 = fmul double %fi33, %fi34, !llfi_index !815
  %fi35 = call double @injectFault0(i64 809, double %331, i32 18, i32 0, i32 1, i32 0, i8* getelementptr inbounds ([5 x i8], [5 x i8]* @fmul_namestr, i32 0, i32 0)), !llfi_injectfault !6
  %332 = load double, double* %fi105, align 8, !llfi_index !816
  %fi36 = call double @injectFault0(i64 810, double %332, i32 32, i32 0, i32 1, i32 0, i8* getelementptr inbounds ([5 x i8], [5 x i8]* @load_namestr, i32 0, i32 0)), !llfi_injectfault !6
  %333 = load double, double* %fi103, align 8, !llfi_index !817
  %fi37 = call double @injectFault0(i64 811, double %333, i32 32, i32 0, i32 1, i32 0, i8* getelementptr inbounds ([5 x i8], [5 x i8]* @load_namestr, i32 0, i32 0)), !llfi_injectfault !6
  %334 = fmul double %fi36, %fi37, !llfi_index !818
  %fi38 = call double @injectFault0(i64 812, double %334, i32 18, i32 0, i32 1, i32 0, i8* getelementptr inbounds ([5 x i8], [5 x i8]* @fmul_namestr, i32 0, i32 0)), !llfi_injectfault !6
  %335 = fsub double %fi35, %fi38, !llfi_index !819
  %fi39 = call double @injectFault0(i64 813, double %335, i32 16, i32 0, i32 1, i32 0, i8* getelementptr inbounds ([5 x i8], [5 x i8]* @fsub_namestr, i32 0, i32 0)), !llfi_injectfault !6
  store double %fi39, double* %fi119, align 8, !llfi_index !820
  %336 = load double, double* %fi111, align 8, !llfi_index !821
  %fi40 = call double @injectFault0(i64 815, double %336, i32 32, i32 0, i32 1, i32 0, i8* getelementptr inbounds ([5 x i8], [5 x i8]* @load_namestr, i32 0, i32 0)), !llfi_injectfault !6
  %337 = fneg double %fi40, !llfi_index !822
  %fi41 = call double @injectFault0(i64 816, double %337, i32 12, i32 0, i32 1, i32 0, i8* getelementptr inbounds ([5 x i8], [5 x i8]* @fneg_namestr, i32 0, i32 0)), !llfi_injectfault !6
  %338 = load double, double* %fi112, align 8, !llfi_index !823
  %fi42 = call double @injectFault0(i64 817, double %338, i32 32, i32 0, i32 1, i32 0, i8* getelementptr inbounds ([5 x i8], [5 x i8]* @load_namestr, i32 0, i32 0)), !llfi_injectfault !6
  %339 = fsub double %fi41, %fi42, !llfi_index !824
  %fi43 = call double @injectFault0(i64 818, double %339, i32 16, i32 0, i32 1, i32 0, i8* getelementptr inbounds ([5 x i8], [5 x i8]* @fsub_namestr, i32 0, i32 0)), !llfi_injectfault !6
  %340 = load double, double* %fi113, align 8, !llfi_index !825
  %fi44 = call double @injectFault0(i64 819, double %340, i32 32, i32 0, i32 1, i32 0, i8* getelementptr inbounds ([5 x i8], [5 x i8]* @load_namestr, i32 0, i32 0)), !llfi_injectfault !6
  %341 = fsub double %fi43, %fi44, !llfi_index !826
  %fi45 = call double @injectFault0(i64 820, double %341, i32 16, i32 0, i32 1, i32 0, i8* getelementptr inbounds ([5 x i8], [5 x i8]* @fsub_namestr, i32 0, i32 0)), !llfi_injectfault !6
  %342 = load [8 x double]*, [8 x double]** %fi76, align 8, !llfi_index !827
  %fi46 = call [8 x double]* @injectFault9(i64 821, [8 x double]* %342, i32 32, i32 0, i32 1, i32 0, i8* getelementptr inbounds ([5 x i8], [5 x i8]* @load_namestr, i32 0, i32 0)), !llfi_injectfault !6
  %343 = getelementptr inbounds [8 x double], [8 x double]* %fi46, i64 0, !llfi_index !828
  %344 = getelementptr inbounds [8 x double], [8 x double]* %343, i64 0, i64 0, !llfi_index !829
  store double %fi45, double* %344, align 8, !llfi_index !830
  %345 = load double, double* %fi111, align 8, !llfi_index !831
  %fi47 = call double @injectFault0(i64 825, double %345, i32 32, i32 0, i32 1, i32 0, i8* getelementptr inbounds ([5 x i8], [5 x i8]* @load_namestr, i32 0, i32 0)), !llfi_injectfault !6
  %346 = load double, double* %fi112, align 8, !llfi_index !832
  %fi48 = call double @injectFault0(i64 826, double %346, i32 32, i32 0, i32 1, i32 0, i8* getelementptr inbounds ([5 x i8], [5 x i8]* @load_namestr, i32 0, i32 0)), !llfi_injectfault !6
  %347 = fsub double %fi47, %fi48, !llfi_index !833
  %fi49 = call double @injectFault0(i64 827, double %347, i32 16, i32 0, i32 1, i32 0, i8* getelementptr inbounds ([5 x i8], [5 x i8]* @fsub_namestr, i32 0, i32 0)), !llfi_injectfault !6
  %348 = load double, double* %fi113, align 8, !llfi_index !834
  %fi50 = call double @injectFault0(i64 828, double %348, i32 32, i32 0, i32 1, i32 0, i8* getelementptr inbounds ([5 x i8], [5 x i8]* @load_namestr, i32 0, i32 0)), !llfi_injectfault !6
  %349 = fsub double %fi49, %fi50, !llfi_index !835
  %fi51 = call double @injectFault0(i64 829, double %349, i32 16, i32 0, i32 1, i32 0, i8* getelementptr inbounds ([5 x i8], [5 x i8]* @fsub_namestr, i32 0, i32 0)), !llfi_injectfault !6
  %350 = load [8 x double]*, [8 x double]** %fi76, align 8, !llfi_index !836
  %fi52 = call [8 x double]* @injectFault9(i64 830, [8 x double]* %350, i32 32, i32 0, i32 1, i32 0, i8* getelementptr inbounds ([5 x i8], [5 x i8]* @load_namestr, i32 0, i32 0)), !llfi_injectfault !6
  %351 = getelementptr inbounds [8 x double], [8 x double]* %fi52, i64 0, !llfi_index !837
  %352 = getelementptr inbounds [8 x double], [8 x double]* %351, i64 0, i64 1, !llfi_index !838
  store double %fi51, double* %352, align 8, !llfi_index !839
  %353 = load double, double* %fi111, align 8, !llfi_index !840
  %fi53 = call double @injectFault0(i64 834, double %353, i32 32, i32 0, i32 1, i32 0, i8* getelementptr inbounds ([5 x i8], [5 x i8]* @load_namestr, i32 0, i32 0)), !llfi_injectfault !6
  %354 = load double, double* %fi112, align 8, !llfi_index !841
  %fi54 = call double @injectFault0(i64 835, double %354, i32 32, i32 0, i32 1, i32 0, i8* getelementptr inbounds ([5 x i8], [5 x i8]* @load_namestr, i32 0, i32 0)), !llfi_injectfault !6
  %355 = fadd double %fi53, %fi54, !llfi_index !842
  %fi55 = call double @injectFault0(i64 836, double %355, i32 14, i32 0, i32 1, i32 0, i8* getelementptr inbounds ([5 x i8], [5 x i8]* @fadd_namestr, i32 0, i32 0)), !llfi_injectfault !6
  %356 = load double, double* %fi113, align 8, !llfi_index !843
  %fi56 = call double @injectFault0(i64 837, double %356, i32 32, i32 0, i32 1, i32 0, i8* getelementptr inbounds ([5 x i8], [5 x i8]* @load_namestr, i32 0, i32 0)), !llfi_injectfault !6
  %357 = fsub double %fi55, %fi56, !llfi_index !844
  %fi57 = call double @injectFault0(i64 838, double %357, i32 16, i32 0, i32 1, i32 0, i8* getelementptr inbounds ([5 x i8], [5 x i8]* @fsub_namestr, i32 0, i32 0)), !llfi_injectfault !6
  %358 = load [8 x double]*, [8 x double]** %fi76, align 8, !llfi_index !845
  %fi58 = call [8 x double]* @injectFault9(i64 839, [8 x double]* %358, i32 32, i32 0, i32 1, i32 0, i8* getelementptr inbounds ([5 x i8], [5 x i8]* @load_namestr, i32 0, i32 0)), !llfi_injectfault !6
  %359 = getelementptr inbounds [8 x double], [8 x double]* %fi58, i64 0, !llfi_index !846
  %360 = getelementptr inbounds [8 x double], [8 x double]* %359, i64 0, i64 2, !llfi_index !847
  store double %fi57, double* %360, align 8, !llfi_index !848
  %361 = load double, double* %fi111, align 8, !llfi_index !849
  %fi59 = call double @injectFault0(i64 843, double %361, i32 32, i32 0, i32 1, i32 0, i8* getelementptr inbounds ([5 x i8], [5 x i8]* @load_namestr, i32 0, i32 0)), !llfi_injectfault !6
  %362 = fneg double %fi59, !llfi_index !850
  %fi60 = call double @injectFault0(i64 844, double %362, i32 12, i32 0, i32 1, i32 0, i8* getelementptr inbounds ([5 x i8], [5 x i8]* @fneg_namestr, i32 0, i32 0)), !llfi_injectfault !6
  %363 = load double, double* %fi112, align 8, !llfi_index !851
  %fi61 = call double @injectFault0(i64 845, double %363, i32 32, i32 0, i32 1, i32 0, i8* getelementptr inbounds ([5 x i8], [5 x i8]* @load_namestr, i32 0, i32 0)), !llfi_injectfault !6
  %364 = fadd double %fi60, %fi61, !llfi_index !852
  %fi62 = call double @injectFault0(i64 846, double %364, i32 14, i32 0, i32 1, i32 0, i8* getelementptr inbounds ([5 x i8], [5 x i8]* @fadd_namestr, i32 0, i32 0)), !llfi_injectfault !6
  %365 = load double, double* %fi113, align 8, !llfi_index !853
  %fi63 = call double @injectFault0(i64 847, double %365, i32 32, i32 0, i32 1, i32 0, i8* getelementptr inbounds ([5 x i8], [5 x i8]* @load_namestr, i32 0, i32 0)), !llfi_injectfault !6
  %366 = fsub double %fi62, %fi63, !llfi_index !854
  %fi64 = call double @injectFault0(i64 848, double %366, i32 16, i32 0, i32 1, i32 0, i8* getelementptr inbounds ([5 x i8], [5 x i8]* @fsub_namestr, i32 0, i32 0)), !llfi_injectfault !6
  %367 = load [8 x double]*, [8 x double]** %fi76, align 8, !llfi_index !855
  %fi65 = call [8 x double]* @injectFault9(i64 849, [8 x double]* %367, i32 32, i32 0, i32 1, i32 0, i8* getelementptr inbounds ([5 x i8], [5 x i8]* @load_namestr, i32 0, i32 0)), !llfi_injectfault !6
  %368 = getelementptr inbounds [8 x double], [8 x double]* %fi65, i64 0, !llfi_index !856
  %369 = getelementptr inbounds [8 x double], [8 x double]* %368, i64 0, i64 3, !llfi_index !857
  store double %fi64, double* %369, align 8, !llfi_index !858
  %370 = load [8 x double]*, [8 x double]** %fi76, align 8, !llfi_index !859
  %fi66 = call [8 x double]* @injectFault9(i64 853, [8 x double]* %370, i32 32, i32 0, i32 1, i32 0, i8* getelementptr inbounds ([5 x i8], [5 x i8]* @load_namestr, i32 0, i32 0)), !llfi_injectfault !6
  %371 = getelementptr inbounds [8 x double], [8 x double]* %fi66, i64 0, !llfi_index !860
  %372 = getelementptr inbounds [8 x double], [8 x double]* %371, i64 0, i64 2, !llfi_index !861
  %373 = load double, double* %372, align 8, !llfi_index !862
  %fi67 = call double @injectFault0(i64 856, double %373, i32 32, i32 0, i32 1, i32 0, i8* getelementptr inbounds ([5 x i8], [5 x i8]* @load_namestr, i32 0, i32 0)), !llfi_injectfault !6
  %374 = fneg double %fi67, !llfi_index !863
  %fi68 = call double @injectFault0(i64 857, double %374, i32 12, i32 0, i32 1, i32 0, i8* getelementptr inbounds ([5 x i8], [5 x i8]* @fneg_namestr, i32 0, i32 0)), !llfi_injectfault !6
  %375 = load [8 x double]*, [8 x double]** %fi76, align 8, !llfi_index !864
  %fi69 = call [8 x double]* @injectFault9(i64 858, [8 x double]* %375, i32 32, i32 0, i32 1, i32 0, i8* getelementptr inbounds ([5 x i8], [5 x i8]* @load_namestr, i32 0, i32 0)), !llfi_injectfault !6
  %376 = getelementptr inbounds [8 x double], [8 x double]* %fi69, i64 0, !llfi_index !865
  %377 = getelementptr inbounds [8 x double], [8 x double]* %376, i64 0, i64 4, !llfi_index !866
  store double %fi68, double* %377, align 8, !llfi_index !867
  %378 = load [8 x double]*, [8 x double]** %fi76, align 8, !llfi_index !868
  %fi70 = call [8 x double]* @injectFault9(i64 862, [8 x double]* %378, i32 32, i32 0, i32 1, i32 0, i8* getelementptr inbounds ([5 x i8], [5 x i8]* @load_namestr, i32 0, i32 0)), !llfi_injectfault !6
  %379 = getelementptr inbounds [8 x double], [8 x double]* %fi70, i64 0, !llfi_index !869
  %380 = getelementptr inbounds [8 x double], [8 x double]* %379, i64 0, i64 3, !llfi_index !870
  %381 = load double, double* %380, align 8, !llfi_index !871
  %fi71 = call double @injectFault0(i64 865, double %381, i32 32, i32 0, i32 1, i32 0, i8* getelementptr inbounds ([5 x i8], [5 x i8]* @load_namestr, i32 0, i32 0)), !llfi_injectfault !6
  %382 = fneg double %fi71, !llfi_index !872
  %fi72 = call double @injectFault0(i64 866, double %382, i32 12, i32 0, i32 1, i32 0, i8* getelementptr inbounds ([5 x i8], [5 x i8]* @fneg_namestr, i32 0, i32 0)), !llfi_injectfault !6
  %383 = load [8 x double]*, [8 x double]** %fi76, align 8, !llfi_index !873
  %fi344 = call [8 x double]* @injectFault9(i64 867, [8 x double]* %383, i32 32, i32 0, i32 1, i32 0, i8* getelementptr inbounds ([5 x i8], [5 x i8]* @load_namestr, i32 0, i32 0)), !llfi_injectfault !6
  %384 = getelementptr inbounds [8 x double], [8 x double]* %fi344, i64 0, !llfi_index !874
  %385 = getelementptr inbounds [8 x double], [8 x double]* %384, i64 0, i64 5, !llfi_index !875
  store double %fi72, double* %385, align 8, !llfi_index !876
  %386 = load [8 x double]*, [8 x double]** %fi76, align 8, !llfi_index !877
  %fi345 = call [8 x double]* @injectFault9(i64 871, [8 x double]* %386, i32 32, i32 0, i32 1, i32 0, i8* getelementptr inbounds ([5 x i8], [5 x i8]* @load_namestr, i32 0, i32 0)), !llfi_injectfault !6
  %387 = getelementptr inbounds [8 x double], [8 x double]* %fi345, i64 0, !llfi_index !878
  %388 = getelementptr inbounds [8 x double], [8 x double]* %387, i64 0, i64 0, !llfi_index !879
  %389 = load double, double* %388, align 8, !llfi_index !880
  %fi346 = call double @injectFault0(i64 874, double %389, i32 32, i32 0, i32 1, i32 0, i8* getelementptr inbounds ([5 x i8], [5 x i8]* @load_namestr, i32 0, i32 0)), !llfi_injectfault !6
  %390 = fneg double %fi346, !llfi_index !881
  %fi347 = call double @injectFault0(i64 875, double %390, i32 12, i32 0, i32 1, i32 0, i8* getelementptr inbounds ([5 x i8], [5 x i8]* @fneg_namestr, i32 0, i32 0)), !llfi_injectfault !6
  %391 = load [8 x double]*, [8 x double]** %fi76, align 8, !llfi_index !882
  %fi348 = call [8 x double]* @injectFault9(i64 876, [8 x double]* %391, i32 32, i32 0, i32 1, i32 0, i8* getelementptr inbounds ([5 x i8], [5 x i8]* @load_namestr, i32 0, i32 0)), !llfi_injectfault !6
  %392 = getelementptr inbounds [8 x double], [8 x double]* %fi348, i64 0, !llfi_index !883
  %393 = getelementptr inbounds [8 x double], [8 x double]* %392, i64 0, i64 6, !llfi_index !884
  store double %fi347, double* %393, align 8, !llfi_index !885
  %394 = load [8 x double]*, [8 x double]** %fi76, align 8, !llfi_index !886
  %fi349 = call [8 x double]* @injectFault9(i64 880, [8 x double]* %394, i32 32, i32 0, i32 1, i32 0, i8* getelementptr inbounds ([5 x i8], [5 x i8]* @load_namestr, i32 0, i32 0)), !llfi_injectfault !6
  %395 = getelementptr inbounds [8 x double], [8 x double]* %fi349, i64 0, !llfi_index !887
  %396 = getelementptr inbounds [8 x double], [8 x double]* %395, i64 0, i64 1, !llfi_index !888
  %397 = load double, double* %396, align 8, !llfi_index !889
  %fi350 = call double @injectFault0(i64 883, double %397, i32 32, i32 0, i32 1, i32 0, i8* getelementptr inbounds ([5 x i8], [5 x i8]* @load_namestr, i32 0, i32 0)), !llfi_injectfault !6
  %398 = fneg double %fi350, !llfi_index !890
  %fi351 = call double @injectFault0(i64 884, double %398, i32 12, i32 0, i32 1, i32 0, i8* getelementptr inbounds ([5 x i8], [5 x i8]* @fneg_namestr, i32 0, i32 0)), !llfi_injectfault !6
  %399 = load [8 x double]*, [8 x double]** %fi76, align 8, !llfi_index !891
  %fi352 = call [8 x double]* @injectFault9(i64 885, [8 x double]* %399, i32 32, i32 0, i32 1, i32 0, i8* getelementptr inbounds ([5 x i8], [5 x i8]* @load_namestr, i32 0, i32 0)), !llfi_injectfault !6
  %400 = getelementptr inbounds [8 x double], [8 x double]* %fi352, i64 0, !llfi_index !892
  %401 = getelementptr inbounds [8 x double], [8 x double]* %400, i64 0, i64 7, !llfi_index !893
  store double %fi351, double* %401, align 8, !llfi_index !894
  %402 = load double, double* %fi114, align 8, !llfi_index !895
  %fi353 = call double @injectFault0(i64 889, double %402, i32 32, i32 0, i32 1, i32 0, i8* getelementptr inbounds ([5 x i8], [5 x i8]* @load_namestr, i32 0, i32 0)), !llfi_injectfault !6
  %403 = fneg double %fi353, !llfi_index !896
  %fi354 = call double @injectFault0(i64 890, double %403, i32 12, i32 0, i32 1, i32 0, i8* getelementptr inbounds ([5 x i8], [5 x i8]* @fneg_namestr, i32 0, i32 0)), !llfi_injectfault !6
  %404 = load double, double* %fi115, align 8, !llfi_index !897
  %fi355 = call double @injectFault0(i64 891, double %404, i32 32, i32 0, i32 1, i32 0, i8* getelementptr inbounds ([5 x i8], [5 x i8]* @load_namestr, i32 0, i32 0)), !llfi_injectfault !6
  %405 = fsub double %fi354, %fi355, !llfi_index !898
  %fi356 = call double @injectFault0(i64 892, double %405, i32 16, i32 0, i32 1, i32 0, i8* getelementptr inbounds ([5 x i8], [5 x i8]* @fsub_namestr, i32 0, i32 0)), !llfi_injectfault !6
  %406 = load double, double* %fi116, align 8, !llfi_index !899
  %fi357 = call double @injectFault0(i64 893, double %406, i32 32, i32 0, i32 1, i32 0, i8* getelementptr inbounds ([5 x i8], [5 x i8]* @load_namestr, i32 0, i32 0)), !llfi_injectfault !6
  %407 = fsub double %fi356, %fi357, !llfi_index !900
  %fi358 = call double @injectFault0(i64 894, double %407, i32 16, i32 0, i32 1, i32 0, i8* getelementptr inbounds ([5 x i8], [5 x i8]* @fsub_namestr, i32 0, i32 0)), !llfi_injectfault !6
  %408 = load [8 x double]*, [8 x double]** %fi76, align 8, !llfi_index !901
  %fi359 = call [8 x double]* @injectFault9(i64 895, [8 x double]* %408, i32 32, i32 0, i32 1, i32 0, i8* getelementptr inbounds ([5 x i8], [5 x i8]* @load_namestr, i32 0, i32 0)), !llfi_injectfault !6
  %409 = getelementptr inbounds [8 x double], [8 x double]* %fi359, i64 1, !llfi_index !902
  %410 = getelementptr inbounds [8 x double], [8 x double]* %409, i64 0, i64 0, !llfi_index !903
  store double %fi358, double* %410, align 8, !llfi_index !904
  %411 = load double, double* %fi114, align 8, !llfi_index !905
  %fi360 = call double @injectFault0(i64 899, double %411, i32 32, i32 0, i32 1, i32 0, i8* getelementptr inbounds ([5 x i8], [5 x i8]* @load_namestr, i32 0, i32 0)), !llfi_injectfault !6
  %412 = load double, double* %fi115, align 8, !llfi_index !906
  %fi361 = call double @injectFault0(i64 900, double %412, i32 32, i32 0, i32 1, i32 0, i8* getelementptr inbounds ([5 x i8], [5 x i8]* @load_namestr, i32 0, i32 0)), !llfi_injectfault !6
  %413 = fsub double %fi360, %fi361, !llfi_index !907
  %fi362 = call double @injectFault0(i64 901, double %413, i32 16, i32 0, i32 1, i32 0, i8* getelementptr inbounds ([5 x i8], [5 x i8]* @fsub_namestr, i32 0, i32 0)), !llfi_injectfault !6
  %414 = load double, double* %fi116, align 8, !llfi_index !908
  %fi363 = call double @injectFault0(i64 902, double %414, i32 32, i32 0, i32 1, i32 0, i8* getelementptr inbounds ([5 x i8], [5 x i8]* @load_namestr, i32 0, i32 0)), !llfi_injectfault !6
  %415 = fsub double %fi362, %fi363, !llfi_index !909
  %fi364 = call double @injectFault0(i64 903, double %415, i32 16, i32 0, i32 1, i32 0, i8* getelementptr inbounds ([5 x i8], [5 x i8]* @fsub_namestr, i32 0, i32 0)), !llfi_injectfault !6
  %416 = load [8 x double]*, [8 x double]** %fi76, align 8, !llfi_index !910
  %fi365 = call [8 x double]* @injectFault9(i64 904, [8 x double]* %416, i32 32, i32 0, i32 1, i32 0, i8* getelementptr inbounds ([5 x i8], [5 x i8]* @load_namestr, i32 0, i32 0)), !llfi_injectfault !6
  %417 = getelementptr inbounds [8 x double], [8 x double]* %fi365, i64 1, !llfi_index !911
  %418 = getelementptr inbounds [8 x double], [8 x double]* %417, i64 0, i64 1, !llfi_index !912
  store double %fi364, double* %418, align 8, !llfi_index !913
  %419 = load double, double* %fi114, align 8, !llfi_index !914
  %fi366 = call double @injectFault0(i64 908, double %419, i32 32, i32 0, i32 1, i32 0, i8* getelementptr inbounds ([5 x i8], [5 x i8]* @load_namestr, i32 0, i32 0)), !llfi_injectfault !6
  %420 = load double, double* %fi115, align 8, !llfi_index !915
  %fi367 = call double @injectFault0(i64 909, double %420, i32 32, i32 0, i32 1, i32 0, i8* getelementptr inbounds ([5 x i8], [5 x i8]* @load_namestr, i32 0, i32 0)), !llfi_injectfault !6
  %421 = fadd double %fi366, %fi367, !llfi_index !916
  %fi368 = call double @injectFault0(i64 910, double %421, i32 14, i32 0, i32 1, i32 0, i8* getelementptr inbounds ([5 x i8], [5 x i8]* @fadd_namestr, i32 0, i32 0)), !llfi_injectfault !6
  %422 = load double, double* %fi116, align 8, !llfi_index !917
  %fi369 = call double @injectFault0(i64 911, double %422, i32 32, i32 0, i32 1, i32 0, i8* getelementptr inbounds ([5 x i8], [5 x i8]* @load_namestr, i32 0, i32 0)), !llfi_injectfault !6
  %423 = fsub double %fi368, %fi369, !llfi_index !918
  %fi370 = call double @injectFault0(i64 912, double %423, i32 16, i32 0, i32 1, i32 0, i8* getelementptr inbounds ([5 x i8], [5 x i8]* @fsub_namestr, i32 0, i32 0)), !llfi_injectfault !6
  %424 = load [8 x double]*, [8 x double]** %fi76, align 8, !llfi_index !919
  %fi371 = call [8 x double]* @injectFault9(i64 913, [8 x double]* %424, i32 32, i32 0, i32 1, i32 0, i8* getelementptr inbounds ([5 x i8], [5 x i8]* @load_namestr, i32 0, i32 0)), !llfi_injectfault !6
  %425 = getelementptr inbounds [8 x double], [8 x double]* %fi371, i64 1, !llfi_index !920
  %426 = getelementptr inbounds [8 x double], [8 x double]* %425, i64 0, i64 2, !llfi_index !921
  store double %fi370, double* %426, align 8, !llfi_index !922
  %427 = load double, double* %fi114, align 8, !llfi_index !923
  %fi372 = call double @injectFault0(i64 917, double %427, i32 32, i32 0, i32 1, i32 0, i8* getelementptr inbounds ([5 x i8], [5 x i8]* @load_namestr, i32 0, i32 0)), !llfi_injectfault !6
  %428 = fneg double %fi372, !llfi_index !924
  %fi373 = call double @injectFault0(i64 918, double %428, i32 12, i32 0, i32 1, i32 0, i8* getelementptr inbounds ([5 x i8], [5 x i8]* @fneg_namestr, i32 0, i32 0)), !llfi_injectfault !6
  %429 = load double, double* %fi115, align 8, !llfi_index !925
  %fi374 = call double @injectFault0(i64 919, double %429, i32 32, i32 0, i32 1, i32 0, i8* getelementptr inbounds ([5 x i8], [5 x i8]* @load_namestr, i32 0, i32 0)), !llfi_injectfault !6
  %430 = fadd double %fi373, %fi374, !llfi_index !926
  %fi375 = call double @injectFault0(i64 920, double %430, i32 14, i32 0, i32 1, i32 0, i8* getelementptr inbounds ([5 x i8], [5 x i8]* @fadd_namestr, i32 0, i32 0)), !llfi_injectfault !6
  %431 = load double, double* %fi116, align 8, !llfi_index !927
  %fi376 = call double @injectFault0(i64 921, double %431, i32 32, i32 0, i32 1, i32 0, i8* getelementptr inbounds ([5 x i8], [5 x i8]* @load_namestr, i32 0, i32 0)), !llfi_injectfault !6
  %432 = fsub double %fi375, %fi376, !llfi_index !928
  %fi377 = call double @injectFault0(i64 922, double %432, i32 16, i32 0, i32 1, i32 0, i8* getelementptr inbounds ([5 x i8], [5 x i8]* @fsub_namestr, i32 0, i32 0)), !llfi_injectfault !6
  %433 = load [8 x double]*, [8 x double]** %fi76, align 8, !llfi_index !929
  %fi378 = call [8 x double]* @injectFault9(i64 923, [8 x double]* %433, i32 32, i32 0, i32 1, i32 0, i8* getelementptr inbounds ([5 x i8], [5 x i8]* @load_namestr, i32 0, i32 0)), !llfi_injectfault !6
  %434 = getelementptr inbounds [8 x double], [8 x double]* %fi378, i64 1, !llfi_index !930
  %435 = getelementptr inbounds [8 x double], [8 x double]* %434, i64 0, i64 3, !llfi_index !931
  store double %fi377, double* %435, align 8, !llfi_index !932
  %436 = load [8 x double]*, [8 x double]** %fi76, align 8, !llfi_index !933
  %fi379 = call [8 x double]* @injectFault9(i64 927, [8 x double]* %436, i32 32, i32 0, i32 1, i32 0, i8* getelementptr inbounds ([5 x i8], [5 x i8]* @load_namestr, i32 0, i32 0)), !llfi_injectfault !6
  %437 = getelementptr inbounds [8 x double], [8 x double]* %fi379, i64 1, !llfi_index !934
  %438 = getelementptr inbounds [8 x double], [8 x double]* %437, i64 0, i64 2, !llfi_index !935
  %439 = load double, double* %438, align 8, !llfi_index !936
  %fi380 = call double @injectFault0(i64 930, double %439, i32 32, i32 0, i32 1, i32 0, i8* getelementptr inbounds ([5 x i8], [5 x i8]* @load_namestr, i32 0, i32 0)), !llfi_injectfault !6
  %440 = fneg double %fi380, !llfi_index !937
  %fi381 = call double @injectFault0(i64 931, double %440, i32 12, i32 0, i32 1, i32 0, i8* getelementptr inbounds ([5 x i8], [5 x i8]* @fneg_namestr, i32 0, i32 0)), !llfi_injectfault !6
  %441 = load [8 x double]*, [8 x double]** %fi76, align 8, !llfi_index !938
  %fi382 = call [8 x double]* @injectFault9(i64 932, [8 x double]* %441, i32 32, i32 0, i32 1, i32 0, i8* getelementptr inbounds ([5 x i8], [5 x i8]* @load_namestr, i32 0, i32 0)), !llfi_injectfault !6
  %442 = getelementptr inbounds [8 x double], [8 x double]* %fi382, i64 1, !llfi_index !939
  %443 = getelementptr inbounds [8 x double], [8 x double]* %442, i64 0, i64 4, !llfi_index !940
  store double %fi381, double* %443, align 8, !llfi_index !941
  %444 = load [8 x double]*, [8 x double]** %fi76, align 8, !llfi_index !942
  %fi383 = call [8 x double]* @injectFault9(i64 936, [8 x double]* %444, i32 32, i32 0, i32 1, i32 0, i8* getelementptr inbounds ([5 x i8], [5 x i8]* @load_namestr, i32 0, i32 0)), !llfi_injectfault !6
  %445 = getelementptr inbounds [8 x double], [8 x double]* %fi383, i64 1, !llfi_index !943
  %446 = getelementptr inbounds [8 x double], [8 x double]* %445, i64 0, i64 3, !llfi_index !944
  %447 = load double, double* %446, align 8, !llfi_index !945
  %fi384 = call double @injectFault0(i64 939, double %447, i32 32, i32 0, i32 1, i32 0, i8* getelementptr inbounds ([5 x i8], [5 x i8]* @load_namestr, i32 0, i32 0)), !llfi_injectfault !6
  %448 = fneg double %fi384, !llfi_index !946
  %fi385 = call double @injectFault0(i64 940, double %448, i32 12, i32 0, i32 1, i32 0, i8* getelementptr inbounds ([5 x i8], [5 x i8]* @fneg_namestr, i32 0, i32 0)), !llfi_injectfault !6
  %449 = load [8 x double]*, [8 x double]** %fi76, align 8, !llfi_index !947
  %fi386 = call [8 x double]* @injectFault9(i64 941, [8 x double]* %449, i32 32, i32 0, i32 1, i32 0, i8* getelementptr inbounds ([5 x i8], [5 x i8]* @load_namestr, i32 0, i32 0)), !llfi_injectfault !6
  %450 = getelementptr inbounds [8 x double], [8 x double]* %fi386, i64 1, !llfi_index !948
  %451 = getelementptr inbounds [8 x double], [8 x double]* %450, i64 0, i64 5, !llfi_index !949
  store double %fi385, double* %451, align 8, !llfi_index !950
  %452 = load [8 x double]*, [8 x double]** %fi76, align 8, !llfi_index !951
  %fi387 = call [8 x double]* @injectFault9(i64 945, [8 x double]* %452, i32 32, i32 0, i32 1, i32 0, i8* getelementptr inbounds ([5 x i8], [5 x i8]* @load_namestr, i32 0, i32 0)), !llfi_injectfault !6
  %453 = getelementptr inbounds [8 x double], [8 x double]* %fi387, i64 1, !llfi_index !952
  %454 = getelementptr inbounds [8 x double], [8 x double]* %453, i64 0, i64 0, !llfi_index !953
  %455 = load double, double* %454, align 8, !llfi_index !954
  %fi388 = call double @injectFault0(i64 948, double %455, i32 32, i32 0, i32 1, i32 0, i8* getelementptr inbounds ([5 x i8], [5 x i8]* @load_namestr, i32 0, i32 0)), !llfi_injectfault !6
  %456 = fneg double %fi388, !llfi_index !955
  %fi389 = call double @injectFault0(i64 949, double %456, i32 12, i32 0, i32 1, i32 0, i8* getelementptr inbounds ([5 x i8], [5 x i8]* @fneg_namestr, i32 0, i32 0)), !llfi_injectfault !6
  %457 = load [8 x double]*, [8 x double]** %fi76, align 8, !llfi_index !956
  %fi390 = call [8 x double]* @injectFault9(i64 950, [8 x double]* %457, i32 32, i32 0, i32 1, i32 0, i8* getelementptr inbounds ([5 x i8], [5 x i8]* @load_namestr, i32 0, i32 0)), !llfi_injectfault !6
  %458 = getelementptr inbounds [8 x double], [8 x double]* %fi390, i64 1, !llfi_index !957
  %459 = getelementptr inbounds [8 x double], [8 x double]* %458, i64 0, i64 6, !llfi_index !958
  store double %fi389, double* %459, align 8, !llfi_index !959
  %460 = load [8 x double]*, [8 x double]** %fi76, align 8, !llfi_index !960
  %fi391 = call [8 x double]* @injectFault9(i64 954, [8 x double]* %460, i32 32, i32 0, i32 1, i32 0, i8* getelementptr inbounds ([5 x i8], [5 x i8]* @load_namestr, i32 0, i32 0)), !llfi_injectfault !6
  %461 = getelementptr inbounds [8 x double], [8 x double]* %fi391, i64 1, !llfi_index !961
  %462 = getelementptr inbounds [8 x double], [8 x double]* %461, i64 0, i64 1, !llfi_index !962
  %463 = load double, double* %462, align 8, !llfi_index !963
  %fi392 = call double @injectFault0(i64 957, double %463, i32 32, i32 0, i32 1, i32 0, i8* getelementptr inbounds ([5 x i8], [5 x i8]* @load_namestr, i32 0, i32 0)), !llfi_injectfault !6
  %464 = fneg double %fi392, !llfi_index !964
  %fi393 = call double @injectFault0(i64 958, double %464, i32 12, i32 0, i32 1, i32 0, i8* getelementptr inbounds ([5 x i8], [5 x i8]* @fneg_namestr, i32 0, i32 0)), !llfi_injectfault !6
  %465 = load [8 x double]*, [8 x double]** %fi76, align 8, !llfi_index !965
  %fi394 = call [8 x double]* @injectFault9(i64 959, [8 x double]* %465, i32 32, i32 0, i32 1, i32 0, i8* getelementptr inbounds ([5 x i8], [5 x i8]* @load_namestr, i32 0, i32 0)), !llfi_injectfault !6
  %466 = getelementptr inbounds [8 x double], [8 x double]* %fi394, i64 1, !llfi_index !966
  %467 = getelementptr inbounds [8 x double], [8 x double]* %466, i64 0, i64 7, !llfi_index !967
  store double %fi393, double* %467, align 8, !llfi_index !968
  %468 = load double, double* %fi117, align 8, !llfi_index !969
  %fi395 = call double @injectFault0(i64 963, double %468, i32 32, i32 0, i32 1, i32 0, i8* getelementptr inbounds ([5 x i8], [5 x i8]* @load_namestr, i32 0, i32 0)), !llfi_injectfault !6
  %469 = fneg double %fi395, !llfi_index !970
  %fi396 = call double @injectFault0(i64 964, double %469, i32 12, i32 0, i32 1, i32 0, i8* getelementptr inbounds ([5 x i8], [5 x i8]* @fneg_namestr, i32 0, i32 0)), !llfi_injectfault !6
  %470 = load double, double* %fi118, align 8, !llfi_index !971
  %fi397 = call double @injectFault0(i64 965, double %470, i32 32, i32 0, i32 1, i32 0, i8* getelementptr inbounds ([5 x i8], [5 x i8]* @load_namestr, i32 0, i32 0)), !llfi_injectfault !6
  %471 = fsub double %fi396, %fi397, !llfi_index !972
  %fi398 = call double @injectFault0(i64 966, double %471, i32 16, i32 0, i32 1, i32 0, i8* getelementptr inbounds ([5 x i8], [5 x i8]* @fsub_namestr, i32 0, i32 0)), !llfi_injectfault !6
  %472 = load double, double* %fi119, align 8, !llfi_index !973
  %fi399 = call double @injectFault0(i64 967, double %472, i32 32, i32 0, i32 1, i32 0, i8* getelementptr inbounds ([5 x i8], [5 x i8]* @load_namestr, i32 0, i32 0)), !llfi_injectfault !6
  %473 = fsub double %fi398, %fi399, !llfi_index !974
  %fi400 = call double @injectFault0(i64 968, double %473, i32 16, i32 0, i32 1, i32 0, i8* getelementptr inbounds ([5 x i8], [5 x i8]* @fsub_namestr, i32 0, i32 0)), !llfi_injectfault !6
  %474 = load [8 x double]*, [8 x double]** %fi76, align 8, !llfi_index !975
  %fi401 = call [8 x double]* @injectFault9(i64 969, [8 x double]* %474, i32 32, i32 0, i32 1, i32 0, i8* getelementptr inbounds ([5 x i8], [5 x i8]* @load_namestr, i32 0, i32 0)), !llfi_injectfault !6
  %475 = getelementptr inbounds [8 x double], [8 x double]* %fi401, i64 2, !llfi_index !976
  %476 = getelementptr inbounds [8 x double], [8 x double]* %475, i64 0, i64 0, !llfi_index !977
  store double %fi400, double* %476, align 8, !llfi_index !978
  %477 = load double, double* %fi117, align 8, !llfi_index !979
  %fi402 = call double @injectFault0(i64 973, double %477, i32 32, i32 0, i32 1, i32 0, i8* getelementptr inbounds ([5 x i8], [5 x i8]* @load_namestr, i32 0, i32 0)), !llfi_injectfault !6
  %478 = load double, double* %fi118, align 8, !llfi_index !980
  %fi403 = call double @injectFault0(i64 974, double %478, i32 32, i32 0, i32 1, i32 0, i8* getelementptr inbounds ([5 x i8], [5 x i8]* @load_namestr, i32 0, i32 0)), !llfi_injectfault !6
  %479 = fsub double %fi402, %fi403, !llfi_index !981
  %fi404 = call double @injectFault0(i64 975, double %479, i32 16, i32 0, i32 1, i32 0, i8* getelementptr inbounds ([5 x i8], [5 x i8]* @fsub_namestr, i32 0, i32 0)), !llfi_injectfault !6
  %480 = load double, double* %fi119, align 8, !llfi_index !982
  %fi405 = call double @injectFault0(i64 976, double %480, i32 32, i32 0, i32 1, i32 0, i8* getelementptr inbounds ([5 x i8], [5 x i8]* @load_namestr, i32 0, i32 0)), !llfi_injectfault !6
  %481 = fsub double %fi404, %fi405, !llfi_index !983
  %fi406 = call double @injectFault0(i64 977, double %481, i32 16, i32 0, i32 1, i32 0, i8* getelementptr inbounds ([5 x i8], [5 x i8]* @fsub_namestr, i32 0, i32 0)), !llfi_injectfault !6
  %482 = load [8 x double]*, [8 x double]** %fi76, align 8, !llfi_index !984
  %fi407 = call [8 x double]* @injectFault9(i64 978, [8 x double]* %482, i32 32, i32 0, i32 1, i32 0, i8* getelementptr inbounds ([5 x i8], [5 x i8]* @load_namestr, i32 0, i32 0)), !llfi_injectfault !6
  %483 = getelementptr inbounds [8 x double], [8 x double]* %fi407, i64 2, !llfi_index !985
  %484 = getelementptr inbounds [8 x double], [8 x double]* %483, i64 0, i64 1, !llfi_index !986
  store double %fi406, double* %484, align 8, !llfi_index !987
  %485 = load double, double* %fi117, align 8, !llfi_index !988
  %fi408 = call double @injectFault0(i64 982, double %485, i32 32, i32 0, i32 1, i32 0, i8* getelementptr inbounds ([5 x i8], [5 x i8]* @load_namestr, i32 0, i32 0)), !llfi_injectfault !6
  %486 = load double, double* %fi118, align 8, !llfi_index !989
  %fi409 = call double @injectFault0(i64 983, double %486, i32 32, i32 0, i32 1, i32 0, i8* getelementptr inbounds ([5 x i8], [5 x i8]* @load_namestr, i32 0, i32 0)), !llfi_injectfault !6
  %487 = fadd double %fi408, %fi409, !llfi_index !990
  %fi410 = call double @injectFault0(i64 984, double %487, i32 14, i32 0, i32 1, i32 0, i8* getelementptr inbounds ([5 x i8], [5 x i8]* @fadd_namestr, i32 0, i32 0)), !llfi_injectfault !6
  %488 = load double, double* %fi119, align 8, !llfi_index !991
  %fi411 = call double @injectFault0(i64 985, double %488, i32 32, i32 0, i32 1, i32 0, i8* getelementptr inbounds ([5 x i8], [5 x i8]* @load_namestr, i32 0, i32 0)), !llfi_injectfault !6
  %489 = fsub double %fi410, %fi411, !llfi_index !992
  %fi412 = call double @injectFault0(i64 986, double %489, i32 16, i32 0, i32 1, i32 0, i8* getelementptr inbounds ([5 x i8], [5 x i8]* @fsub_namestr, i32 0, i32 0)), !llfi_injectfault !6
  %490 = load [8 x double]*, [8 x double]** %fi76, align 8, !llfi_index !993
  %fi413 = call [8 x double]* @injectFault9(i64 987, [8 x double]* %490, i32 32, i32 0, i32 1, i32 0, i8* getelementptr inbounds ([5 x i8], [5 x i8]* @load_namestr, i32 0, i32 0)), !llfi_injectfault !6
  %491 = getelementptr inbounds [8 x double], [8 x double]* %fi413, i64 2, !llfi_index !994
  %492 = getelementptr inbounds [8 x double], [8 x double]* %491, i64 0, i64 2, !llfi_index !995
  store double %fi412, double* %492, align 8, !llfi_index !996
  %493 = load double, double* %fi117, align 8, !llfi_index !997
  %fi414 = call double @injectFault0(i64 991, double %493, i32 32, i32 0, i32 1, i32 0, i8* getelementptr inbounds ([5 x i8], [5 x i8]* @load_namestr, i32 0, i32 0)), !llfi_injectfault !6
  %494 = fneg double %fi414, !llfi_index !998
  %fi415 = call double @injectFault0(i64 992, double %494, i32 12, i32 0, i32 1, i32 0, i8* getelementptr inbounds ([5 x i8], [5 x i8]* @fneg_namestr, i32 0, i32 0)), !llfi_injectfault !6
  %495 = load double, double* %fi118, align 8, !llfi_index !999
  %fi416 = call double @injectFault0(i64 993, double %495, i32 32, i32 0, i32 1, i32 0, i8* getelementptr inbounds ([5 x i8], [5 x i8]* @load_namestr, i32 0, i32 0)), !llfi_injectfault !6
  %496 = fadd double %fi415, %fi416, !llfi_index !1000
  %fi417 = call double @injectFault0(i64 994, double %496, i32 14, i32 0, i32 1, i32 0, i8* getelementptr inbounds ([5 x i8], [5 x i8]* @fadd_namestr, i32 0, i32 0)), !llfi_injectfault !6
  %497 = load double, double* %fi119, align 8, !llfi_index !1001
  %fi418 = call double @injectFault0(i64 995, double %497, i32 32, i32 0, i32 1, i32 0, i8* getelementptr inbounds ([5 x i8], [5 x i8]* @load_namestr, i32 0, i32 0)), !llfi_injectfault !6
  %498 = fsub double %fi417, %fi418, !llfi_index !1002
  %fi419 = call double @injectFault0(i64 996, double %498, i32 16, i32 0, i32 1, i32 0, i8* getelementptr inbounds ([5 x i8], [5 x i8]* @fsub_namestr, i32 0, i32 0)), !llfi_injectfault !6
  %499 = load [8 x double]*, [8 x double]** %fi76, align 8, !llfi_index !1003
  %fi420 = call [8 x double]* @injectFault9(i64 997, [8 x double]* %499, i32 32, i32 0, i32 1, i32 0, i8* getelementptr inbounds ([5 x i8], [5 x i8]* @load_namestr, i32 0, i32 0)), !llfi_injectfault !6
  %500 = getelementptr inbounds [8 x double], [8 x double]* %fi420, i64 2, !llfi_index !1004
  %501 = getelementptr inbounds [8 x double], [8 x double]* %500, i64 0, i64 3, !llfi_index !1005
  store double %fi419, double* %501, align 8, !llfi_index !1006
  %502 = load [8 x double]*, [8 x double]** %fi76, align 8, !llfi_index !1007
  %fi421 = call [8 x double]* @injectFault9(i64 1001, [8 x double]* %502, i32 32, i32 0, i32 1, i32 0, i8* getelementptr inbounds ([5 x i8], [5 x i8]* @load_namestr, i32 0, i32 0)), !llfi_injectfault !6
  %503 = getelementptr inbounds [8 x double], [8 x double]* %fi421, i64 2, !llfi_index !1008
  %504 = getelementptr inbounds [8 x double], [8 x double]* %503, i64 0, i64 2, !llfi_index !1009
  %505 = load double, double* %504, align 8, !llfi_index !1010
  %fi422 = call double @injectFault0(i64 1004, double %505, i32 32, i32 0, i32 1, i32 0, i8* getelementptr inbounds ([5 x i8], [5 x i8]* @load_namestr, i32 0, i32 0)), !llfi_injectfault !6
  %506 = fneg double %fi422, !llfi_index !1011
  %fi423 = call double @injectFault0(i64 1005, double %506, i32 12, i32 0, i32 1, i32 0, i8* getelementptr inbounds ([5 x i8], [5 x i8]* @fneg_namestr, i32 0, i32 0)), !llfi_injectfault !6
  %507 = load [8 x double]*, [8 x double]** %fi76, align 8, !llfi_index !1012
  %fi424 = call [8 x double]* @injectFault9(i64 1006, [8 x double]* %507, i32 32, i32 0, i32 1, i32 0, i8* getelementptr inbounds ([5 x i8], [5 x i8]* @load_namestr, i32 0, i32 0)), !llfi_injectfault !6
  %508 = getelementptr inbounds [8 x double], [8 x double]* %fi424, i64 2, !llfi_index !1013
  %509 = getelementptr inbounds [8 x double], [8 x double]* %508, i64 0, i64 4, !llfi_index !1014
  store double %fi423, double* %509, align 8, !llfi_index !1015
  %510 = load [8 x double]*, [8 x double]** %fi76, align 8, !llfi_index !1016
  %fi425 = call [8 x double]* @injectFault9(i64 1010, [8 x double]* %510, i32 32, i32 0, i32 1, i32 0, i8* getelementptr inbounds ([5 x i8], [5 x i8]* @load_namestr, i32 0, i32 0)), !llfi_injectfault !6
  %511 = getelementptr inbounds [8 x double], [8 x double]* %fi425, i64 2, !llfi_index !1017
  %512 = getelementptr inbounds [8 x double], [8 x double]* %511, i64 0, i64 3, !llfi_index !1018
  %513 = load double, double* %512, align 8, !llfi_index !1019
  %fi305 = call double @injectFault0(i64 1013, double %513, i32 32, i32 0, i32 1, i32 0, i8* getelementptr inbounds ([5 x i8], [5 x i8]* @load_namestr, i32 0, i32 0)), !llfi_injectfault !6
  %514 = fneg double %fi305, !llfi_index !1020
  %fi306 = call double @injectFault0(i64 1014, double %514, i32 12, i32 0, i32 1, i32 0, i8* getelementptr inbounds ([5 x i8], [5 x i8]* @fneg_namestr, i32 0, i32 0)), !llfi_injectfault !6
  %515 = load [8 x double]*, [8 x double]** %fi76, align 8, !llfi_index !1021
  %fi307 = call [8 x double]* @injectFault9(i64 1015, [8 x double]* %515, i32 32, i32 0, i32 1, i32 0, i8* getelementptr inbounds ([5 x i8], [5 x i8]* @load_namestr, i32 0, i32 0)), !llfi_injectfault !6
  %516 = getelementptr inbounds [8 x double], [8 x double]* %fi307, i64 2, !llfi_index !1022
  %517 = getelementptr inbounds [8 x double], [8 x double]* %516, i64 0, i64 5, !llfi_index !1023
  store double %fi306, double* %517, align 8, !llfi_index !1024
  %518 = load [8 x double]*, [8 x double]** %fi76, align 8, !llfi_index !1025
  %fi308 = call [8 x double]* @injectFault9(i64 1019, [8 x double]* %518, i32 32, i32 0, i32 1, i32 0, i8* getelementptr inbounds ([5 x i8], [5 x i8]* @load_namestr, i32 0, i32 0)), !llfi_injectfault !6
  %519 = getelementptr inbounds [8 x double], [8 x double]* %fi308, i64 2, !llfi_index !1026
  %520 = getelementptr inbounds [8 x double], [8 x double]* %519, i64 0, i64 0, !llfi_index !1027
  %521 = load double, double* %520, align 8, !llfi_index !1028
  %fi309 = call double @injectFault0(i64 1022, double %521, i32 32, i32 0, i32 1, i32 0, i8* getelementptr inbounds ([5 x i8], [5 x i8]* @load_namestr, i32 0, i32 0)), !llfi_injectfault !6
  %522 = fneg double %fi309, !llfi_index !1029
  %fi426 = call double @injectFault0(i64 1023, double %522, i32 12, i32 0, i32 1, i32 0, i8* getelementptr inbounds ([5 x i8], [5 x i8]* @fneg_namestr, i32 0, i32 0)), !llfi_injectfault !6
  %523 = load [8 x double]*, [8 x double]** %fi76, align 8, !llfi_index !1030
  %fi427 = call [8 x double]* @injectFault9(i64 1024, [8 x double]* %523, i32 32, i32 0, i32 1, i32 0, i8* getelementptr inbounds ([5 x i8], [5 x i8]* @load_namestr, i32 0, i32 0)), !llfi_injectfault !6
  %524 = getelementptr inbounds [8 x double], [8 x double]* %fi427, i64 2, !llfi_index !1031
  %525 = getelementptr inbounds [8 x double], [8 x double]* %524, i64 0, i64 6, !llfi_index !1032
  store double %fi426, double* %525, align 8, !llfi_index !1033
  %526 = load [8 x double]*, [8 x double]** %fi76, align 8, !llfi_index !1034
  %fi428 = call [8 x double]* @injectFault9(i64 1028, [8 x double]* %526, i32 32, i32 0, i32 1, i32 0, i8* getelementptr inbounds ([5 x i8], [5 x i8]* @load_namestr, i32 0, i32 0)), !llfi_injectfault !6
  %527 = getelementptr inbounds [8 x double], [8 x double]* %fi428, i64 2, !llfi_index !1035
  %528 = getelementptr inbounds [8 x double], [8 x double]* %527, i64 0, i64 1, !llfi_index !1036
  %529 = load double, double* %528, align 8, !llfi_index !1037
  %fi429 = call double @injectFault0(i64 1031, double %529, i32 32, i32 0, i32 1, i32 0, i8* getelementptr inbounds ([5 x i8], [5 x i8]* @load_namestr, i32 0, i32 0)), !llfi_injectfault !6
  %530 = fneg double %fi429, !llfi_index !1038
  %fi430 = call double @injectFault0(i64 1032, double %530, i32 12, i32 0, i32 1, i32 0, i8* getelementptr inbounds ([5 x i8], [5 x i8]* @fneg_namestr, i32 0, i32 0)), !llfi_injectfault !6
  %531 = load [8 x double]*, [8 x double]** %fi76, align 8, !llfi_index !1039
  %fi431 = call [8 x double]* @injectFault9(i64 1033, [8 x double]* %531, i32 32, i32 0, i32 1, i32 0, i8* getelementptr inbounds ([5 x i8], [5 x i8]* @load_namestr, i32 0, i32 0)), !llfi_injectfault !6
  %532 = getelementptr inbounds [8 x double], [8 x double]* %fi431, i64 2, !llfi_index !1040
  %533 = getelementptr inbounds [8 x double], [8 x double]* %532, i64 0, i64 7, !llfi_index !1041
  store double %fi430, double* %533, align 8, !llfi_index !1042
  %534 = load double, double* %fi103, align 8, !llfi_index !1043
  %fi432 = call double @injectFault0(i64 1037, double %534, i32 32, i32 0, i32 1, i32 0, i8* getelementptr inbounds ([5 x i8], [5 x i8]* @load_namestr, i32 0, i32 0)), !llfi_injectfault !6
  %535 = load double, double* %fi112, align 8, !llfi_index !1044
  %fi433 = call double @injectFault0(i64 1038, double %535, i32 32, i32 0, i32 1, i32 0, i8* getelementptr inbounds ([5 x i8], [5 x i8]* @load_namestr, i32 0, i32 0)), !llfi_injectfault !6
  %536 = fmul double %fi432, %fi433, !llfi_index !1045
  %fi434 = call double @injectFault0(i64 1039, double %536, i32 18, i32 0, i32 1, i32 0, i8* getelementptr inbounds ([5 x i8], [5 x i8]* @fmul_namestr, i32 0, i32 0)), !llfi_injectfault !6
  %537 = load double, double* %fi106, align 8, !llfi_index !1046
  %fi435 = call double @injectFault0(i64 1040, double %537, i32 32, i32 0, i32 1, i32 0, i8* getelementptr inbounds ([5 x i8], [5 x i8]* @load_namestr, i32 0, i32 0)), !llfi_injectfault !6
  %538 = load double, double* %fi115, align 8, !llfi_index !1047
  %fi436 = call double @injectFault0(i64 1041, double %538, i32 32, i32 0, i32 1, i32 0, i8* getelementptr inbounds ([5 x i8], [5 x i8]* @load_namestr, i32 0, i32 0)), !llfi_injectfault !6
  %539 = fmul double %fi435, %fi436, !llfi_index !1048
  %fi437 = call double @injectFault0(i64 1042, double %539, i32 18, i32 0, i32 1, i32 0, i8* getelementptr inbounds ([5 x i8], [5 x i8]* @fmul_namestr, i32 0, i32 0)), !llfi_injectfault !6
  %540 = fadd double %fi434, %fi437, !llfi_index !1049
  %fi438 = call double @injectFault0(i64 1043, double %540, i32 14, i32 0, i32 1, i32 0, i8* getelementptr inbounds ([5 x i8], [5 x i8]* @fadd_namestr, i32 0, i32 0)), !llfi_injectfault !6
  %541 = load double, double* %fi109, align 8, !llfi_index !1050
  %fi439 = call double @injectFault0(i64 1044, double %541, i32 32, i32 0, i32 1, i32 0, i8* getelementptr inbounds ([5 x i8], [5 x i8]* @load_namestr, i32 0, i32 0)), !llfi_injectfault !6
  %542 = load double, double* %fi118, align 8, !llfi_index !1051
  %fi440 = call double @injectFault0(i64 1045, double %542, i32 32, i32 0, i32 1, i32 0, i8* getelementptr inbounds ([5 x i8], [5 x i8]* @load_namestr, i32 0, i32 0)), !llfi_injectfault !6
  %543 = fmul double %fi439, %fi440, !llfi_index !1052
  %fi441 = call double @injectFault0(i64 1046, double %543, i32 18, i32 0, i32 1, i32 0, i8* getelementptr inbounds ([5 x i8], [5 x i8]* @fmul_namestr, i32 0, i32 0)), !llfi_injectfault !6
  %544 = fadd double %fi438, %fi441, !llfi_index !1053
  %fi442 = call double @injectFault0(i64 1047, double %544, i32 14, i32 0, i32 1, i32 0, i8* getelementptr inbounds ([5 x i8], [5 x i8]* @fadd_namestr, i32 0, i32 0)), !llfi_injectfault !6
  %545 = fmul double 8.000000e+00, %fi442, !llfi_index !1054
  %fi443 = call double @injectFault0(i64 1048, double %545, i32 18, i32 0, i32 1, i32 0, i8* getelementptr inbounds ([5 x i8], [5 x i8]* @fmul_namestr, i32 0, i32 0)), !llfi_injectfault !6
  %546 = load double*, double** %fi77, align 8, !llfi_index !1055
  %fi444 = call double* @injectFault5(i64 1049, double* %546, i32 32, i32 0, i32 1, i32 0, i8* getelementptr inbounds ([5 x i8], [5 x i8]* @load_namestr, i32 0, i32 0)), !llfi_injectfault !6
  store double %fi443, double* %fi444, align 8, !llfi_index !1056
  ret void, !llfi_index !1057
}

; Function Attrs: mustprogress noinline nounwind uwtable
define dso_local void @_Z17SumElemFaceNormalPdS_S_S_S_S_S_S_S_S_S_S_dddddddddddd(double* %0, double* %1, double* %2, double* %3, double* %4, double* %5, double* %6, double* %7, double* %8, double* %9, double* %10, double* %11, double %12, double %13, double %14, double %15, double %16, double %17, double %18, double %19, double %20, double %21, double %22, double %23) #4 {
  %25 = alloca double*, align 8, !llfi_index !1058
  %fi = call double** @injectFault8(i64 1052, double** %25, i32 31, i32 0, i32 1, i32 0, i8* getelementptr inbounds ([7 x i8], [7 x i8]* @alloca_namestr, i32 0, i32 0)), !llfi_injectfault !6
  %26 = alloca double*, align 8, !llfi_index !1059
  %fi1 = call double** @injectFault8(i64 1053, double** %26, i32 31, i32 0, i32 1, i32 0, i8* getelementptr inbounds ([7 x i8], [7 x i8]* @alloca_namestr, i32 0, i32 0)), !llfi_injectfault !6
  %27 = alloca double*, align 8, !llfi_index !1060
  %fi2 = call double** @injectFault8(i64 1054, double** %27, i32 31, i32 0, i32 1, i32 0, i8* getelementptr inbounds ([7 x i8], [7 x i8]* @alloca_namestr, i32 0, i32 0)), !llfi_injectfault !6
  %28 = alloca double*, align 8, !llfi_index !1061
  %fi3 = call double** @injectFault8(i64 1055, double** %28, i32 31, i32 0, i32 1, i32 0, i8* getelementptr inbounds ([7 x i8], [7 x i8]* @alloca_namestr, i32 0, i32 0)), !llfi_injectfault !6
  %29 = alloca double*, align 8, !llfi_index !1062
  %fi4 = call double** @injectFault8(i64 1056, double** %29, i32 31, i32 0, i32 1, i32 0, i8* getelementptr inbounds ([7 x i8], [7 x i8]* @alloca_namestr, i32 0, i32 0)), !llfi_injectfault !6
  %30 = alloca double*, align 8, !llfi_index !1063
  %fi5 = call double** @injectFault8(i64 1057, double** %30, i32 31, i32 0, i32 1, i32 0, i8* getelementptr inbounds ([7 x i8], [7 x i8]* @alloca_namestr, i32 0, i32 0)), !llfi_injectfault !6
  %31 = alloca double*, align 8, !llfi_index !1064
  %fi6 = call double** @injectFault8(i64 1058, double** %31, i32 31, i32 0, i32 1, i32 0, i8* getelementptr inbounds ([7 x i8], [7 x i8]* @alloca_namestr, i32 0, i32 0)), !llfi_injectfault !6
  %32 = alloca double*, align 8, !llfi_index !1065
  %fi7 = call double** @injectFault8(i64 1059, double** %32, i32 31, i32 0, i32 1, i32 0, i8* getelementptr inbounds ([7 x i8], [7 x i8]* @alloca_namestr, i32 0, i32 0)), !llfi_injectfault !6
  %33 = alloca double*, align 8, !llfi_index !1066
  %fi8 = call double** @injectFault8(i64 1060, double** %33, i32 31, i32 0, i32 1, i32 0, i8* getelementptr inbounds ([7 x i8], [7 x i8]* @alloca_namestr, i32 0, i32 0)), !llfi_injectfault !6
  %34 = alloca double*, align 8, !llfi_index !1067
  %fi9 = call double** @injectFault8(i64 1061, double** %34, i32 31, i32 0, i32 1, i32 0, i8* getelementptr inbounds ([7 x i8], [7 x i8]* @alloca_namestr, i32 0, i32 0)), !llfi_injectfault !6
  %35 = alloca double*, align 8, !llfi_index !1068
  %fi10 = call double** @injectFault8(i64 1062, double** %35, i32 31, i32 0, i32 1, i32 0, i8* getelementptr inbounds ([7 x i8], [7 x i8]* @alloca_namestr, i32 0, i32 0)), !llfi_injectfault !6
  %36 = alloca double*, align 8, !llfi_index !1069
  %fi11 = call double** @injectFault8(i64 1063, double** %36, i32 31, i32 0, i32 1, i32 0, i8* getelementptr inbounds ([7 x i8], [7 x i8]* @alloca_namestr, i32 0, i32 0)), !llfi_injectfault !6
  %37 = alloca double, align 8, !llfi_index !1070
  %fi12 = call double* @injectFault5(i64 1064, double* %37, i32 31, i32 0, i32 1, i32 0, i8* getelementptr inbounds ([7 x i8], [7 x i8]* @alloca_namestr, i32 0, i32 0)), !llfi_injectfault !6
  %38 = alloca double, align 8, !llfi_index !1071
  %fi13 = call double* @injectFault5(i64 1065, double* %38, i32 31, i32 0, i32 1, i32 0, i8* getelementptr inbounds ([7 x i8], [7 x i8]* @alloca_namestr, i32 0, i32 0)), !llfi_injectfault !6
  %39 = alloca double, align 8, !llfi_index !1072
  %fi14 = call double* @injectFault5(i64 1066, double* %39, i32 31, i32 0, i32 1, i32 0, i8* getelementptr inbounds ([7 x i8], [7 x i8]* @alloca_namestr, i32 0, i32 0)), !llfi_injectfault !6
  %40 = alloca double, align 8, !llfi_index !1073
  %fi15 = call double* @injectFault5(i64 1067, double* %40, i32 31, i32 0, i32 1, i32 0, i8* getelementptr inbounds ([7 x i8], [7 x i8]* @alloca_namestr, i32 0, i32 0)), !llfi_injectfault !6
  %41 = alloca double, align 8, !llfi_index !1074
  %fi16 = call double* @injectFault5(i64 1068, double* %41, i32 31, i32 0, i32 1, i32 0, i8* getelementptr inbounds ([7 x i8], [7 x i8]* @alloca_namestr, i32 0, i32 0)), !llfi_injectfault !6
  %42 = alloca double, align 8, !llfi_index !1075
  %fi17 = call double* @injectFault5(i64 1069, double* %42, i32 31, i32 0, i32 1, i32 0, i8* getelementptr inbounds ([7 x i8], [7 x i8]* @alloca_namestr, i32 0, i32 0)), !llfi_injectfault !6
  %43 = alloca double, align 8, !llfi_index !1076
  %fi18 = call double* @injectFault5(i64 1070, double* %43, i32 31, i32 0, i32 1, i32 0, i8* getelementptr inbounds ([7 x i8], [7 x i8]* @alloca_namestr, i32 0, i32 0)), !llfi_injectfault !6
  %44 = alloca double, align 8, !llfi_index !1077
  %fi19 = call double* @injectFault5(i64 1071, double* %44, i32 31, i32 0, i32 1, i32 0, i8* getelementptr inbounds ([7 x i8], [7 x i8]* @alloca_namestr, i32 0, i32 0)), !llfi_injectfault !6
  %45 = alloca double, align 8, !llfi_index !1078
  %fi20 = call double* @injectFault5(i64 1072, double* %45, i32 31, i32 0, i32 1, i32 0, i8* getelementptr inbounds ([7 x i8], [7 x i8]* @alloca_namestr, i32 0, i32 0)), !llfi_injectfault !6
  %46 = alloca double, align 8, !llfi_index !1079
  %fi21 = call double* @injectFault5(i64 1073, double* %46, i32 31, i32 0, i32 1, i32 0, i8* getelementptr inbounds ([7 x i8], [7 x i8]* @alloca_namestr, i32 0, i32 0)), !llfi_injectfault !6
  %47 = alloca double, align 8, !llfi_index !1080
  %fi22 = call double* @injectFault5(i64 1074, double* %47, i32 31, i32 0, i32 1, i32 0, i8* getelementptr inbounds ([7 x i8], [7 x i8]* @alloca_namestr, i32 0, i32 0)), !llfi_injectfault !6
  %48 = alloca double, align 8, !llfi_index !1081
  %fi23 = call double* @injectFault5(i64 1075, double* %48, i32 31, i32 0, i32 1, i32 0, i8* getelementptr inbounds ([7 x i8], [7 x i8]* @alloca_namestr, i32 0, i32 0)), !llfi_injectfault !6
  %49 = alloca double, align 8, !llfi_index !1082
  %fi24 = call double* @injectFault5(i64 1076, double* %49, i32 31, i32 0, i32 1, i32 0, i8* getelementptr inbounds ([7 x i8], [7 x i8]* @alloca_namestr, i32 0, i32 0)), !llfi_injectfault !6
  %50 = alloca double, align 8, !llfi_index !1083
  %fi25 = call double* @injectFault5(i64 1077, double* %50, i32 31, i32 0, i32 1, i32 0, i8* getelementptr inbounds ([7 x i8], [7 x i8]* @alloca_namestr, i32 0, i32 0)), !llfi_injectfault !6
  %51 = alloca double, align 8, !llfi_index !1084
  %fi26 = call double* @injectFault5(i64 1078, double* %51, i32 31, i32 0, i32 1, i32 0, i8* getelementptr inbounds ([7 x i8], [7 x i8]* @alloca_namestr, i32 0, i32 0)), !llfi_injectfault !6
  %52 = alloca double, align 8, !llfi_index !1085
  %fi27 = call double* @injectFault5(i64 1079, double* %52, i32 31, i32 0, i32 1, i32 0, i8* getelementptr inbounds ([7 x i8], [7 x i8]* @alloca_namestr, i32 0, i32 0)), !llfi_injectfault !6
  %53 = alloca double, align 8, !llfi_index !1086
  %fi28 = call double* @injectFault5(i64 1080, double* %53, i32 31, i32 0, i32 1, i32 0, i8* getelementptr inbounds ([7 x i8], [7 x i8]* @alloca_namestr, i32 0, i32 0)), !llfi_injectfault !6
  %54 = alloca double, align 8, !llfi_index !1087
  %fi29 = call double* @injectFault5(i64 1081, double* %54, i32 31, i32 0, i32 1, i32 0, i8* getelementptr inbounds ([7 x i8], [7 x i8]* @alloca_namestr, i32 0, i32 0)), !llfi_injectfault !6
  %55 = alloca double, align 8, !llfi_index !1088
  %fi30 = call double* @injectFault5(i64 1082, double* %55, i32 31, i32 0, i32 1, i32 0, i8* getelementptr inbounds ([7 x i8], [7 x i8]* @alloca_namestr, i32 0, i32 0)), !llfi_injectfault !6
  %56 = alloca double, align 8, !llfi_index !1089
  %fi31 = call double* @injectFault5(i64 1083, double* %56, i32 31, i32 0, i32 1, i32 0, i8* getelementptr inbounds ([7 x i8], [7 x i8]* @alloca_namestr, i32 0, i32 0)), !llfi_injectfault !6
  %57 = alloca double, align 8, !llfi_index !1090
  %fi32 = call double* @injectFault5(i64 1084, double* %57, i32 31, i32 0, i32 1, i32 0, i8* getelementptr inbounds ([7 x i8], [7 x i8]* @alloca_namestr, i32 0, i32 0)), !llfi_injectfault !6
  store double* %0, double** %fi, align 8, !llfi_index !1091
  store double* %1, double** %fi1, align 8, !llfi_index !1092
  store double* %2, double** %fi2, align 8, !llfi_index !1093
  store double* %3, double** %fi3, align 8, !llfi_index !1094
  store double* %4, double** %fi4, align 8, !llfi_index !1095
  store double* %5, double** %fi5, align 8, !llfi_index !1096
  store double* %6, double** %fi6, align 8, !llfi_index !1097
  store double* %7, double** %fi7, align 8, !llfi_index !1098
  store double* %8, double** %fi8, align 8, !llfi_index !1099
  store double* %9, double** %fi9, align 8, !llfi_index !1100
  store double* %10, double** %fi10, align 8, !llfi_index !1101
  store double* %11, double** %fi11, align 8, !llfi_index !1102
  store double %12, double* %fi12, align 8, !llfi_index !1103
  store double %13, double* %fi13, align 8, !llfi_index !1104
  store double %14, double* %fi14, align 8, !llfi_index !1105
  store double %15, double* %fi15, align 8, !llfi_index !1106
  store double %16, double* %fi16, align 8, !llfi_index !1107
  store double %17, double* %fi17, align 8, !llfi_index !1108
  store double %18, double* %fi18, align 8, !llfi_index !1109
  store double %19, double* %fi19, align 8, !llfi_index !1110
  store double %20, double* %fi20, align 8, !llfi_index !1111
  store double %21, double* %fi21, align 8, !llfi_index !1112
  store double %22, double* %fi22, align 8, !llfi_index !1113
  store double %23, double* %fi23, align 8, !llfi_index !1114
  %58 = load double, double* %fi21, align 8, !llfi_index !1115
  %fi33 = call double @injectFault0(i64 1109, double %58, i32 32, i32 0, i32 1, i32 0, i8* getelementptr inbounds ([5 x i8], [5 x i8]* @load_namestr, i32 0, i32 0)), !llfi_injectfault !6
  %59 = load double, double* %fi18, align 8, !llfi_index !1116
  %fi34 = call double @injectFault0(i64 1110, double %59, i32 32, i32 0, i32 1, i32 0, i8* getelementptr inbounds ([5 x i8], [5 x i8]* @load_namestr, i32 0, i32 0)), !llfi_injectfault !6
  %60 = fadd double %fi33, %fi34, !llfi_index !1117
  %fi35 = call double @injectFault0(i64 1111, double %60, i32 14, i32 0, i32 1, i32 0, i8* getelementptr inbounds ([5 x i8], [5 x i8]* @fadd_namestr, i32 0, i32 0)), !llfi_injectfault !6
  %61 = load double, double* %fi15, align 8, !llfi_index !1118
  %fi36 = call double @injectFault0(i64 1112, double %61, i32 32, i32 0, i32 1, i32 0, i8* getelementptr inbounds ([5 x i8], [5 x i8]* @load_namestr, i32 0, i32 0)), !llfi_injectfault !6
  %62 = fsub double %fi35, %fi36, !llfi_index !1119
  %fi37 = call double @injectFault0(i64 1113, double %62, i32 16, i32 0, i32 1, i32 0, i8* getelementptr inbounds ([5 x i8], [5 x i8]* @fsub_namestr, i32 0, i32 0)), !llfi_injectfault !6
  %63 = load double, double* %fi12, align 8, !llfi_index !1120
  %fi38 = call double @injectFault0(i64 1114, double %63, i32 32, i32 0, i32 1, i32 0, i8* getelementptr inbounds ([5 x i8], [5 x i8]* @load_namestr, i32 0, i32 0)), !llfi_injectfault !6
  %64 = fsub double %fi37, %fi38, !llfi_index !1121
  %fi39 = call double @injectFault0(i64 1115, double %64, i32 16, i32 0, i32 1, i32 0, i8* getelementptr inbounds ([5 x i8], [5 x i8]* @fsub_namestr, i32 0, i32 0)), !llfi_injectfault !6
  %65 = fmul double 5.000000e-01, %fi39, !llfi_index !1122
  %fi40 = call double @injectFault0(i64 1116, double %65, i32 18, i32 0, i32 1, i32 0, i8* getelementptr inbounds ([5 x i8], [5 x i8]* @fmul_namestr, i32 0, i32 0)), !llfi_injectfault !6
  store double %fi40, double* %fi24, align 8, !llfi_index !1123
  %66 = load double, double* %fi22, align 8, !llfi_index !1124
  %fi41 = call double @injectFault0(i64 1118, double %66, i32 32, i32 0, i32 1, i32 0, i8* getelementptr inbounds ([5 x i8], [5 x i8]* @load_namestr, i32 0, i32 0)), !llfi_injectfault !6
  %67 = load double, double* %fi19, align 8, !llfi_index !1125
  %fi42 = call double @injectFault0(i64 1119, double %67, i32 32, i32 0, i32 1, i32 0, i8* getelementptr inbounds ([5 x i8], [5 x i8]* @load_namestr, i32 0, i32 0)), !llfi_injectfault !6
  %68 = fadd double %fi41, %fi42, !llfi_index !1126
  %fi43 = call double @injectFault0(i64 1120, double %68, i32 14, i32 0, i32 1, i32 0, i8* getelementptr inbounds ([5 x i8], [5 x i8]* @fadd_namestr, i32 0, i32 0)), !llfi_injectfault !6
  %69 = load double, double* %fi16, align 8, !llfi_index !1127
  %fi44 = call double @injectFault0(i64 1121, double %69, i32 32, i32 0, i32 1, i32 0, i8* getelementptr inbounds ([5 x i8], [5 x i8]* @load_namestr, i32 0, i32 0)), !llfi_injectfault !6
  %70 = fsub double %fi43, %fi44, !llfi_index !1128
  %fi45 = call double @injectFault0(i64 1122, double %70, i32 16, i32 0, i32 1, i32 0, i8* getelementptr inbounds ([5 x i8], [5 x i8]* @fsub_namestr, i32 0, i32 0)), !llfi_injectfault !6
  %71 = load double, double* %fi13, align 8, !llfi_index !1129
  %fi46 = call double @injectFault0(i64 1123, double %71, i32 32, i32 0, i32 1, i32 0, i8* getelementptr inbounds ([5 x i8], [5 x i8]* @load_namestr, i32 0, i32 0)), !llfi_injectfault !6
  %72 = fsub double %fi45, %fi46, !llfi_index !1130
  %fi47 = call double @injectFault0(i64 1124, double %72, i32 16, i32 0, i32 1, i32 0, i8* getelementptr inbounds ([5 x i8], [5 x i8]* @fsub_namestr, i32 0, i32 0)), !llfi_injectfault !6
  %73 = fmul double 5.000000e-01, %fi47, !llfi_index !1131
  %fi48 = call double @injectFault0(i64 1125, double %73, i32 18, i32 0, i32 1, i32 0, i8* getelementptr inbounds ([5 x i8], [5 x i8]* @fmul_namestr, i32 0, i32 0)), !llfi_injectfault !6
  store double %fi48, double* %fi25, align 8, !llfi_index !1132
  %74 = load double, double* %fi23, align 8, !llfi_index !1133
  %fi49 = call double @injectFault0(i64 1127, double %74, i32 32, i32 0, i32 1, i32 0, i8* getelementptr inbounds ([5 x i8], [5 x i8]* @load_namestr, i32 0, i32 0)), !llfi_injectfault !6
  %75 = load double, double* %fi20, align 8, !llfi_index !1134
  %fi50 = call double @injectFault0(i64 1128, double %75, i32 32, i32 0, i32 1, i32 0, i8* getelementptr inbounds ([5 x i8], [5 x i8]* @load_namestr, i32 0, i32 0)), !llfi_injectfault !6
  %76 = fadd double %fi49, %fi50, !llfi_index !1135
  %fi51 = call double @injectFault0(i64 1129, double %76, i32 14, i32 0, i32 1, i32 0, i8* getelementptr inbounds ([5 x i8], [5 x i8]* @fadd_namestr, i32 0, i32 0)), !llfi_injectfault !6
  %77 = load double, double* %fi17, align 8, !llfi_index !1136
  %fi52 = call double @injectFault0(i64 1130, double %77, i32 32, i32 0, i32 1, i32 0, i8* getelementptr inbounds ([5 x i8], [5 x i8]* @load_namestr, i32 0, i32 0)), !llfi_injectfault !6
  %78 = fsub double %fi51, %fi52, !llfi_index !1137
  %fi53 = call double @injectFault0(i64 1131, double %78, i32 16, i32 0, i32 1, i32 0, i8* getelementptr inbounds ([5 x i8], [5 x i8]* @fsub_namestr, i32 0, i32 0)), !llfi_injectfault !6
  %79 = load double, double* %fi14, align 8, !llfi_index !1138
  %fi54 = call double @injectFault0(i64 1132, double %79, i32 32, i32 0, i32 1, i32 0, i8* getelementptr inbounds ([5 x i8], [5 x i8]* @load_namestr, i32 0, i32 0)), !llfi_injectfault !6
  %80 = fsub double %fi53, %fi54, !llfi_index !1139
  %fi55 = call double @injectFault0(i64 1133, double %80, i32 16, i32 0, i32 1, i32 0, i8* getelementptr inbounds ([5 x i8], [5 x i8]* @fsub_namestr, i32 0, i32 0)), !llfi_injectfault !6
  %81 = fmul double 5.000000e-01, %fi55, !llfi_index !1140
  %fi56 = call double @injectFault0(i64 1134, double %81, i32 18, i32 0, i32 1, i32 0, i8* getelementptr inbounds ([5 x i8], [5 x i8]* @fmul_namestr, i32 0, i32 0)), !llfi_injectfault !6
  store double %fi56, double* %fi26, align 8, !llfi_index !1141
  %82 = load double, double* %fi18, align 8, !llfi_index !1142
  %fi57 = call double @injectFault0(i64 1136, double %82, i32 32, i32 0, i32 1, i32 0, i8* getelementptr inbounds ([5 x i8], [5 x i8]* @load_namestr, i32 0, i32 0)), !llfi_injectfault !6
  %83 = load double, double* %fi15, align 8, !llfi_index !1143
  %fi58 = call double @injectFault0(i64 1137, double %83, i32 32, i32 0, i32 1, i32 0, i8* getelementptr inbounds ([5 x i8], [5 x i8]* @load_namestr, i32 0, i32 0)), !llfi_injectfault !6
  %84 = fadd double %fi57, %fi58, !llfi_index !1144
  %fi59 = call double @injectFault0(i64 1138, double %84, i32 14, i32 0, i32 1, i32 0, i8* getelementptr inbounds ([5 x i8], [5 x i8]* @fadd_namestr, i32 0, i32 0)), !llfi_injectfault !6
  %85 = load double, double* %fi21, align 8, !llfi_index !1145
  %fi60 = call double @injectFault0(i64 1139, double %85, i32 32, i32 0, i32 1, i32 0, i8* getelementptr inbounds ([5 x i8], [5 x i8]* @load_namestr, i32 0, i32 0)), !llfi_injectfault !6
  %86 = fsub double %fi59, %fi60, !llfi_index !1146
  %fi61 = call double @injectFault0(i64 1140, double %86, i32 16, i32 0, i32 1, i32 0, i8* getelementptr inbounds ([5 x i8], [5 x i8]* @fsub_namestr, i32 0, i32 0)), !llfi_injectfault !6
  %87 = load double, double* %fi12, align 8, !llfi_index !1147
  %fi62 = call double @injectFault0(i64 1141, double %87, i32 32, i32 0, i32 1, i32 0, i8* getelementptr inbounds ([5 x i8], [5 x i8]* @load_namestr, i32 0, i32 0)), !llfi_injectfault !6
  %88 = fsub double %fi61, %fi62, !llfi_index !1148
  %fi63 = call double @injectFault0(i64 1142, double %88, i32 16, i32 0, i32 1, i32 0, i8* getelementptr inbounds ([5 x i8], [5 x i8]* @fsub_namestr, i32 0, i32 0)), !llfi_injectfault !6
  %89 = fmul double 5.000000e-01, %fi63, !llfi_index !1149
  %fi64 = call double @injectFault0(i64 1143, double %89, i32 18, i32 0, i32 1, i32 0, i8* getelementptr inbounds ([5 x i8], [5 x i8]* @fmul_namestr, i32 0, i32 0)), !llfi_injectfault !6
  store double %fi64, double* %fi27, align 8, !llfi_index !1150
  %90 = load double, double* %fi19, align 8, !llfi_index !1151
  %fi65 = call double @injectFault0(i64 1145, double %90, i32 32, i32 0, i32 1, i32 0, i8* getelementptr inbounds ([5 x i8], [5 x i8]* @load_namestr, i32 0, i32 0)), !llfi_injectfault !6
  %91 = load double, double* %fi16, align 8, !llfi_index !1152
  %fi66 = call double @injectFault0(i64 1146, double %91, i32 32, i32 0, i32 1, i32 0, i8* getelementptr inbounds ([5 x i8], [5 x i8]* @load_namestr, i32 0, i32 0)), !llfi_injectfault !6
  %92 = fadd double %fi65, %fi66, !llfi_index !1153
  %fi67 = call double @injectFault0(i64 1147, double %92, i32 14, i32 0, i32 1, i32 0, i8* getelementptr inbounds ([5 x i8], [5 x i8]* @fadd_namestr, i32 0, i32 0)), !llfi_injectfault !6
  %93 = load double, double* %fi22, align 8, !llfi_index !1154
  %fi68 = call double @injectFault0(i64 1148, double %93, i32 32, i32 0, i32 1, i32 0, i8* getelementptr inbounds ([5 x i8], [5 x i8]* @load_namestr, i32 0, i32 0)), !llfi_injectfault !6
  %94 = fsub double %fi67, %fi68, !llfi_index !1155
  %fi69 = call double @injectFault0(i64 1149, double %94, i32 16, i32 0, i32 1, i32 0, i8* getelementptr inbounds ([5 x i8], [5 x i8]* @fsub_namestr, i32 0, i32 0)), !llfi_injectfault !6
  %95 = load double, double* %fi13, align 8, !llfi_index !1156
  %fi70 = call double @injectFault0(i64 1150, double %95, i32 32, i32 0, i32 1, i32 0, i8* getelementptr inbounds ([5 x i8], [5 x i8]* @load_namestr, i32 0, i32 0)), !llfi_injectfault !6
  %96 = fsub double %fi69, %fi70, !llfi_index !1157
  %fi71 = call double @injectFault0(i64 1151, double %96, i32 16, i32 0, i32 1, i32 0, i8* getelementptr inbounds ([5 x i8], [5 x i8]* @fsub_namestr, i32 0, i32 0)), !llfi_injectfault !6
  %97 = fmul double 5.000000e-01, %fi71, !llfi_index !1158
  %fi72 = call double @injectFault0(i64 1152, double %97, i32 18, i32 0, i32 1, i32 0, i8* getelementptr inbounds ([5 x i8], [5 x i8]* @fmul_namestr, i32 0, i32 0)), !llfi_injectfault !6
  store double %fi72, double* %fi28, align 8, !llfi_index !1159
  %98 = load double, double* %fi20, align 8, !llfi_index !1160
  %fi73 = call double @injectFault0(i64 1154, double %98, i32 32, i32 0, i32 1, i32 0, i8* getelementptr inbounds ([5 x i8], [5 x i8]* @load_namestr, i32 0, i32 0)), !llfi_injectfault !6
  %99 = load double, double* %fi17, align 8, !llfi_index !1161
  %fi74 = call double @injectFault0(i64 1155, double %99, i32 32, i32 0, i32 1, i32 0, i8* getelementptr inbounds ([5 x i8], [5 x i8]* @load_namestr, i32 0, i32 0)), !llfi_injectfault !6
  %100 = fadd double %fi73, %fi74, !llfi_index !1162
  %fi75 = call double @injectFault0(i64 1156, double %100, i32 14, i32 0, i32 1, i32 0, i8* getelementptr inbounds ([5 x i8], [5 x i8]* @fadd_namestr, i32 0, i32 0)), !llfi_injectfault !6
  %101 = load double, double* %fi23, align 8, !llfi_index !1163
  %fi76 = call double @injectFault0(i64 1157, double %101, i32 32, i32 0, i32 1, i32 0, i8* getelementptr inbounds ([5 x i8], [5 x i8]* @load_namestr, i32 0, i32 0)), !llfi_injectfault !6
  %102 = fsub double %fi75, %fi76, !llfi_index !1164
  %fi77 = call double @injectFault0(i64 1158, double %102, i32 16, i32 0, i32 1, i32 0, i8* getelementptr inbounds ([5 x i8], [5 x i8]* @fsub_namestr, i32 0, i32 0)), !llfi_injectfault !6
  %103 = load double, double* %fi14, align 8, !llfi_index !1165
  %fi78 = call double @injectFault0(i64 1159, double %103, i32 32, i32 0, i32 1, i32 0, i8* getelementptr inbounds ([5 x i8], [5 x i8]* @load_namestr, i32 0, i32 0)), !llfi_injectfault !6
  %104 = fsub double %fi77, %fi78, !llfi_index !1166
  %fi79 = call double @injectFault0(i64 1160, double %104, i32 16, i32 0, i32 1, i32 0, i8* getelementptr inbounds ([5 x i8], [5 x i8]* @fsub_namestr, i32 0, i32 0)), !llfi_injectfault !6
  %105 = fmul double 5.000000e-01, %fi79, !llfi_index !1167
  %fi80 = call double @injectFault0(i64 1161, double %105, i32 18, i32 0, i32 1, i32 0, i8* getelementptr inbounds ([5 x i8], [5 x i8]* @fmul_namestr, i32 0, i32 0)), !llfi_injectfault !6
  store double %fi80, double* %fi29, align 8, !llfi_index !1168
  %106 = load double, double* %fi25, align 8, !llfi_index !1169
  %fi81 = call double @injectFault0(i64 1163, double %106, i32 32, i32 0, i32 1, i32 0, i8* getelementptr inbounds ([5 x i8], [5 x i8]* @load_namestr, i32 0, i32 0)), !llfi_injectfault !6
  %107 = load double, double* %fi29, align 8, !llfi_index !1170
  %fi82 = call double @injectFault0(i64 1164, double %107, i32 32, i32 0, i32 1, i32 0, i8* getelementptr inbounds ([5 x i8], [5 x i8]* @load_namestr, i32 0, i32 0)), !llfi_injectfault !6
  %108 = fmul double %fi81, %fi82, !llfi_index !1171
  %fi83 = call double @injectFault0(i64 1165, double %108, i32 18, i32 0, i32 1, i32 0, i8* getelementptr inbounds ([5 x i8], [5 x i8]* @fmul_namestr, i32 0, i32 0)), !llfi_injectfault !6
  %109 = load double, double* %fi26, align 8, !llfi_index !1172
  %fi84 = call double @injectFault0(i64 1166, double %109, i32 32, i32 0, i32 1, i32 0, i8* getelementptr inbounds ([5 x i8], [5 x i8]* @load_namestr, i32 0, i32 0)), !llfi_injectfault !6
  %110 = load double, double* %fi28, align 8, !llfi_index !1173
  %fi85 = call double @injectFault0(i64 1167, double %110, i32 32, i32 0, i32 1, i32 0, i8* getelementptr inbounds ([5 x i8], [5 x i8]* @load_namestr, i32 0, i32 0)), !llfi_injectfault !6
  %111 = fmul double %fi84, %fi85, !llfi_index !1174
  %fi86 = call double @injectFault0(i64 1168, double %111, i32 18, i32 0, i32 1, i32 0, i8* getelementptr inbounds ([5 x i8], [5 x i8]* @fmul_namestr, i32 0, i32 0)), !llfi_injectfault !6
  %112 = fsub double %fi83, %fi86, !llfi_index !1175
  %fi87 = call double @injectFault0(i64 1169, double %112, i32 16, i32 0, i32 1, i32 0, i8* getelementptr inbounds ([5 x i8], [5 x i8]* @fsub_namestr, i32 0, i32 0)), !llfi_injectfault !6
  %113 = fmul double 2.500000e-01, %fi87, !llfi_index !1176
  %fi88 = call double @injectFault0(i64 1170, double %113, i32 18, i32 0, i32 1, i32 0, i8* getelementptr inbounds ([5 x i8], [5 x i8]* @fmul_namestr, i32 0, i32 0)), !llfi_injectfault !6
  store double %fi88, double* %fi30, align 8, !llfi_index !1177
  %114 = load double, double* %fi26, align 8, !llfi_index !1178
  %fi89 = call double @injectFault0(i64 1172, double %114, i32 32, i32 0, i32 1, i32 0, i8* getelementptr inbounds ([5 x i8], [5 x i8]* @load_namestr, i32 0, i32 0)), !llfi_injectfault !6
  %115 = load double, double* %fi27, align 8, !llfi_index !1179
  %fi90 = call double @injectFault0(i64 1173, double %115, i32 32, i32 0, i32 1, i32 0, i8* getelementptr inbounds ([5 x i8], [5 x i8]* @load_namestr, i32 0, i32 0)), !llfi_injectfault !6
  %116 = fmul double %fi89, %fi90, !llfi_index !1180
  %fi91 = call double @injectFault0(i64 1174, double %116, i32 18, i32 0, i32 1, i32 0, i8* getelementptr inbounds ([5 x i8], [5 x i8]* @fmul_namestr, i32 0, i32 0)), !llfi_injectfault !6
  %117 = load double, double* %fi24, align 8, !llfi_index !1181
  %fi92 = call double @injectFault0(i64 1175, double %117, i32 32, i32 0, i32 1, i32 0, i8* getelementptr inbounds ([5 x i8], [5 x i8]* @load_namestr, i32 0, i32 0)), !llfi_injectfault !6
  %118 = load double, double* %fi29, align 8, !llfi_index !1182
  %fi93 = call double @injectFault0(i64 1176, double %118, i32 32, i32 0, i32 1, i32 0, i8* getelementptr inbounds ([5 x i8], [5 x i8]* @load_namestr, i32 0, i32 0)), !llfi_injectfault !6
  %119 = fmul double %fi92, %fi93, !llfi_index !1183
  %fi94 = call double @injectFault0(i64 1177, double %119, i32 18, i32 0, i32 1, i32 0, i8* getelementptr inbounds ([5 x i8], [5 x i8]* @fmul_namestr, i32 0, i32 0)), !llfi_injectfault !6
  %120 = fsub double %fi91, %fi94, !llfi_index !1184
  %fi95 = call double @injectFault0(i64 1178, double %120, i32 16, i32 0, i32 1, i32 0, i8* getelementptr inbounds ([5 x i8], [5 x i8]* @fsub_namestr, i32 0, i32 0)), !llfi_injectfault !6
  %121 = fmul double 2.500000e-01, %fi95, !llfi_index !1185
  %fi96 = call double @injectFault0(i64 1179, double %121, i32 18, i32 0, i32 1, i32 0, i8* getelementptr inbounds ([5 x i8], [5 x i8]* @fmul_namestr, i32 0, i32 0)), !llfi_injectfault !6
  store double %fi96, double* %fi31, align 8, !llfi_index !1186
  %122 = load double, double* %fi24, align 8, !llfi_index !1187
  %fi97 = call double @injectFault0(i64 1181, double %122, i32 32, i32 0, i32 1, i32 0, i8* getelementptr inbounds ([5 x i8], [5 x i8]* @load_namestr, i32 0, i32 0)), !llfi_injectfault !6
  %123 = load double, double* %fi28, align 8, !llfi_index !1188
  %fi98 = call double @injectFault0(i64 1182, double %123, i32 32, i32 0, i32 1, i32 0, i8* getelementptr inbounds ([5 x i8], [5 x i8]* @load_namestr, i32 0, i32 0)), !llfi_injectfault !6
  %124 = fmul double %fi97, %fi98, !llfi_index !1189
  %fi99 = call double @injectFault0(i64 1183, double %124, i32 18, i32 0, i32 1, i32 0, i8* getelementptr inbounds ([5 x i8], [5 x i8]* @fmul_namestr, i32 0, i32 0)), !llfi_injectfault !6
  %125 = load double, double* %fi25, align 8, !llfi_index !1190
  %fi100 = call double @injectFault0(i64 1184, double %125, i32 32, i32 0, i32 1, i32 0, i8* getelementptr inbounds ([5 x i8], [5 x i8]* @load_namestr, i32 0, i32 0)), !llfi_injectfault !6
  %126 = load double, double* %fi27, align 8, !llfi_index !1191
  %fi101 = call double @injectFault0(i64 1185, double %126, i32 32, i32 0, i32 1, i32 0, i8* getelementptr inbounds ([5 x i8], [5 x i8]* @load_namestr, i32 0, i32 0)), !llfi_injectfault !6
  %127 = fmul double %fi100, %fi101, !llfi_index !1192
  %fi102 = call double @injectFault0(i64 1186, double %127, i32 18, i32 0, i32 1, i32 0, i8* getelementptr inbounds ([5 x i8], [5 x i8]* @fmul_namestr, i32 0, i32 0)), !llfi_injectfault !6
  %128 = fsub double %fi99, %fi102, !llfi_index !1193
  %fi103 = call double @injectFault0(i64 1187, double %128, i32 16, i32 0, i32 1, i32 0, i8* getelementptr inbounds ([5 x i8], [5 x i8]* @fsub_namestr, i32 0, i32 0)), !llfi_injectfault !6
  %129 = fmul double 2.500000e-01, %fi103, !llfi_index !1194
  %fi104 = call double @injectFault0(i64 1188, double %129, i32 18, i32 0, i32 1, i32 0, i8* getelementptr inbounds ([5 x i8], [5 x i8]* @fmul_namestr, i32 0, i32 0)), !llfi_injectfault !6
  store double %fi104, double* %fi32, align 8, !llfi_index !1195
  %130 = load double, double* %fi30, align 8, !llfi_index !1196
  %fi105 = call double @injectFault0(i64 1190, double %130, i32 32, i32 0, i32 1, i32 0, i8* getelementptr inbounds ([5 x i8], [5 x i8]* @load_namestr, i32 0, i32 0)), !llfi_injectfault !6
  %131 = load double*, double** %fi, align 8, !llfi_index !1197
  %fi106 = call double* @injectFault5(i64 1191, double* %131, i32 32, i32 0, i32 1, i32 0, i8* getelementptr inbounds ([5 x i8], [5 x i8]* @load_namestr, i32 0, i32 0)), !llfi_injectfault !6
  %132 = load double, double* %fi106, align 8, !llfi_index !1198
  %fi107 = call double @injectFault0(i64 1192, double %132, i32 32, i32 0, i32 1, i32 0, i8* getelementptr inbounds ([5 x i8], [5 x i8]* @load_namestr, i32 0, i32 0)), !llfi_injectfault !6
  %133 = fadd double %fi107, %fi105, !llfi_index !1199
  %fi108 = call double @injectFault0(i64 1193, double %133, i32 14, i32 0, i32 1, i32 0, i8* getelementptr inbounds ([5 x i8], [5 x i8]* @fadd_namestr, i32 0, i32 0)), !llfi_injectfault !6
  store double %fi108, double* %fi106, align 8, !llfi_index !1200
  %134 = load double, double* %fi30, align 8, !llfi_index !1201
  %fi109 = call double @injectFault0(i64 1195, double %134, i32 32, i32 0, i32 1, i32 0, i8* getelementptr inbounds ([5 x i8], [5 x i8]* @load_namestr, i32 0, i32 0)), !llfi_injectfault !6
  %135 = load double*, double** %fi3, align 8, !llfi_index !1202
  %fi110 = call double* @injectFault5(i64 1196, double* %135, i32 32, i32 0, i32 1, i32 0, i8* getelementptr inbounds ([5 x i8], [5 x i8]* @load_namestr, i32 0, i32 0)), !llfi_injectfault !6
  %136 = load double, double* %fi110, align 8, !llfi_index !1203
  %fi111 = call double @injectFault0(i64 1197, double %136, i32 32, i32 0, i32 1, i32 0, i8* getelementptr inbounds ([5 x i8], [5 x i8]* @load_namestr, i32 0, i32 0)), !llfi_injectfault !6
  %137 = fadd double %fi111, %fi109, !llfi_index !1204
  %fi112 = call double @injectFault0(i64 1198, double %137, i32 14, i32 0, i32 1, i32 0, i8* getelementptr inbounds ([5 x i8], [5 x i8]* @fadd_namestr, i32 0, i32 0)), !llfi_injectfault !6
  store double %fi112, double* %fi110, align 8, !llfi_index !1205
  %138 = load double, double* %fi30, align 8, !llfi_index !1206
  %fi113 = call double @injectFault0(i64 1200, double %138, i32 32, i32 0, i32 1, i32 0, i8* getelementptr inbounds ([5 x i8], [5 x i8]* @load_namestr, i32 0, i32 0)), !llfi_injectfault !6
  %139 = load double*, double** %fi6, align 8, !llfi_index !1207
  %fi114 = call double* @injectFault5(i64 1201, double* %139, i32 32, i32 0, i32 1, i32 0, i8* getelementptr inbounds ([5 x i8], [5 x i8]* @load_namestr, i32 0, i32 0)), !llfi_injectfault !6
  %140 = load double, double* %fi114, align 8, !llfi_index !1208
  %fi115 = call double @injectFault0(i64 1202, double %140, i32 32, i32 0, i32 1, i32 0, i8* getelementptr inbounds ([5 x i8], [5 x i8]* @load_namestr, i32 0, i32 0)), !llfi_injectfault !6
  %141 = fadd double %fi115, %fi113, !llfi_index !1209
  %fi116 = call double @injectFault0(i64 1203, double %141, i32 14, i32 0, i32 1, i32 0, i8* getelementptr inbounds ([5 x i8], [5 x i8]* @fadd_namestr, i32 0, i32 0)), !llfi_injectfault !6
  store double %fi116, double* %fi114, align 8, !llfi_index !1210
  %142 = load double, double* %fi30, align 8, !llfi_index !1211
  %fi117 = call double @injectFault0(i64 1205, double %142, i32 32, i32 0, i32 1, i32 0, i8* getelementptr inbounds ([5 x i8], [5 x i8]* @load_namestr, i32 0, i32 0)), !llfi_injectfault !6
  %143 = load double*, double** %fi9, align 8, !llfi_index !1212
  %fi118 = call double* @injectFault5(i64 1206, double* %143, i32 32, i32 0, i32 1, i32 0, i8* getelementptr inbounds ([5 x i8], [5 x i8]* @load_namestr, i32 0, i32 0)), !llfi_injectfault !6
  %144 = load double, double* %fi118, align 8, !llfi_index !1213
  %fi119 = call double @injectFault0(i64 1207, double %144, i32 32, i32 0, i32 1, i32 0, i8* getelementptr inbounds ([5 x i8], [5 x i8]* @load_namestr, i32 0, i32 0)), !llfi_injectfault !6
  %145 = fadd double %fi119, %fi117, !llfi_index !1214
  %fi120 = call double @injectFault0(i64 1208, double %145, i32 14, i32 0, i32 1, i32 0, i8* getelementptr inbounds ([5 x i8], [5 x i8]* @fadd_namestr, i32 0, i32 0)), !llfi_injectfault !6
  store double %fi120, double* %fi118, align 8, !llfi_index !1215
  %146 = load double, double* %fi31, align 8, !llfi_index !1216
  %fi121 = call double @injectFault0(i64 1210, double %146, i32 32, i32 0, i32 1, i32 0, i8* getelementptr inbounds ([5 x i8], [5 x i8]* @load_namestr, i32 0, i32 0)), !llfi_injectfault !6
  %147 = load double*, double** %fi1, align 8, !llfi_index !1217
  %fi122 = call double* @injectFault5(i64 1211, double* %147, i32 32, i32 0, i32 1, i32 0, i8* getelementptr inbounds ([5 x i8], [5 x i8]* @load_namestr, i32 0, i32 0)), !llfi_injectfault !6
  %148 = load double, double* %fi122, align 8, !llfi_index !1218
  %fi123 = call double @injectFault0(i64 1212, double %148, i32 32, i32 0, i32 1, i32 0, i8* getelementptr inbounds ([5 x i8], [5 x i8]* @load_namestr, i32 0, i32 0)), !llfi_injectfault !6
  %149 = fadd double %fi123, %fi121, !llfi_index !1219
  %fi124 = call double @injectFault0(i64 1213, double %149, i32 14, i32 0, i32 1, i32 0, i8* getelementptr inbounds ([5 x i8], [5 x i8]* @fadd_namestr, i32 0, i32 0)), !llfi_injectfault !6
  store double %fi124, double* %fi122, align 8, !llfi_index !1220
  %150 = load double, double* %fi31, align 8, !llfi_index !1221
  %fi125 = call double @injectFault0(i64 1215, double %150, i32 32, i32 0, i32 1, i32 0, i8* getelementptr inbounds ([5 x i8], [5 x i8]* @load_namestr, i32 0, i32 0)), !llfi_injectfault !6
  %151 = load double*, double** %fi4, align 8, !llfi_index !1222
  %fi126 = call double* @injectFault5(i64 1216, double* %151, i32 32, i32 0, i32 1, i32 0, i8* getelementptr inbounds ([5 x i8], [5 x i8]* @load_namestr, i32 0, i32 0)), !llfi_injectfault !6
  %152 = load double, double* %fi126, align 8, !llfi_index !1223
  %fi127 = call double @injectFault0(i64 1217, double %152, i32 32, i32 0, i32 1, i32 0, i8* getelementptr inbounds ([5 x i8], [5 x i8]* @load_namestr, i32 0, i32 0)), !llfi_injectfault !6
  %153 = fadd double %fi127, %fi125, !llfi_index !1224
  %fi128 = call double @injectFault0(i64 1218, double %153, i32 14, i32 0, i32 1, i32 0, i8* getelementptr inbounds ([5 x i8], [5 x i8]* @fadd_namestr, i32 0, i32 0)), !llfi_injectfault !6
  store double %fi128, double* %fi126, align 8, !llfi_index !1225
  %154 = load double, double* %fi31, align 8, !llfi_index !1226
  %fi129 = call double @injectFault0(i64 1220, double %154, i32 32, i32 0, i32 1, i32 0, i8* getelementptr inbounds ([5 x i8], [5 x i8]* @load_namestr, i32 0, i32 0)), !llfi_injectfault !6
  %155 = load double*, double** %fi7, align 8, !llfi_index !1227
  %fi130 = call double* @injectFault5(i64 1221, double* %155, i32 32, i32 0, i32 1, i32 0, i8* getelementptr inbounds ([5 x i8], [5 x i8]* @load_namestr, i32 0, i32 0)), !llfi_injectfault !6
  %156 = load double, double* %fi130, align 8, !llfi_index !1228
  %fi131 = call double @injectFault0(i64 1222, double %156, i32 32, i32 0, i32 1, i32 0, i8* getelementptr inbounds ([5 x i8], [5 x i8]* @load_namestr, i32 0, i32 0)), !llfi_injectfault !6
  %157 = fadd double %fi131, %fi129, !llfi_index !1229
  %fi132 = call double @injectFault0(i64 1223, double %157, i32 14, i32 0, i32 1, i32 0, i8* getelementptr inbounds ([5 x i8], [5 x i8]* @fadd_namestr, i32 0, i32 0)), !llfi_injectfault !6
  store double %fi132, double* %fi130, align 8, !llfi_index !1230
  %158 = load double, double* %fi31, align 8, !llfi_index !1231
  %fi133 = call double @injectFault0(i64 1225, double %158, i32 32, i32 0, i32 1, i32 0, i8* getelementptr inbounds ([5 x i8], [5 x i8]* @load_namestr, i32 0, i32 0)), !llfi_injectfault !6
  %159 = load double*, double** %fi10, align 8, !llfi_index !1232
  %fi134 = call double* @injectFault5(i64 1226, double* %159, i32 32, i32 0, i32 1, i32 0, i8* getelementptr inbounds ([5 x i8], [5 x i8]* @load_namestr, i32 0, i32 0)), !llfi_injectfault !6
  %160 = load double, double* %fi134, align 8, !llfi_index !1233
  %fi135 = call double @injectFault0(i64 1227, double %160, i32 32, i32 0, i32 1, i32 0, i8* getelementptr inbounds ([5 x i8], [5 x i8]* @load_namestr, i32 0, i32 0)), !llfi_injectfault !6
  %161 = fadd double %fi135, %fi133, !llfi_index !1234
  %fi136 = call double @injectFault0(i64 1228, double %161, i32 14, i32 0, i32 1, i32 0, i8* getelementptr inbounds ([5 x i8], [5 x i8]* @fadd_namestr, i32 0, i32 0)), !llfi_injectfault !6
  store double %fi136, double* %fi134, align 8, !llfi_index !1235
  %162 = load double, double* %fi32, align 8, !llfi_index !1236
  %fi137 = call double @injectFault0(i64 1230, double %162, i32 32, i32 0, i32 1, i32 0, i8* getelementptr inbounds ([5 x i8], [5 x i8]* @load_namestr, i32 0, i32 0)), !llfi_injectfault !6
  %163 = load double*, double** %fi2, align 8, !llfi_index !1237
  %fi138 = call double* @injectFault5(i64 1231, double* %163, i32 32, i32 0, i32 1, i32 0, i8* getelementptr inbounds ([5 x i8], [5 x i8]* @load_namestr, i32 0, i32 0)), !llfi_injectfault !6
  %164 = load double, double* %fi138, align 8, !llfi_index !1238
  %fi139 = call double @injectFault0(i64 1232, double %164, i32 32, i32 0, i32 1, i32 0, i8* getelementptr inbounds ([5 x i8], [5 x i8]* @load_namestr, i32 0, i32 0)), !llfi_injectfault !6
  %165 = fadd double %fi139, %fi137, !llfi_index !1239
  %fi140 = call double @injectFault0(i64 1233, double %165, i32 14, i32 0, i32 1, i32 0, i8* getelementptr inbounds ([5 x i8], [5 x i8]* @fadd_namestr, i32 0, i32 0)), !llfi_injectfault !6
  store double %fi140, double* %fi138, align 8, !llfi_index !1240
  %166 = load double, double* %fi32, align 8, !llfi_index !1241
  %fi141 = call double @injectFault0(i64 1235, double %166, i32 32, i32 0, i32 1, i32 0, i8* getelementptr inbounds ([5 x i8], [5 x i8]* @load_namestr, i32 0, i32 0)), !llfi_injectfault !6
  %167 = load double*, double** %fi5, align 8, !llfi_index !1242
