; ModuleID = '/home/evapowlison/O0-resAn/llfi/LULESH-llfi_index.ll'
source_filename = "llvm-link"
target datalayout = "e-m:e-p270:32:32-p271:32:32-p272:64:64-i64:64-f80:128-n8:16:32:64-S128"
target triple = "x86_64-unknown-linux-gnu"

%struct.Mesh = type { %"class.std::vector", %"class.std::vector", %"class.std::vector", %"class.std::vector", %"class.std::vector", %"class.std::vector", %"class.std::vector", %"class.std::vector", %"class.std::vector", %"class.std::vector", %"class.std::vector", %"class.std::vector", %"class.std::vector", %"class.std::vector", %"class.std::vector", %"class.std::vector", %"class.std::vector", %"class.std::vector", %"class.std::vector", %"class.std::vector", %"class.std::vector", %"class.std::vector", %"class.std::vector", %"class.std::vector", %"class.std::vector", %"class.std::vector", %"class.std::vector", %"class.std::vector", %"class.std::vector", %"class.std::vector", %"class.std::vector", %"class.std::vector", %"class.std::vector", %"class.std::vector", %"class.std::vector", %"class.std::vector", %"class.std::vector", %"class.std::vector", %"class.std::vector", %"class.std::vector", %"class.std::vector", %"class.std::vector", %"class.std::vector", %"class.std::vector", %"class.std::vector", %"class.std::vector", %"class.std::vector", double, double, double, double, double, double, double, double, double, double, double, double, double, double, double, double, double, double, double, double, double, double, double, double, double, double, double, double, i32, i32, i32, i32, i32, i32 }
%"class.std::vector" = type { %"struct.std::_Vector_base" }
%"struct.std::_Vector_base" = type { %"struct.std::_Vector_base<double, std::allocator<double>>::_Vector_impl" }
%"struct.std::_Vector_base<double, std::allocator<double>>::_Vector_impl" = type { ptr, ptr, ptr }
%struct.timeval = type { i64, i64 }
%"class.std::move_iterator" = type { ptr }
%"struct.std::vector<double>::_Temporary_value" = type { ptr, %"union.std::aligned_storage<8, 8>::type" }
%"union.std::aligned_storage<8, 8>::type" = type { [8 x i8] }

$_ZN4MeshC2Ev = comdat any

$_ZN4MeshD2Ev = comdat any

$_ZNSt6vectorIdSaIdEED2Ev = comdat any

$_ZNSt6vectorIiSaIiEED2Ev = comdat any

$_ZNSt12_Vector_baseIiSaIiEE19_M_get_Tp_allocatorEv = comdat any

$_ZSt8_DestroyIPiiEvT_S1_RSaIT0_E = comdat any

$_ZNSt12_Vector_baseIiSaIiEED2Ev = comdat any

$__clang_call_terminate = comdat any

$_ZNSt12_Vector_baseIiSaIiEE13_M_deallocateEPim = comdat any

$_ZNSt12_Vector_baseIiSaIiEE12_Vector_implD2Ev = comdat any

$_ZNSaIiED2Ev = comdat any

$_ZN9__gnu_cxx13new_allocatorIiED2Ev = comdat any

$_ZNSt16allocator_traitsISaIiEE10deallocateERS0_Pim = comdat any

$_ZN9__gnu_cxx13new_allocatorIiE10deallocateEPim = comdat any

$_ZSt8_DestroyIPiEvT_S1_ = comdat any

$_ZNSt12_Destroy_auxILb1EE9__destroyIPiEEvT_S3_ = comdat any

$_ZNSt12_Vector_baseIdSaIdEE19_M_get_Tp_allocatorEv = comdat any

$_ZSt8_DestroyIPddEvT_S1_RSaIT0_E = comdat any

$_ZNSt12_Vector_baseIdSaIdEED2Ev = comdat any

$_ZNSt12_Vector_baseIdSaIdEE13_M_deallocateEPdm = comdat any

$_ZNSt12_Vector_baseIdSaIdEE12_Vector_implD2Ev = comdat any

$_ZNSaIdED2Ev = comdat any

$_ZN9__gnu_cxx13new_allocatorIdED2Ev = comdat any

$_ZNSt16allocator_traitsISaIdEE10deallocateERS0_Pdm = comdat any

$_ZN9__gnu_cxx13new_allocatorIdE10deallocateEPdm = comdat any

$_ZSt8_DestroyIPdEvT_S1_ = comdat any

$_ZNSt12_Destroy_auxILb1EE9__destroyIPdEEvT_S3_ = comdat any

$_ZNSt6vectorIdSaIdEEC2Ev = comdat any

$_ZNSt6vectorIiSaIiEEC2Ev = comdat any

$_ZNSt12_Vector_baseIiSaIiEEC2Ev = comdat any

$_ZNSt12_Vector_baseIiSaIiEE12_Vector_implC2Ev = comdat any

$_ZNSaIiEC2Ev = comdat any

$_ZN9__gnu_cxx13new_allocatorIiEC2Ev = comdat any

$_ZNSt12_Vector_baseIdSaIdEEC2Ev = comdat any

$_ZNSt12_Vector_baseIdSaIdEE12_Vector_implC2Ev = comdat any

$_ZNSaIdEC2Ev = comdat any

$_ZN9__gnu_cxx13new_allocatorIdEC2Ev = comdat any

$_ZN4Mesh8stoptimeEv = comdat any

$_ZN4Mesh4timeEv = comdat any

$_ZN4Mesh7dtfixedEv = comdat any

$_ZN4Mesh5cycleEv = comdat any

$_ZN4Mesh9deltatimeEv = comdat any

$_ZN4Mesh9dtcourantEv = comdat any

$_ZN4Mesh7dthydroEv = comdat any

$_ZN4Mesh15deltatimemultlbEv = comdat any

$_ZN4Mesh15deltatimemultubEv = comdat any

$_ZN4Mesh5dtmaxEv = comdat any

$_ZN4Mesh1pEi = comdat any

$_ZN4Mesh1qEi = comdat any

$_ZNSt6vectorIdSaIdEEixEm = comdat any

$_ZN4Mesh8nodelistEi = comdat any

$_ZN4Mesh1xEi = comdat any

$_ZN4Mesh1yEi = comdat any

$_ZN4Mesh1zEi = comdat any

$_ZN4Mesh2fxEi = comdat any

$_ZN4Mesh2fyEi = comdat any

$_ZN4Mesh2fzEi = comdat any

$_ZNSt6vectorIiSaIiEEixEm = comdat any

$_ZN4Mesh7numElemEv = comdat any

$_ZN4Mesh2ssEi = comdat any

$_ZN4Mesh8elemMassEi = comdat any

$_Z4CBRTd = comdat any

$_ZN4Mesh2xdEi = comdat any

$_ZN4Mesh2ydEi = comdat any

$_ZN4Mesh2zdEi = comdat any

$_Z8AllocateIdEPT_m = comdat any

$_ZN4Mesh4voloEi = comdat any

$_ZN4Mesh1vEi = comdat any

$_Z7ReleaseIdEvPPT_ = comdat any

$_ZN4Mesh6hgcoefEv = comdat any

$_ZN4Mesh7numNodeEv = comdat any

$_ZN4Mesh9nodalMassEi = comdat any

$_ZN4Mesh3xddEi = comdat any

$_ZN4Mesh3yddEi = comdat any

$_ZN4Mesh3zddEi = comdat any

$_ZN4Mesh5sizeXEv = comdat any

$_ZN4Mesh5symmXEi = comdat any

$_ZN4Mesh5symmYEi = comdat any

$_ZN4Mesh5symmZEi = comdat any

$_Z4FABSd = comdat any

$_ZN4Mesh5u_cutEv = comdat any

$_ZSt3maxIdERKT_S2_S2_ = comdat any

$_Z4SQRTd = comdat any

$_ZN4Mesh4vnewEi = comdat any

$_ZN4Mesh4delvEi = comdat any

$_ZN4Mesh6arealgEi = comdat any

$_ZN4Mesh3dxxEi = comdat any

$_ZN4Mesh3dyyEi = comdat any

$_ZN4Mesh3dzzEi = comdat any

$_ZN4Mesh4vdovEi = comdat any

$_ZN4Mesh9delx_zetaEi = comdat any

$_ZN4Mesh9delv_zetaEi = comdat any

$_ZN4Mesh7delx_xiEi = comdat any

$_ZN4Mesh7delv_xiEi = comdat any

$_ZN4Mesh8delx_etaEi = comdat any

$_ZN4Mesh8delv_etaEi = comdat any

$_ZN4Mesh11matElemlistEi = comdat any

$_ZN4Mesh6elemBCEi = comdat any

$_ZN4Mesh4lximEi = comdat any

$_ZN4Mesh4lxipEi = comdat any

$_ZN4Mesh5letamEi = comdat any

$_ZN4Mesh5letapEi = comdat any

$_ZN4Mesh6lzetamEi = comdat any

$_ZN4Mesh6lzetapEi = comdat any

$_ZN4Mesh2qqEi = comdat any

$_ZN4Mesh2qlEi = comdat any

$_ZN4Mesh15monoq_max_slopeEv = comdat any

$_ZN4Mesh18monoq_limiter_multEv = comdat any

$_ZN4Mesh9qlc_monoqEv = comdat any

$_ZN4Mesh9qqc_monoqEv = comdat any

$_ZN4Mesh5qstopEv = comdat any

$_ZN4Mesh5e_cutEv = comdat any

$_ZN4Mesh5p_cutEv = comdat any

$_ZN4Mesh5ss4o3Ev = comdat any

$_ZN4Mesh5q_cutEv = comdat any

$_ZN4Mesh7eosvmaxEv = comdat any

$_ZN4Mesh7eosvminEv = comdat any

$_ZN4Mesh4pminEv = comdat any

$_ZN4Mesh4eminEv = comdat any

$_ZN4Mesh7refdensEv = comdat any

$_ZN4Mesh1eEi = comdat any

$_ZN4Mesh5v_cutEv = comdat any

$_ZN4Mesh3qqcEv = comdat any

$_ZN4Mesh7dvovmaxEv = comdat any

$_ZN4Mesh5sizeYEv = comdat any

$_ZN4Mesh5sizeZEv = comdat any

$_ZN4Mesh22AllocateElemPersistentEm = comdat any

$_ZN4Mesh21AllocateElemTemporaryEm = comdat any

$_ZN4Mesh23AllocateNodalPersistentEm = comdat any

$_ZN4Mesh16AllocateNodesetsEm = comdat any

$_ZNSt6vectorIiSaIiEE6resizeEm = comdat any

$_ZNKSt6vectorIiSaIiEE4sizeEv = comdat any

$_ZNSt6vectorIiSaIiEE17_M_default_appendEm = comdat any

$_ZNSt6vectorIiSaIiEE15_M_erase_at_endEPi = comdat any

$_ZSt27__uninitialized_default_n_aIPimiET_S1_T0_RSaIT1_E = comdat any

$_ZNKSt6vectorIiSaIiEE12_M_check_lenEmPKc = comdat any

$_ZNSt12_Vector_baseIiSaIiEE11_M_allocateEm = comdat any

$_ZSt34__uninitialized_move_if_noexcept_aIPiS0_SaIiEET0_T_S3_S2_RT1_ = comdat any

$_ZSt32__make_move_if_noexcept_iteratorIiSt13move_iteratorIPiEET0_PT_ = comdat any

$_ZSt22__uninitialized_copy_aISt13move_iteratorIPiES1_iET0_T_S4_S3_RSaIT1_E = comdat any

$_ZSt18uninitialized_copyISt13move_iteratorIPiES1_ET0_T_S4_S3_ = comdat any

$_ZNSt20__uninitialized_copyILb1EE13__uninit_copyISt13move_iteratorIPiES3_EET0_T_S6_S5_ = comdat any

$_ZSt4copyISt13move_iteratorIPiES1_ET0_T_S4_S3_ = comdat any

$_ZSt12__miter_baseIPiEDTcl12__miter_basecldtfp_4baseEEESt13move_iteratorIT_E = comdat any

$_ZSt14__copy_move_a2ILb1EPiS0_ET1_T0_S2_S1_ = comdat any

$_ZSt12__niter_baseIPiET_S1_ = comdat any

$_ZSt13__copy_move_aILb1EPiS0_ET1_T0_S2_S1_ = comdat any

$_ZNSt11__copy_moveILb1ELb1ESt26random_access_iterator_tagE8__copy_mIiEEPT_PKS3_S6_S4_ = comdat any

$_ZNKSt13move_iteratorIPiE4baseEv = comdat any

$_ZSt12__miter_baseIPiET_S1_ = comdat any

$_ZNSt13move_iteratorIPiEC2ES0_ = comdat any

$_ZNSt16allocator_traitsISaIiEE8allocateERS0_m = comdat any

$_ZN9__gnu_cxx13new_allocatorIiE8allocateEmPKv = comdat any

$_ZNK9__gnu_cxx13new_allocatorIiE8max_sizeEv = comdat any

$_ZNKSt6vectorIiSaIiEE8max_sizeEv = comdat any

$_ZSt3maxImERKT_S2_S2_ = comdat any

$_ZNKSt12_Vector_baseIiSaIiEE19_M_get_Tp_allocatorEv = comdat any

$_ZNSt16allocator_traitsISaIiEE8max_sizeERKS0_ = comdat any

$_ZSt25__uninitialized_default_nIPimET_S1_T0_ = comdat any

$_ZNSt27__uninitialized_default_n_1ILb1EE18__uninit_default_nIPimEET_S3_T0_ = comdat any

$_ZSt6fill_nIPimiET_S1_T0_RKT1_ = comdat any

$_ZSt10__fill_n_aIPimiEN9__gnu_cxx11__enable_ifIXsr11__is_scalarIT1_EE7__valueET_E6__typeES4_T0_RKS3_ = comdat any

$_ZNSt6vectorIdSaIdEE6resizeEm = comdat any

$_ZNSt6vectorIdSaIdEE6resizeEmRKd = comdat any

$_ZNKSt6vectorIdSaIdEE4sizeEv = comdat any

$_ZNSt6vectorIdSaIdEE3endEv = comdat any

$_ZNSt6vectorIdSaIdEE14_M_fill_insertEN9__gnu_cxx17__normal_iteratorIPdS1_EEmRKd = comdat any

$_ZNSt6vectorIdSaIdEE15_M_erase_at_endEPd = comdat any

$_ZNSt6vectorIdSaIdEE16_Temporary_valueC2IJRKdEEEPS1_DpOT_ = comdat any

$_ZNSt6vectorIdSaIdEE16_Temporary_value6_M_valEv = comdat any

$_ZN9__gnu_cxxmiIPdSt6vectorIdSaIdEEEENS_17__normal_iteratorIT_T0_E15difference_typeERKS8_SB_ = comdat any

$_ZSt22__uninitialized_move_aIPdS0_SaIdEET0_T_S3_S2_RT1_ = comdat any

$_ZNK9__gnu_cxx17__normal_iteratorIPdSt6vectorIdSaIdEEE4baseEv = comdat any

$_ZSt13move_backwardIPdS0_ET0_T_S2_S1_ = comdat any

$_ZSt4fillIPddEvT_S1_RKT0_ = comdat any

$_ZNSt6vectorIdSaIdEE16_Temporary_valueD2Ev = comdat any

$_ZSt24__uninitialized_fill_n_aIPdmddET_S1_T0_RKT1_RSaIT2_E = comdat any

$_ZNKSt6vectorIdSaIdEE12_M_check_lenEmPKc = comdat any

$_ZNSt6vectorIdSaIdEE5beginEv = comdat any

$_ZNSt12_Vector_baseIdSaIdEE11_M_allocateEm = comdat any

$_ZSt34__uninitialized_move_if_noexcept_aIPdS0_SaIdEET0_T_S3_S2_RT1_ = comdat any

$_ZSt32__make_move_if_noexcept_iteratorIdSt13move_iteratorIPdEET0_PT_ = comdat any

$_ZSt22__uninitialized_copy_aISt13move_iteratorIPdES1_dET0_T_S4_S3_RSaIT1_E = comdat any

$_ZSt18uninitialized_copyISt13move_iteratorIPdES1_ET0_T_S4_S3_ = comdat any

$_ZNSt20__uninitialized_copyILb1EE13__uninit_copyISt13move_iteratorIPdES3_EET0_T_S6_S5_ = comdat any

$_ZSt4copyISt13move_iteratorIPdES1_ET0_T_S4_S3_ = comdat any

$_ZSt12__miter_baseIPdEDTcl12__miter_basecldtfp_4baseEEESt13move_iteratorIT_E = comdat any

$_ZSt14__copy_move_a2ILb1EPdS0_ET1_T0_S2_S1_ = comdat any

$_ZSt12__niter_baseIPdET_S1_ = comdat any

$_ZSt13__copy_move_aILb1EPdS0_ET1_T0_S2_S1_ = comdat any

$_ZNSt11__copy_moveILb1ELb1ESt26random_access_iterator_tagE8__copy_mIdEEPT_PKS3_S6_S4_ = comdat any

$_ZNKSt13move_iteratorIPdE4baseEv = comdat any

$_ZSt12__miter_baseIPdET_S1_ = comdat any

$_ZNSt13move_iteratorIPdEC2ES0_ = comdat any

$_ZNSt16allocator_traitsISaIdEE8allocateERS0_m = comdat any

$_ZN9__gnu_cxx13new_allocatorIdE8allocateEmPKv = comdat any

$_ZNK9__gnu_cxx13new_allocatorIdE8max_sizeEv = comdat any

$_ZN9__gnu_cxx17__normal_iteratorIPdSt6vectorIdSaIdEEEC2ERKS1_ = comdat any

$_ZNKSt6vectorIdSaIdEE8max_sizeEv = comdat any

$_ZNKSt12_Vector_baseIdSaIdEE19_M_get_Tp_allocatorEv = comdat any

$_ZNSt16allocator_traitsISaIdEE8max_sizeERKS0_ = comdat any

$_ZSt20uninitialized_fill_nIPdmdET_S1_T0_RKT1_ = comdat any

$_ZNSt22__uninitialized_fill_nILb1EE15__uninit_fill_nIPdmdEET_S3_T0_RKT1_ = comdat any

$_ZSt6fill_nIPdmdET_S1_T0_RKT1_ = comdat any

$_ZSt10__fill_n_aIPdmdEN9__gnu_cxx11__enable_ifIXsr11__is_scalarIT1_EE7__valueET_E6__typeES4_T0_RKS3_ = comdat any

$_ZNSt6vectorIdSaIdEE16_Temporary_value6_M_ptrEv = comdat any

$_ZNSt16allocator_traitsISaIdEE7destroyIdEEvRS0_PT_ = comdat any

$_ZN9__gnu_cxx13new_allocatorIdE7destroyIdEEvPT_ = comdat any

$_ZNSt14pointer_traitsIPdE10pointer_toERd = comdat any

$_ZSt8__fill_aIPddEN9__gnu_cxx11__enable_ifIXsr11__is_scalarIT0_EE7__valueEvE6__typeET_S6_RKS3_ = comdat any

$_ZSt23__copy_move_backward_a2ILb1EPdS0_ET1_T0_S2_S1_ = comdat any

$_ZSt22__copy_move_backward_aILb1EPdS0_ET1_T0_S2_S1_ = comdat any

$_ZNSt20__copy_move_backwardILb1ELb1ESt26random_access_iterator_tagE13__copy_move_bIdEEPT_PKS3_S6_S4_ = comdat any

$_ZSt18make_move_iteratorIPdESt13move_iteratorIT_ES2_ = comdat any

$_ZNSt16allocator_traitsISaIdEE9constructIdJRKdEEEvRS0_PT_DpOT0_ = comdat any

$_ZN9__gnu_cxx13new_allocatorIdE9constructIdJRKdEEEvPT_DpOT0_ = comdat any

$_ZNSt6vectorIdSaIdEE17_M_default_appendEm = comdat any

$_ZSt27__uninitialized_default_n_aIPdmdET_S1_T0_RSaIT1_E = comdat any

$_ZSt25__uninitialized_default_nIPdmET_S1_T0_ = comdat any

$_ZNSt27__uninitialized_default_n_1ILb1EE18__uninit_default_nIPdmEET_S3_T0_ = comdat any

@llvm.global_ctors = appending global [1 x { i32, ptr, ptr }] [{ i32, ptr, ptr } { i32 65535, ptr @_GLOBAL__sub_I_LULESH.cc, ptr null }]
@mesh = dso_local global %struct.Mesh zeroinitializer, align 8
@.str = private unnamed_addr constant [12 x i8] c"element.dat\00", align 1
@.str.1 = private unnamed_addr constant [2 x i8] c"w\00", align 1
@.str.2 = private unnamed_addr constant [5 x i8] c"%f \0A\00", align 1
@.str.3 = private unnamed_addr constant [26 x i8] c"vector::_M_default_append\00", align 1
@.str.4 = private unnamed_addr constant [23 x i8] c"vector::_M_fill_insert\00", align 1

; Function Attrs: noinline uwtable
define internal void @_GLOBAL__sub_I_LULESH.cc() #0 section ".text.startup" {
entry:
  call void @__cxx_global_var_init(), !llfi_index !6
  ret void, !llfi_index !7
}

; Function Attrs: noinline uwtable
define internal void @__cxx_global_var_init() #0 section ".text.startup" {
entry:
  call void @_ZN4MeshC2Ev(ptr noundef nonnull align 8 dereferenceable(1376) @mesh) #2, !llfi_index !8
  %0 = call i32 @atexit(ptr @__dtor_mesh) #2, !llfi_index !9
  call void @doProfiling(i32 56)
  ret void, !llfi_index !10
}

; Function Attrs: noinline nounwind optnone uwtable
define linkonce_odr dso_local void @_ZN4MeshC2Ev(ptr noundef nonnull align 8 dereferenceable(1376) %this) unnamed_addr #1 comdat align 2 {
entry:
  %this.addr = alloca ptr, align 8, !llfi_index !11
  call void @doProfiling(i32 31)
  store ptr %this, ptr %this.addr, align 8, !llfi_index !12
  %this1 = load ptr, ptr %this.addr, align 8, !llfi_index !13
  call void @doProfiling(i32 32)
  %m_x = getelementptr inbounds %struct.Mesh, ptr %this1, i32 0, i32 0, !llfi_index !14
  call void @_ZNSt6vectorIdSaIdEEC2Ev(ptr noundef nonnull align 8 dereferenceable(24) %m_x) #2, !llfi_index !15
  %m_y = getelementptr inbounds %struct.Mesh, ptr %this1, i32 0, i32 1, !llfi_index !16
  call void @_ZNSt6vectorIdSaIdEEC2Ev(ptr noundef nonnull align 8 dereferenceable(24) %m_y) #2, !llfi_index !17
  %m_z = getelementptr inbounds %struct.Mesh, ptr %this1, i32 0, i32 2, !llfi_index !18
  call void @_ZNSt6vectorIdSaIdEEC2Ev(ptr noundef nonnull align 8 dereferenceable(24) %m_z) #2, !llfi_index !19
  %m_xd = getelementptr inbounds %struct.Mesh, ptr %this1, i32 0, i32 3, !llfi_index !20
  call void @_ZNSt6vectorIdSaIdEEC2Ev(ptr noundef nonnull align 8 dereferenceable(24) %m_xd) #2, !llfi_index !21
  %m_yd = getelementptr inbounds %struct.Mesh, ptr %this1, i32 0, i32 4, !llfi_index !22
  call void @_ZNSt6vectorIdSaIdEEC2Ev(ptr noundef nonnull align 8 dereferenceable(24) %m_yd) #2, !llfi_index !23
  %m_zd = getelementptr inbounds %struct.Mesh, ptr %this1, i32 0, i32 5, !llfi_index !24
  call void @_ZNSt6vectorIdSaIdEEC2Ev(ptr noundef nonnull align 8 dereferenceable(24) %m_zd) #2, !llfi_index !25
  %m_xdd = getelementptr inbounds %struct.Mesh, ptr %this1, i32 0, i32 6, !llfi_index !26
  call void @_ZNSt6vectorIdSaIdEEC2Ev(ptr noundef nonnull align 8 dereferenceable(24) %m_xdd) #2, !llfi_index !27
  %m_ydd = getelementptr inbounds %struct.Mesh, ptr %this1, i32 0, i32 7, !llfi_index !28
  call void @_ZNSt6vectorIdSaIdEEC2Ev(ptr noundef nonnull align 8 dereferenceable(24) %m_ydd) #2, !llfi_index !29
  %m_zdd = getelementptr inbounds %struct.Mesh, ptr %this1, i32 0, i32 8, !llfi_index !30
  call void @_ZNSt6vectorIdSaIdEEC2Ev(ptr noundef nonnull align 8 dereferenceable(24) %m_zdd) #2, !llfi_index !31
  %m_fx = getelementptr inbounds %struct.Mesh, ptr %this1, i32 0, i32 9, !llfi_index !32
  call void @_ZNSt6vectorIdSaIdEEC2Ev(ptr noundef nonnull align 8 dereferenceable(24) %m_fx) #2, !llfi_index !33
  %m_fy = getelementptr inbounds %struct.Mesh, ptr %this1, i32 0, i32 10, !llfi_index !34
  call void @_ZNSt6vectorIdSaIdEEC2Ev(ptr noundef nonnull align 8 dereferenceable(24) %m_fy) #2, !llfi_index !35
  %m_fz = getelementptr inbounds %struct.Mesh, ptr %this1, i32 0, i32 11, !llfi_index !36
  call void @_ZNSt6vectorIdSaIdEEC2Ev(ptr noundef nonnull align 8 dereferenceable(24) %m_fz) #2, !llfi_index !37
  %m_nodalMass = getelementptr inbounds %struct.Mesh, ptr %this1, i32 0, i32 12, !llfi_index !38
  call void @_ZNSt6vectorIdSaIdEEC2Ev(ptr noundef nonnull align 8 dereferenceable(24) %m_nodalMass) #2, !llfi_index !39
  %m_symmX = getelementptr inbounds %struct.Mesh, ptr %this1, i32 0, i32 13, !llfi_index !40
  call void @_ZNSt6vectorIiSaIiEEC2Ev(ptr noundef nonnull align 8 dereferenceable(24) %m_symmX) #2, !llfi_index !41
  %m_symmY = getelementptr inbounds %struct.Mesh, ptr %this1, i32 0, i32 14, !llfi_index !42
  call void @_ZNSt6vectorIiSaIiEEC2Ev(ptr noundef nonnull align 8 dereferenceable(24) %m_symmY) #2, !llfi_index !43
  %m_symmZ = getelementptr inbounds %struct.Mesh, ptr %this1, i32 0, i32 15, !llfi_index !44
  call void @_ZNSt6vectorIiSaIiEEC2Ev(ptr noundef nonnull align 8 dereferenceable(24) %m_symmZ) #2, !llfi_index !45
  %m_matElemlist = getelementptr inbounds %struct.Mesh, ptr %this1, i32 0, i32 16, !llfi_index !46
  call void @_ZNSt6vectorIiSaIiEEC2Ev(ptr noundef nonnull align 8 dereferenceable(24) %m_matElemlist) #2, !llfi_index !47
  %m_nodelist = getelementptr inbounds %struct.Mesh, ptr %this1, i32 0, i32 17, !llfi_index !48
  call void @_ZNSt6vectorIiSaIiEEC2Ev(ptr noundef nonnull align 8 dereferenceable(24) %m_nodelist) #2, !llfi_index !49
  %m_lxim = getelementptr inbounds %struct.Mesh, ptr %this1, i32 0, i32 18, !llfi_index !50
  call void @_ZNSt6vectorIiSaIiEEC2Ev(ptr noundef nonnull align 8 dereferenceable(24) %m_lxim) #2, !llfi_index !51
  %m_lxip = getelementptr inbounds %struct.Mesh, ptr %this1, i32 0, i32 19, !llfi_index !52
  call void @_ZNSt6vectorIiSaIiEEC2Ev(ptr noundef nonnull align 8 dereferenceable(24) %m_lxip) #2, !llfi_index !53
  %m_letam = getelementptr inbounds %struct.Mesh, ptr %this1, i32 0, i32 20, !llfi_index !54
  call void @_ZNSt6vectorIiSaIiEEC2Ev(ptr noundef nonnull align 8 dereferenceable(24) %m_letam) #2, !llfi_index !55
  %m_letap = getelementptr inbounds %struct.Mesh, ptr %this1, i32 0, i32 21, !llfi_index !56
  call void @_ZNSt6vectorIiSaIiEEC2Ev(ptr noundef nonnull align 8 dereferenceable(24) %m_letap) #2, !llfi_index !57
  %m_lzetam = getelementptr inbounds %struct.Mesh, ptr %this1, i32 0, i32 22, !llfi_index !58
  call void @_ZNSt6vectorIiSaIiEEC2Ev(ptr noundef nonnull align 8 dereferenceable(24) %m_lzetam) #2, !llfi_index !59
  %m_lzetap = getelementptr inbounds %struct.Mesh, ptr %this1, i32 0, i32 23, !llfi_index !60
  call void @_ZNSt6vectorIiSaIiEEC2Ev(ptr noundef nonnull align 8 dereferenceable(24) %m_lzetap) #2, !llfi_index !61
  %m_elemBC = getelementptr inbounds %struct.Mesh, ptr %this1, i32 0, i32 24, !llfi_index !62
  call void @_ZNSt6vectorIiSaIiEEC2Ev(ptr noundef nonnull align 8 dereferenceable(24) %m_elemBC) #2, !llfi_index !63
  %m_dxx = getelementptr inbounds %struct.Mesh, ptr %this1, i32 0, i32 25, !llfi_index !64
  call void @_ZNSt6vectorIdSaIdEEC2Ev(ptr noundef nonnull align 8 dereferenceable(24) %m_dxx) #2, !llfi_index !65
  %m_dyy = getelementptr inbounds %struct.Mesh, ptr %this1, i32 0, i32 26, !llfi_index !66
  call void @_ZNSt6vectorIdSaIdEEC2Ev(ptr noundef nonnull align 8 dereferenceable(24) %m_dyy) #2, !llfi_index !67
  %m_dzz = getelementptr inbounds %struct.Mesh, ptr %this1, i32 0, i32 27, !llfi_index !68
  call void @_ZNSt6vectorIdSaIdEEC2Ev(ptr noundef nonnull align 8 dereferenceable(24) %m_dzz) #2, !llfi_index !69
  %m_delv_xi = getelementptr inbounds %struct.Mesh, ptr %this1, i32 0, i32 28, !llfi_index !70
  call void @_ZNSt6vectorIdSaIdEEC2Ev(ptr noundef nonnull align 8 dereferenceable(24) %m_delv_xi) #2, !llfi_index !71
  %m_delv_eta = getelementptr inbounds %struct.Mesh, ptr %this1, i32 0, i32 29, !llfi_index !72
  call void @_ZNSt6vectorIdSaIdEEC2Ev(ptr noundef nonnull align 8 dereferenceable(24) %m_delv_eta) #2, !llfi_index !73
  %m_delv_zeta = getelementptr inbounds %struct.Mesh, ptr %this1, i32 0, i32 30, !llfi_index !74
  call void @_ZNSt6vectorIdSaIdEEC2Ev(ptr noundef nonnull align 8 dereferenceable(24) %m_delv_zeta) #2, !llfi_index !75
  %m_delx_xi = getelementptr inbounds %struct.Mesh, ptr %this1, i32 0, i32 31, !llfi_index !76
  call void @_ZNSt6vectorIdSaIdEEC2Ev(ptr noundef nonnull align 8 dereferenceable(24) %m_delx_xi) #2, !llfi_index !77
  %m_delx_eta = getelementptr inbounds %struct.Mesh, ptr %this1, i32 0, i32 32, !llfi_index !78
  call void @_ZNSt6vectorIdSaIdEEC2Ev(ptr noundef nonnull align 8 dereferenceable(24) %m_delx_eta) #2, !llfi_index !79
  %m_delx_zeta = getelementptr inbounds %struct.Mesh, ptr %this1, i32 0, i32 33, !llfi_index !80
  call void @_ZNSt6vectorIdSaIdEEC2Ev(ptr noundef nonnull align 8 dereferenceable(24) %m_delx_zeta) #2, !llfi_index !81
  %m_e = getelementptr inbounds %struct.Mesh, ptr %this1, i32 0, i32 34, !llfi_index !82
  call void @_ZNSt6vectorIdSaIdEEC2Ev(ptr noundef nonnull align 8 dereferenceable(24) %m_e) #2, !llfi_index !83
  %m_p = getelementptr inbounds %struct.Mesh, ptr %this1, i32 0, i32 35, !llfi_index !84
  call void @_ZNSt6vectorIdSaIdEEC2Ev(ptr noundef nonnull align 8 dereferenceable(24) %m_p) #2, !llfi_index !85
  %m_q = getelementptr inbounds %struct.Mesh, ptr %this1, i32 0, i32 36, !llfi_index !86
  call void @_ZNSt6vectorIdSaIdEEC2Ev(ptr noundef nonnull align 8 dereferenceable(24) %m_q) #2, !llfi_index !87
  %m_ql = getelementptr inbounds %struct.Mesh, ptr %this1, i32 0, i32 37, !llfi_index !88
  call void @_ZNSt6vectorIdSaIdEEC2Ev(ptr noundef nonnull align 8 dereferenceable(24) %m_ql) #2, !llfi_index !89
  %m_qq = getelementptr inbounds %struct.Mesh, ptr %this1, i32 0, i32 38, !llfi_index !90
  call void @_ZNSt6vectorIdSaIdEEC2Ev(ptr noundef nonnull align 8 dereferenceable(24) %m_qq) #2, !llfi_index !91
  %m_v = getelementptr inbounds %struct.Mesh, ptr %this1, i32 0, i32 39, !llfi_index !92
  call void @_ZNSt6vectorIdSaIdEEC2Ev(ptr noundef nonnull align 8 dereferenceable(24) %m_v) #2, !llfi_index !93
  %m_volo = getelementptr inbounds %struct.Mesh, ptr %this1, i32 0, i32 40, !llfi_index !94
  call void @_ZNSt6vectorIdSaIdEEC2Ev(ptr noundef nonnull align 8 dereferenceable(24) %m_volo) #2, !llfi_index !95
  %m_vnew = getelementptr inbounds %struct.Mesh, ptr %this1, i32 0, i32 41, !llfi_index !96
  call void @_ZNSt6vectorIdSaIdEEC2Ev(ptr noundef nonnull align 8 dereferenceable(24) %m_vnew) #2, !llfi_index !97
  %m_delv = getelementptr inbounds %struct.Mesh, ptr %this1, i32 0, i32 42, !llfi_index !98
  call void @_ZNSt6vectorIdSaIdEEC2Ev(ptr noundef nonnull align 8 dereferenceable(24) %m_delv) #2, !llfi_index !99
  %m_vdov = getelementptr inbounds %struct.Mesh, ptr %this1, i32 0, i32 43, !llfi_index !100
  call void @_ZNSt6vectorIdSaIdEEC2Ev(ptr noundef nonnull align 8 dereferenceable(24) %m_vdov) #2, !llfi_index !101
  %m_arealg = getelementptr inbounds %struct.Mesh, ptr %this1, i32 0, i32 44, !llfi_index !102
  call void @_ZNSt6vectorIdSaIdEEC2Ev(ptr noundef nonnull align 8 dereferenceable(24) %m_arealg) #2, !llfi_index !103
  %m_ss = getelementptr inbounds %struct.Mesh, ptr %this1, i32 0, i32 45, !llfi_index !104
  call void @_ZNSt6vectorIdSaIdEEC2Ev(ptr noundef nonnull align 8 dereferenceable(24) %m_ss) #2, !llfi_index !105
  %m_elemMass = getelementptr inbounds %struct.Mesh, ptr %this1, i32 0, i32 46, !llfi_index !106
  call void @_ZNSt6vectorIdSaIdEEC2Ev(ptr noundef nonnull align 8 dereferenceable(24) %m_elemMass) #2, !llfi_index !107
  ret void, !llfi_index !108
}

; Function Attrs: noinline uwtable
define internal void @__dtor_mesh() #0 section ".text.startup" {
entry:
  call void @_ZN4MeshD2Ev(ptr @mesh), !llfi_index !109
  ret void, !llfi_index !110
}

; Function Attrs: nounwind
declare i32 @atexit(ptr) #2

; Function Attrs: noinline nounwind optnone uwtable
define linkonce_odr dso_local void @_ZN4MeshD2Ev(ptr noundef nonnull align 8 dereferenceable(1376) %this) unnamed_addr #1 comdat align 2 {
entry:
  %this.addr = alloca ptr, align 8, !llfi_index !111
  call void @doProfiling(i32 31)
  store ptr %this, ptr %this.addr, align 8, !llfi_index !112
  %this1 = load ptr, ptr %this.addr, align 8, !llfi_index !113
  call void @doProfiling(i32 32)
  %m_elemMass = getelementptr inbounds %struct.Mesh, ptr %this1, i32 0, i32 46, !llfi_index !114
  call void @_ZNSt6vectorIdSaIdEED2Ev(ptr noundef nonnull align 8 dereferenceable(24) %m_elemMass) #2, !llfi_index !115
  %m_ss = getelementptr inbounds %struct.Mesh, ptr %this1, i32 0, i32 45, !llfi_index !116
  call void @_ZNSt6vectorIdSaIdEED2Ev(ptr noundef nonnull align 8 dereferenceable(24) %m_ss) #2, !llfi_index !117
  %m_arealg = getelementptr inbounds %struct.Mesh, ptr %this1, i32 0, i32 44, !llfi_index !118
  call void @_ZNSt6vectorIdSaIdEED2Ev(ptr noundef nonnull align 8 dereferenceable(24) %m_arealg) #2, !llfi_index !119
  %m_vdov = getelementptr inbounds %struct.Mesh, ptr %this1, i32 0, i32 43, !llfi_index !120
  call void @_ZNSt6vectorIdSaIdEED2Ev(ptr noundef nonnull align 8 dereferenceable(24) %m_vdov) #2, !llfi_index !121
  %m_delv = getelementptr inbounds %struct.Mesh, ptr %this1, i32 0, i32 42, !llfi_index !122
  call void @_ZNSt6vectorIdSaIdEED2Ev(ptr noundef nonnull align 8 dereferenceable(24) %m_delv) #2, !llfi_index !123
  %m_vnew = getelementptr inbounds %struct.Mesh, ptr %this1, i32 0, i32 41, !llfi_index !124
  call void @_ZNSt6vectorIdSaIdEED2Ev(ptr noundef nonnull align 8 dereferenceable(24) %m_vnew) #2, !llfi_index !125
  %m_volo = getelementptr inbounds %struct.Mesh, ptr %this1, i32 0, i32 40, !llfi_index !126
  call void @_ZNSt6vectorIdSaIdEED2Ev(ptr noundef nonnull align 8 dereferenceable(24) %m_volo) #2, !llfi_index !127
  %m_v = getelementptr inbounds %struct.Mesh, ptr %this1, i32 0, i32 39, !llfi_index !128
  call void @_ZNSt6vectorIdSaIdEED2Ev(ptr noundef nonnull align 8 dereferenceable(24) %m_v) #2, !llfi_index !129
  %m_qq = getelementptr inbounds %struct.Mesh, ptr %this1, i32 0, i32 38, !llfi_index !130
  call void @_ZNSt6vectorIdSaIdEED2Ev(ptr noundef nonnull align 8 dereferenceable(24) %m_qq) #2, !llfi_index !131
  %m_ql = getelementptr inbounds %struct.Mesh, ptr %this1, i32 0, i32 37, !llfi_index !132
  call void @_ZNSt6vectorIdSaIdEED2Ev(ptr noundef nonnull align 8 dereferenceable(24) %m_ql) #2, !llfi_index !133
  %m_q = getelementptr inbounds %struct.Mesh, ptr %this1, i32 0, i32 36, !llfi_index !134
  call void @_ZNSt6vectorIdSaIdEED2Ev(ptr noundef nonnull align 8 dereferenceable(24) %m_q) #2, !llfi_index !135
  %m_p = getelementptr inbounds %struct.Mesh, ptr %this1, i32 0, i32 35, !llfi_index !136
  call void @_ZNSt6vectorIdSaIdEED2Ev(ptr noundef nonnull align 8 dereferenceable(24) %m_p) #2, !llfi_index !137
  %m_e = getelementptr inbounds %struct.Mesh, ptr %this1, i32 0, i32 34, !llfi_index !138
  call void @_ZNSt6vectorIdSaIdEED2Ev(ptr noundef nonnull align 8 dereferenceable(24) %m_e) #2, !llfi_index !139
  %m_delx_zeta = getelementptr inbounds %struct.Mesh, ptr %this1, i32 0, i32 33, !llfi_index !140
  call void @_ZNSt6vectorIdSaIdEED2Ev(ptr noundef nonnull align 8 dereferenceable(24) %m_delx_zeta) #2, !llfi_index !141
  %m_delx_eta = getelementptr inbounds %struct.Mesh, ptr %this1, i32 0, i32 32, !llfi_index !142
  call void @_ZNSt6vectorIdSaIdEED2Ev(ptr noundef nonnull align 8 dereferenceable(24) %m_delx_eta) #2, !llfi_index !143
  %m_delx_xi = getelementptr inbounds %struct.Mesh, ptr %this1, i32 0, i32 31, !llfi_index !144
  call void @_ZNSt6vectorIdSaIdEED2Ev(ptr noundef nonnull align 8 dereferenceable(24) %m_delx_xi) #2, !llfi_index !145
  %m_delv_zeta = getelementptr inbounds %struct.Mesh, ptr %this1, i32 0, i32 30, !llfi_index !146
  call void @_ZNSt6vectorIdSaIdEED2Ev(ptr noundef nonnull align 8 dereferenceable(24) %m_delv_zeta) #2, !llfi_index !147
  %m_delv_eta = getelementptr inbounds %struct.Mesh, ptr %this1, i32 0, i32 29, !llfi_index !148
  call void @_ZNSt6vectorIdSaIdEED2Ev(ptr noundef nonnull align 8 dereferenceable(24) %m_delv_eta) #2, !llfi_index !149
  %m_delv_xi = getelementptr inbounds %struct.Mesh, ptr %this1, i32 0, i32 28, !llfi_index !150
  call void @_ZNSt6vectorIdSaIdEED2Ev(ptr noundef nonnull align 8 dereferenceable(24) %m_delv_xi) #2, !llfi_index !151
  %m_dzz = getelementptr inbounds %struct.Mesh, ptr %this1, i32 0, i32 27, !llfi_index !152
  call void @_ZNSt6vectorIdSaIdEED2Ev(ptr noundef nonnull align 8 dereferenceable(24) %m_dzz) #2, !llfi_index !153
  %m_dyy = getelementptr inbounds %struct.Mesh, ptr %this1, i32 0, i32 26, !llfi_index !154
  call void @_ZNSt6vectorIdSaIdEED2Ev(ptr noundef nonnull align 8 dereferenceable(24) %m_dyy) #2, !llfi_index !155
  %m_dxx = getelementptr inbounds %struct.Mesh, ptr %this1, i32 0, i32 25, !llfi_index !156
  call void @_ZNSt6vectorIdSaIdEED2Ev(ptr noundef nonnull align 8 dereferenceable(24) %m_dxx) #2, !llfi_index !157
  %m_elemBC = getelementptr inbounds %struct.Mesh, ptr %this1, i32 0, i32 24, !llfi_index !158
  call void @_ZNSt6vectorIiSaIiEED2Ev(ptr noundef nonnull align 8 dereferenceable(24) %m_elemBC) #2, !llfi_index !159
  %m_lzetap = getelementptr inbounds %struct.Mesh, ptr %this1, i32 0, i32 23, !llfi_index !160
  call void @_ZNSt6vectorIiSaIiEED2Ev(ptr noundef nonnull align 8 dereferenceable(24) %m_lzetap) #2, !llfi_index !161
  %m_lzetam = getelementptr inbounds %struct.Mesh, ptr %this1, i32 0, i32 22, !llfi_index !162
  call void @_ZNSt6vectorIiSaIiEED2Ev(ptr noundef nonnull align 8 dereferenceable(24) %m_lzetam) #2, !llfi_index !163
  %m_letap = getelementptr inbounds %struct.Mesh, ptr %this1, i32 0, i32 21, !llfi_index !164
  call void @_ZNSt6vectorIiSaIiEED2Ev(ptr noundef nonnull align 8 dereferenceable(24) %m_letap) #2, !llfi_index !165
  %m_letam = getelementptr inbounds %struct.Mesh, ptr %this1, i32 0, i32 20, !llfi_index !166
  call void @_ZNSt6vectorIiSaIiEED2Ev(ptr noundef nonnull align 8 dereferenceable(24) %m_letam) #2, !llfi_index !167
  %m_lxip = getelementptr inbounds %struct.Mesh, ptr %this1, i32 0, i32 19, !llfi_index !168
  call void @_ZNSt6vectorIiSaIiEED2Ev(ptr noundef nonnull align 8 dereferenceable(24) %m_lxip) #2, !llfi_index !169
  %m_lxim = getelementptr inbounds %struct.Mesh, ptr %this1, i32 0, i32 18, !llfi_index !170
  call void @_ZNSt6vectorIiSaIiEED2Ev(ptr noundef nonnull align 8 dereferenceable(24) %m_lxim) #2, !llfi_index !171
  %m_nodelist = getelementptr inbounds %struct.Mesh, ptr %this1, i32 0, i32 17, !llfi_index !172
  call void @_ZNSt6vectorIiSaIiEED2Ev(ptr noundef nonnull align 8 dereferenceable(24) %m_nodelist) #2, !llfi_index !173
  %m_matElemlist = getelementptr inbounds %struct.Mesh, ptr %this1, i32 0, i32 16, !llfi_index !174
  call void @_ZNSt6vectorIiSaIiEED2Ev(ptr noundef nonnull align 8 dereferenceable(24) %m_matElemlist) #2, !llfi_index !175
  %m_symmZ = getelementptr inbounds %struct.Mesh, ptr %this1, i32 0, i32 15, !llfi_index !176
  call void @_ZNSt6vectorIiSaIiEED2Ev(ptr noundef nonnull align 8 dereferenceable(24) %m_symmZ) #2, !llfi_index !177
  %m_symmY = getelementptr inbounds %struct.Mesh, ptr %this1, i32 0, i32 14, !llfi_index !178
  call void @_ZNSt6vectorIiSaIiEED2Ev(ptr noundef nonnull align 8 dereferenceable(24) %m_symmY) #2, !llfi_index !179
  %m_symmX = getelementptr inbounds %struct.Mesh, ptr %this1, i32 0, i32 13, !llfi_index !180
  call void @_ZNSt6vectorIiSaIiEED2Ev(ptr noundef nonnull align 8 dereferenceable(24) %m_symmX) #2, !llfi_index !181
  %m_nodalMass = getelementptr inbounds %struct.Mesh, ptr %this1, i32 0, i32 12, !llfi_index !182
  call void @_ZNSt6vectorIdSaIdEED2Ev(ptr noundef nonnull align 8 dereferenceable(24) %m_nodalMass) #2, !llfi_index !183
  %m_fz = getelementptr inbounds %struct.Mesh, ptr %this1, i32 0, i32 11, !llfi_index !184
  call void @_ZNSt6vectorIdSaIdEED2Ev(ptr noundef nonnull align 8 dereferenceable(24) %m_fz) #2, !llfi_index !185
  %m_fy = getelementptr inbounds %struct.Mesh, ptr %this1, i32 0, i32 10, !llfi_index !186
  call void @_ZNSt6vectorIdSaIdEED2Ev(ptr noundef nonnull align 8 dereferenceable(24) %m_fy) #2, !llfi_index !187
  %m_fx = getelementptr inbounds %struct.Mesh, ptr %this1, i32 0, i32 9, !llfi_index !188
  call void @_ZNSt6vectorIdSaIdEED2Ev(ptr noundef nonnull align 8 dereferenceable(24) %m_fx) #2, !llfi_index !189
  %m_zdd = getelementptr inbounds %struct.Mesh, ptr %this1, i32 0, i32 8, !llfi_index !190
  call void @_ZNSt6vectorIdSaIdEED2Ev(ptr noundef nonnull align 8 dereferenceable(24) %m_zdd) #2, !llfi_index !191
  %m_ydd = getelementptr inbounds %struct.Mesh, ptr %this1, i32 0, i32 7, !llfi_index !192
  call void @_ZNSt6vectorIdSaIdEED2Ev(ptr noundef nonnull align 8 dereferenceable(24) %m_ydd) #2, !llfi_index !193
  %m_xdd = getelementptr inbounds %struct.Mesh, ptr %this1, i32 0, i32 6, !llfi_index !194
  call void @_ZNSt6vectorIdSaIdEED2Ev(ptr noundef nonnull align 8 dereferenceable(24) %m_xdd) #2, !llfi_index !195
  %m_zd = getelementptr inbounds %struct.Mesh, ptr %this1, i32 0, i32 5, !llfi_index !196
  call void @_ZNSt6vectorIdSaIdEED2Ev(ptr noundef nonnull align 8 dereferenceable(24) %m_zd) #2, !llfi_index !197
  %m_yd = getelementptr inbounds %struct.Mesh, ptr %this1, i32 0, i32 4, !llfi_index !198
  call void @_ZNSt6vectorIdSaIdEED2Ev(ptr noundef nonnull align 8 dereferenceable(24) %m_yd) #2, !llfi_index !199
  %m_xd = getelementptr inbounds %struct.Mesh, ptr %this1, i32 0, i32 3, !llfi_index !200
  call void @_ZNSt6vectorIdSaIdEED2Ev(ptr noundef nonnull align 8 dereferenceable(24) %m_xd) #2, !llfi_index !201
  %m_z = getelementptr inbounds %struct.Mesh, ptr %this1, i32 0, i32 2, !llfi_index !202
  call void @_ZNSt6vectorIdSaIdEED2Ev(ptr noundef nonnull align 8 dereferenceable(24) %m_z) #2, !llfi_index !203
  %m_y = getelementptr inbounds %struct.Mesh, ptr %this1, i32 0, i32 1, !llfi_index !204
  call void @_ZNSt6vectorIdSaIdEED2Ev(ptr noundef nonnull align 8 dereferenceable(24) %m_y) #2, !llfi_index !205
  %m_x = getelementptr inbounds %struct.Mesh, ptr %this1, i32 0, i32 0, !llfi_index !206
  call void @_ZNSt6vectorIdSaIdEED2Ev(ptr noundef nonnull align 8 dereferenceable(24) %m_x) #2, !llfi_index !207
  ret void, !llfi_index !208
}

; Function Attrs: noinline nounwind optnone uwtable
define linkonce_odr dso_local void @_ZNSt6vectorIdSaIdEED2Ev(ptr noundef nonnull align 8 dereferenceable(24) %this) unnamed_addr #1 comdat align 2 personality ptr @__gxx_personality_v0 {
entry:
  %this.addr = alloca ptr, align 8, !llfi_index !209
  call void @doProfiling(i32 31)
  store ptr %this, ptr %this.addr, align 8, !llfi_index !210
  %this1 = load ptr, ptr %this.addr, align 8, !llfi_index !211
  call void @doProfiling(i32 32)
  %_M_impl = getelementptr inbounds %"struct.std::_Vector_base", ptr %this1, i32 0, i32 0, !llfi_index !212
  %_M_start = getelementptr inbounds %"struct.std::_Vector_base<double, std::allocator<double>>::_Vector_impl", ptr %_M_impl, i32 0, i32 0, !llfi_index !213
  %0 = load ptr, ptr %_M_start, align 8, !llfi_index !214
  call void @doProfiling(i32 32)
  %_M_impl2 = getelementptr inbounds %"struct.std::_Vector_base", ptr %this1, i32 0, i32 0, !llfi_index !215
  %_M_finish = getelementptr inbounds %"struct.std::_Vector_base<double, std::allocator<double>>::_Vector_impl", ptr %_M_impl2, i32 0, i32 1, !llfi_index !216
  %1 = load ptr, ptr %_M_finish, align 8, !llfi_index !217
  call void @doProfiling(i32 32)
  %call = call noundef nonnull align 1 dereferenceable(1) ptr @_ZNSt12_Vector_baseIdSaIdEE19_M_get_Tp_allocatorEv(ptr noundef nonnull align 8 dereferenceable(24) %this1) #2, !llfi_index !218
  call void @doProfiling(i32 56)
  invoke void @_ZSt8_DestroyIPddEvT_S1_RSaIT0_E(ptr noundef %0, ptr noundef %1, ptr noundef nonnull align 1 dereferenceable(1) %call)
          to label %invoke.cont unwind label %terminate.lpad, !llfi_index !219

invoke.cont:                                      ; preds = %entry
  call void @_ZNSt12_Vector_baseIdSaIdEED2Ev(ptr noundef nonnull align 8 dereferenceable(24) %this1) #2, !llfi_index !220
  ret void, !llfi_index !221

terminate.lpad:                                   ; preds = %entry
  %2 = landingpad { ptr, i32 }
          catch ptr null, !llfi_index !222
  %3 = extractvalue { ptr, i32 } %2, 0, !llfi_index !223
  call void @doProfiling(i32 64)
  call void @__clang_call_terminate(ptr %3) #19, !llfi_index !224
  unreachable, !llfi_index !225
}

; Function Attrs: noinline nounwind optnone uwtable
define linkonce_odr dso_local void @_ZNSt6vectorIiSaIiEED2Ev(ptr noundef nonnull align 8 dereferenceable(24) %this) unnamed_addr #1 comdat align 2 personality ptr @__gxx_personality_v0 {
entry:
  %this.addr = alloca ptr, align 8, !llfi_index !226
  call void @doProfiling(i32 31)
  store ptr %this, ptr %this.addr, align 8, !llfi_index !227
  %this1 = load ptr, ptr %this.addr, align 8, !llfi_index !228
  call void @doProfiling(i32 32)
  %_M_impl = getelementptr inbounds %"struct.std::_Vector_base", ptr %this1, i32 0, i32 0, !llfi_index !229
  %_M_start = getelementptr inbounds %"struct.std::_Vector_base<double, std::allocator<double>>::_Vector_impl", ptr %_M_impl, i32 0, i32 0, !llfi_index !230
  %0 = load ptr, ptr %_M_start, align 8, !llfi_index !231
  call void @doProfiling(i32 32)
  %_M_impl2 = getelementptr inbounds %"struct.std::_Vector_base", ptr %this1, i32 0, i32 0, !llfi_index !232
  %_M_finish = getelementptr inbounds %"struct.std::_Vector_base<double, std::allocator<double>>::_Vector_impl", ptr %_M_impl2, i32 0, i32 1, !llfi_index !233
  %1 = load ptr, ptr %_M_finish, align 8, !llfi_index !234
  call void @doProfiling(i32 32)
  %call = call noundef nonnull align 1 dereferenceable(1) ptr @_ZNSt12_Vector_baseIiSaIiEE19_M_get_Tp_allocatorEv(ptr noundef nonnull align 8 dereferenceable(24) %this1) #2, !llfi_index !235
  call void @doProfiling(i32 56)
  invoke void @_ZSt8_DestroyIPiiEvT_S1_RSaIT0_E(ptr noundef %0, ptr noundef %1, ptr noundef nonnull align 1 dereferenceable(1) %call)
          to label %invoke.cont unwind label %terminate.lpad, !llfi_index !236

invoke.cont:                                      ; preds = %entry
  call void @_ZNSt12_Vector_baseIiSaIiEED2Ev(ptr noundef nonnull align 8 dereferenceable(24) %this1) #2, !llfi_index !237
  ret void, !llfi_index !238

terminate.lpad:                                   ; preds = %entry
  %2 = landingpad { ptr, i32 }
          catch ptr null, !llfi_index !239
  %3 = extractvalue { ptr, i32 } %2, 0, !llfi_index !240
  call void @doProfiling(i32 64)
  call void @__clang_call_terminate(ptr %3) #19, !llfi_index !241
  unreachable, !llfi_index !242
}

declare i32 @__gxx_personality_v0(...)

; Function Attrs: mustprogress noinline nounwind optnone uwtable
define linkonce_odr dso_local noundef nonnull align 1 dereferenceable(1) ptr @_ZNSt12_Vector_baseIiSaIiEE19_M_get_Tp_allocatorEv(ptr noundef nonnull align 8 dereferenceable(24) %this) #3 comdat align 2 {
entry:
  %this.addr = alloca ptr, align 8, !llfi_index !243
  call void @doProfiling(i32 31)
  store ptr %this, ptr %this.addr, align 8, !llfi_index !244
  %this1 = load ptr, ptr %this.addr, align 8, !llfi_index !245
  call void @doProfiling(i32 32)
  %_M_impl = getelementptr inbounds %"struct.std::_Vector_base", ptr %this1, i32 0, i32 0, !llfi_index !246
  ret ptr %_M_impl, !llfi_index !247
}

; Function Attrs: mustprogress noinline optnone uwtable
define linkonce_odr dso_local void @_ZSt8_DestroyIPiiEvT_S1_RSaIT0_E(ptr noundef %__first, ptr noundef %__last, ptr noundef nonnull align 1 dereferenceable(1) %0) #4 comdat {
entry:
  %__first.addr = alloca ptr, align 8, !llfi_index !248
  call void @doProfiling(i32 31)
  %__last.addr = alloca ptr, align 8, !llfi_index !249
  call void @doProfiling(i32 31)
  %.addr = alloca ptr, align 8, !llfi_index !250
  call void @doProfiling(i32 31)
  store ptr %__first, ptr %__first.addr, align 8, !llfi_index !251
  store ptr %__last, ptr %__last.addr, align 8, !llfi_index !252
  store ptr %0, ptr %.addr, align 8, !llfi_index !253
  %1 = load ptr, ptr %__first.addr, align 8, !llfi_index !254
  call void @doProfiling(i32 32)
  %2 = load ptr, ptr %__last.addr, align 8, !llfi_index !255
  call void @doProfiling(i32 32)
  call void @_ZSt8_DestroyIPiEvT_S1_(ptr noundef %1, ptr noundef %2), !llfi_index !256
  ret void, !llfi_index !257
}

; Function Attrs: noinline nounwind optnone uwtable
define linkonce_odr dso_local void @_ZNSt12_Vector_baseIiSaIiEED2Ev(ptr noundef nonnull align 8 dereferenceable(24) %this) unnamed_addr #1 comdat align 2 personality ptr @__gxx_personality_v0 {
entry:
  %this.addr = alloca ptr, align 8, !llfi_index !258
  call void @doProfiling(i32 31)
  store ptr %this, ptr %this.addr, align 8, !llfi_index !259
  %this1 = load ptr, ptr %this.addr, align 8, !llfi_index !260
  call void @doProfiling(i32 32)
  %_M_impl = getelementptr inbounds %"struct.std::_Vector_base", ptr %this1, i32 0, i32 0, !llfi_index !261
  %_M_start = getelementptr inbounds %"struct.std::_Vector_base<double, std::allocator<double>>::_Vector_impl", ptr %_M_impl, i32 0, i32 0, !llfi_index !262
  %0 = load ptr, ptr %_M_start, align 8, !llfi_index !263
  call void @doProfiling(i32 32)
  %_M_impl2 = getelementptr inbounds %"struct.std::_Vector_base", ptr %this1, i32 0, i32 0, !llfi_index !264
  %_M_end_of_storage = getelementptr inbounds %"struct.std::_Vector_base<double, std::allocator<double>>::_Vector_impl", ptr %_M_impl2, i32 0, i32 2, !llfi_index !265
  %1 = load ptr, ptr %_M_end_of_storage, align 8, !llfi_index !266
  call void @doProfiling(i32 32)
  %_M_impl3 = getelementptr inbounds %"struct.std::_Vector_base", ptr %this1, i32 0, i32 0, !llfi_index !267
  %_M_start4 = getelementptr inbounds %"struct.std::_Vector_base<double, std::allocator<double>>::_Vector_impl", ptr %_M_impl3, i32 0, i32 0, !llfi_index !268
  %2 = load ptr, ptr %_M_start4, align 8, !llfi_index !269
  call void @doProfiling(i32 32)
  %sub.ptr.lhs.cast = ptrtoint ptr %1 to i64, !llfi_index !270
  call void @doProfiling(i32 47)
  %sub.ptr.rhs.cast = ptrtoint ptr %2 to i64, !llfi_index !271
  call void @doProfiling(i32 47)
  %sub.ptr.sub = sub i64 %sub.ptr.lhs.cast, %sub.ptr.rhs.cast, !llfi_index !272
  call void @doProfiling(i32 15)
  %sub.ptr.div = sdiv exact i64 %sub.ptr.sub, 4, !llfi_index !273
  call void @doProfiling(i32 20)
  invoke void @_ZNSt12_Vector_baseIiSaIiEE13_M_deallocateEPim(ptr noundef nonnull align 8 dereferenceable(24) %this1, ptr noundef %0, i64 noundef %sub.ptr.div)
          to label %invoke.cont unwind label %terminate.lpad, !llfi_index !274

invoke.cont:                                      ; preds = %entry
  %_M_impl5 = getelementptr inbounds %"struct.std::_Vector_base", ptr %this1, i32 0, i32 0, !llfi_index !275
  call void @_ZNSt12_Vector_baseIiSaIiEE12_Vector_implD2Ev(ptr noundef nonnull align 8 dereferenceable(24) %_M_impl5) #2, !llfi_index !276
  ret void, !llfi_index !277

terminate.lpad:                                   ; preds = %entry
  %3 = landingpad { ptr, i32 }
          catch ptr null, !llfi_index !278
  %4 = extractvalue { ptr, i32 } %3, 0, !llfi_index !279
  call void @doProfiling(i32 64)
  call void @__clang_call_terminate(ptr %4) #19, !llfi_index !280
  unreachable, !llfi_index !281
}

; Function Attrs: noinline noreturn nounwind
define linkonce_odr hidden void @__clang_call_terminate(ptr %0) #5 comdat {
  %2 = call ptr @__cxa_begin_catch(ptr %0) #2, !llfi_index !282
  call void @doProfiling(i32 56)
  call void @_ZSt9terminatev() #19, !llfi_index !283
  unreachable, !llfi_index !284
}

declare ptr @__cxa_begin_catch(ptr)

declare void @_ZSt9terminatev()

; Function Attrs: mustprogress noinline optnone uwtable
define linkonce_odr dso_local void @_ZNSt12_Vector_baseIiSaIiEE13_M_deallocateEPim(ptr noundef nonnull align 8 dereferenceable(24) %this, ptr noundef %__p, i64 noundef %__n) #4 comdat align 2 {
entry:
  %this.addr = alloca ptr, align 8, !llfi_index !285
  call void @doProfiling(i32 31)
  %__p.addr = alloca ptr, align 8, !llfi_index !286
  call void @doProfiling(i32 31)
  %__n.addr = alloca i64, align 8, !llfi_index !287
  call void @doProfiling(i32 31)
  store ptr %this, ptr %this.addr, align 8, !llfi_index !288
  store ptr %__p, ptr %__p.addr, align 8, !llfi_index !289
  store i64 %__n, ptr %__n.addr, align 8, !llfi_index !290
  %this1 = load ptr, ptr %this.addr, align 8, !llfi_index !291
  call void @doProfiling(i32 32)
  %0 = load ptr, ptr %__p.addr, align 8, !llfi_index !292
  call void @doProfiling(i32 32)
  %tobool = icmp ne ptr %0, null, !llfi_index !293
  call void @doProfiling(i32 53)
  br i1 %tobool, label %if.then, label %if.end, !llfi_index !294

if.then:                                          ; preds = %entry
  %_M_impl = getelementptr inbounds %"struct.std::_Vector_base", ptr %this1, i32 0, i32 0, !llfi_index !295
  %1 = load ptr, ptr %__p.addr, align 8, !llfi_index !296
  call void @doProfiling(i32 32)
  %2 = load i64, ptr %__n.addr, align 8, !llfi_index !297
  call void @doProfiling(i32 32)
  call void @_ZNSt16allocator_traitsISaIiEE10deallocateERS0_Pim(ptr noundef nonnull align 1 dereferenceable(1) %_M_impl, ptr noundef %1, i64 noundef %2), !llfi_index !298
  br label %if.end, !llfi_index !299

if.end:                                           ; preds = %if.then, %entry
  ret void, !llfi_index !300
}

; Function Attrs: noinline nounwind optnone uwtable
define linkonce_odr dso_local void @_ZNSt12_Vector_baseIiSaIiEE12_Vector_implD2Ev(ptr noundef nonnull align 8 dereferenceable(24) %this) unnamed_addr #1 comdat align 2 {
entry:
  %this.addr = alloca ptr, align 8, !llfi_index !301
  call void @doProfiling(i32 31)
  store ptr %this, ptr %this.addr, align 8, !llfi_index !302
  %this1 = load ptr, ptr %this.addr, align 8, !llfi_index !303
  call void @doProfiling(i32 32)
  call void @_ZNSaIiED2Ev(ptr noundef nonnull align 1 dereferenceable(1) %this1) #2, !llfi_index !304
  ret void, !llfi_index !305
}

; Function Attrs: noinline nounwind optnone uwtable
define linkonce_odr dso_local void @_ZNSaIiED2Ev(ptr noundef nonnull align 1 dereferenceable(1) %this) unnamed_addr #1 comdat align 2 {
entry:
  %this.addr = alloca ptr, align 8, !llfi_index !306
  call void @doProfiling(i32 31)
  store ptr %this, ptr %this.addr, align 8, !llfi_index !307
  %this1 = load ptr, ptr %this.addr, align 8, !llfi_index !308
  call void @doProfiling(i32 32)
  call void @_ZN9__gnu_cxx13new_allocatorIiED2Ev(ptr noundef nonnull align 1 dereferenceable(1) %this1) #2, !llfi_index !309
  ret void, !llfi_index !310
}

; Function Attrs: noinline nounwind optnone uwtable
define linkonce_odr dso_local void @_ZN9__gnu_cxx13new_allocatorIiED2Ev(ptr noundef nonnull align 1 dereferenceable(1) %this) unnamed_addr #1 comdat align 2 {
entry:
  %this.addr = alloca ptr, align 8, !llfi_index !311
  call void @doProfiling(i32 31)
  store ptr %this, ptr %this.addr, align 8, !llfi_index !312
  %this1 = load ptr, ptr %this.addr, align 8, !llfi_index !313
  call void @doProfiling(i32 32)
  ret void, !llfi_index !314
}

; Function Attrs: mustprogress noinline optnone uwtable
define linkonce_odr dso_local void @_ZNSt16allocator_traitsISaIiEE10deallocateERS0_Pim(ptr noundef nonnull align 1 dereferenceable(1) %__a, ptr noundef %__p, i64 noundef %__n) #4 comdat align 2 {
entry:
  %__a.addr = alloca ptr, align 8, !llfi_index !315
  call void @doProfiling(i32 31)
  %__p.addr = alloca ptr, align 8, !llfi_index !316
  call void @doProfiling(i32 31)
  %__n.addr = alloca i64, align 8, !llfi_index !317
  call void @doProfiling(i32 31)
  store ptr %__a, ptr %__a.addr, align 8, !llfi_index !318
  store ptr %__p, ptr %__p.addr, align 8, !llfi_index !319
  store i64 %__n, ptr %__n.addr, align 8, !llfi_index !320
  %0 = load ptr, ptr %__a.addr, align 8, !llfi_index !321
  call void @doProfiling(i32 32)
  %1 = load ptr, ptr %__p.addr, align 8, !llfi_index !322
  call void @doProfiling(i32 32)
  %2 = load i64, ptr %__n.addr, align 8, !llfi_index !323
  call void @doProfiling(i32 32)
  call void @_ZN9__gnu_cxx13new_allocatorIiE10deallocateEPim(ptr noundef nonnull align 1 dereferenceable(1) %0, ptr noundef %1, i64 noundef %2), !llfi_index !324
  ret void, !llfi_index !325
}

; Function Attrs: mustprogress noinline nounwind optnone uwtable
define linkonce_odr dso_local void @_ZN9__gnu_cxx13new_allocatorIiE10deallocateEPim(ptr noundef nonnull align 1 dereferenceable(1) %this, ptr noundef %__p, i64 noundef %0) #3 comdat align 2 {
entry:
  %this.addr = alloca ptr, align 8, !llfi_index !326
  call void @doProfiling(i32 31)
  %__p.addr = alloca ptr, align 8, !llfi_index !327
  call void @doProfiling(i32 31)
  %.addr = alloca i64, align 8, !llfi_index !328
  call void @doProfiling(i32 31)
  store ptr %this, ptr %this.addr, align 8, !llfi_index !329
  store ptr %__p, ptr %__p.addr, align 8, !llfi_index !330
  store i64 %0, ptr %.addr, align 8, !llfi_index !331
  %this1 = load ptr, ptr %this.addr, align 8, !llfi_index !332
  call void @doProfiling(i32 32)
  %1 = load ptr, ptr %__p.addr, align 8, !llfi_index !333
  call void @doProfiling(i32 32)
  call void @_ZdlPv(ptr noundef %1) #2, !llfi_index !334
  ret void, !llfi_index !335
}

; Function Attrs: nobuiltin nounwind
declare void @_ZdlPv(ptr noundef) #6

; Function Attrs: mustprogress noinline optnone uwtable
define linkonce_odr dso_local void @_ZSt8_DestroyIPiEvT_S1_(ptr noundef %__first, ptr noundef %__last) #4 comdat {
entry:
  %__first.addr = alloca ptr, align 8, !llfi_index !336
  call void @doProfiling(i32 31)
  %__last.addr = alloca ptr, align 8, !llfi_index !337
  call void @doProfiling(i32 31)
  store ptr %__first, ptr %__first.addr, align 8, !llfi_index !338
  store ptr %__last, ptr %__last.addr, align 8, !llfi_index !339
  %0 = load ptr, ptr %__first.addr, align 8, !llfi_index !340
  call void @doProfiling(i32 32)
  %1 = load ptr, ptr %__last.addr, align 8, !llfi_index !341
  call void @doProfiling(i32 32)
  call void @_ZNSt12_Destroy_auxILb1EE9__destroyIPiEEvT_S3_(ptr noundef %0, ptr noundef %1), !llfi_index !342
  ret void, !llfi_index !343
}

; Function Attrs: mustprogress noinline nounwind optnone uwtable
define linkonce_odr dso_local void @_ZNSt12_Destroy_auxILb1EE9__destroyIPiEEvT_S3_(ptr noundef %0, ptr noundef %1) #3 comdat align 2 {
entry:
  %.addr = alloca ptr, align 8, !llfi_index !344
  call void @doProfiling(i32 31)
  %.addr1 = alloca ptr, align 8, !llfi_index !345
  call void @doProfiling(i32 31)
  store ptr %0, ptr %.addr, align 8, !llfi_index !346
  store ptr %1, ptr %.addr1, align 8, !llfi_index !347
  ret void, !llfi_index !348
}

; Function Attrs: mustprogress noinline nounwind optnone uwtable
define linkonce_odr dso_local noundef nonnull align 1 dereferenceable(1) ptr @_ZNSt12_Vector_baseIdSaIdEE19_M_get_Tp_allocatorEv(ptr noundef nonnull align 8 dereferenceable(24) %this) #3 comdat align 2 {
entry:
  %this.addr = alloca ptr, align 8, !llfi_index !349
  call void @doProfiling(i32 31)
  store ptr %this, ptr %this.addr, align 8, !llfi_index !350
  %this1 = load ptr, ptr %this.addr, align 8, !llfi_index !351
  call void @doProfiling(i32 32)
  %_M_impl = getelementptr inbounds %"struct.std::_Vector_base", ptr %this1, i32 0, i32 0, !llfi_index !352
  ret ptr %_M_impl, !llfi_index !353
}

; Function Attrs: mustprogress noinline optnone uwtable
define linkonce_odr dso_local void @_ZSt8_DestroyIPddEvT_S1_RSaIT0_E(ptr noundef %__first, ptr noundef %__last, ptr noundef nonnull align 1 dereferenceable(1) %0) #4 comdat {
entry:
  %__first.addr = alloca ptr, align 8, !llfi_index !354
  call void @doProfiling(i32 31)
  %__last.addr = alloca ptr, align 8, !llfi_index !355
  call void @doProfiling(i32 31)
  %.addr = alloca ptr, align 8, !llfi_index !356
  call void @doProfiling(i32 31)
  store ptr %__first, ptr %__first.addr, align 8, !llfi_index !357
  store ptr %__last, ptr %__last.addr, align 8, !llfi_index !358
  store ptr %0, ptr %.addr, align 8, !llfi_index !359
  %1 = load ptr, ptr %__first.addr, align 8, !llfi_index !360
  call void @doProfiling(i32 32)
  %2 = load ptr, ptr %__last.addr, align 8, !llfi_index !361
  call void @doProfiling(i32 32)
  call void @_ZSt8_DestroyIPdEvT_S1_(ptr noundef %1, ptr noundef %2), !llfi_index !362
  ret void, !llfi_index !363
}

; Function Attrs: noinline nounwind optnone uwtable
define linkonce_odr dso_local void @_ZNSt12_Vector_baseIdSaIdEED2Ev(ptr noundef nonnull align 8 dereferenceable(24) %this) unnamed_addr #1 comdat align 2 personality ptr @__gxx_personality_v0 {
entry:
  %this.addr = alloca ptr, align 8, !llfi_index !364
  call void @doProfiling(i32 31)
  store ptr %this, ptr %this.addr, align 8, !llfi_index !365
  %this1 = load ptr, ptr %this.addr, align 8, !llfi_index !366
  call void @doProfiling(i32 32)
  %_M_impl = getelementptr inbounds %"struct.std::_Vector_base", ptr %this1, i32 0, i32 0, !llfi_index !367
  %_M_start = getelementptr inbounds %"struct.std::_Vector_base<double, std::allocator<double>>::_Vector_impl", ptr %_M_impl, i32 0, i32 0, !llfi_index !368
  %0 = load ptr, ptr %_M_start, align 8, !llfi_index !369
  call void @doProfiling(i32 32)
  %_M_impl2 = getelementptr inbounds %"struct.std::_Vector_base", ptr %this1, i32 0, i32 0, !llfi_index !370
  %_M_end_of_storage = getelementptr inbounds %"struct.std::_Vector_base<double, std::allocator<double>>::_Vector_impl", ptr %_M_impl2, i32 0, i32 2, !llfi_index !371
  %1 = load ptr, ptr %_M_end_of_storage, align 8, !llfi_index !372
  call void @doProfiling(i32 32)
  %_M_impl3 = getelementptr inbounds %"struct.std::_Vector_base", ptr %this1, i32 0, i32 0, !llfi_index !373
  %_M_start4 = getelementptr inbounds %"struct.std::_Vector_base<double, std::allocator<double>>::_Vector_impl", ptr %_M_impl3, i32 0, i32 0, !llfi_index !374
  %2 = load ptr, ptr %_M_start4, align 8, !llfi_index !375
  call void @doProfiling(i32 32)
  %sub.ptr.lhs.cast = ptrtoint ptr %1 to i64, !llfi_index !376
  call void @doProfiling(i32 47)
  %sub.ptr.rhs.cast = ptrtoint ptr %2 to i64, !llfi_index !377
  call void @doProfiling(i32 47)
  %sub.ptr.sub = sub i64 %sub.ptr.lhs.cast, %sub.ptr.rhs.cast, !llfi_index !378
  call void @doProfiling(i32 15)
  %sub.ptr.div = sdiv exact i64 %sub.ptr.sub, 8, !llfi_index !379
  call void @doProfiling(i32 20)
  invoke void @_ZNSt12_Vector_baseIdSaIdEE13_M_deallocateEPdm(ptr noundef nonnull align 8 dereferenceable(24) %this1, ptr noundef %0, i64 noundef %sub.ptr.div)
          to label %invoke.cont unwind label %terminate.lpad, !llfi_index !380

invoke.cont:                                      ; preds = %entry
  %_M_impl5 = getelementptr inbounds %"struct.std::_Vector_base", ptr %this1, i32 0, i32 0, !llfi_index !381
  call void @_ZNSt12_Vector_baseIdSaIdEE12_Vector_implD2Ev(ptr noundef nonnull align 8 dereferenceable(24) %_M_impl5) #2, !llfi_index !382
  ret void, !llfi_index !383

terminate.lpad:                                   ; preds = %entry
  %3 = landingpad { ptr, i32 }
          catch ptr null, !llfi_index !384
  %4 = extractvalue { ptr, i32 } %3, 0, !llfi_index !385
  call void @doProfiling(i32 64)
  call void @__clang_call_terminate(ptr %4) #19, !llfi_index !386
  unreachable, !llfi_index !387
}

; Function Attrs: mustprogress noinline optnone uwtable
define linkonce_odr dso_local void @_ZNSt12_Vector_baseIdSaIdEE13_M_deallocateEPdm(ptr noundef nonnull align 8 dereferenceable(24) %this, ptr noundef %__p, i64 noundef %__n) #4 comdat align 2 {
entry:
  %this.addr = alloca ptr, align 8, !llfi_index !388
  call void @doProfiling(i32 31)
  %__p.addr = alloca ptr, align 8, !llfi_index !389
  call void @doProfiling(i32 31)
  %__n.addr = alloca i64, align 8, !llfi_index !390
  call void @doProfiling(i32 31)
  store ptr %this, ptr %this.addr, align 8, !llfi_index !391
  store ptr %__p, ptr %__p.addr, align 8, !llfi_index !392
  store i64 %__n, ptr %__n.addr, align 8, !llfi_index !393
  %this1 = load ptr, ptr %this.addr, align 8, !llfi_index !394
  call void @doProfiling(i32 32)
  %0 = load ptr, ptr %__p.addr, align 8, !llfi_index !395
  call void @doProfiling(i32 32)
  %tobool = icmp ne ptr %0, null, !llfi_index !396
  call void @doProfiling(i32 53)
  br i1 %tobool, label %if.then, label %if.end, !llfi_index !397

if.then:                                          ; preds = %entry
  %_M_impl = getelementptr inbounds %"struct.std::_Vector_base", ptr %this1, i32 0, i32 0, !llfi_index !398
  %1 = load ptr, ptr %__p.addr, align 8, !llfi_index !399
  call void @doProfiling(i32 32)
  %2 = load i64, ptr %__n.addr, align 8, !llfi_index !400
  call void @doProfiling(i32 32)
  call void @_ZNSt16allocator_traitsISaIdEE10deallocateERS0_Pdm(ptr noundef nonnull align 1 dereferenceable(1) %_M_impl, ptr noundef %1, i64 noundef %2), !llfi_index !401
  br label %if.end, !llfi_index !402

if.end:                                           ; preds = %if.then, %entry
  ret void, !llfi_index !403
}

; Function Attrs: noinline nounwind optnone uwtable
define linkonce_odr dso_local void @_ZNSt12_Vector_baseIdSaIdEE12_Vector_implD2Ev(ptr noundef nonnull align 8 dereferenceable(24) %this) unnamed_addr #1 comdat align 2 {
entry:
  %this.addr = alloca ptr, align 8, !llfi_index !404
  call void @doProfiling(i32 31)
  store ptr %this, ptr %this.addr, align 8, !llfi_index !405
  %this1 = load ptr, ptr %this.addr, align 8, !llfi_index !406
  call void @doProfiling(i32 32)
  call void @_ZNSaIdED2Ev(ptr noundef nonnull align 1 dereferenceable(1) %this1) #2, !llfi_index !407
  ret void, !llfi_index !408
}

; Function Attrs: noinline nounwind optnone uwtable
define linkonce_odr dso_local void @_ZNSaIdED2Ev(ptr noundef nonnull align 1 dereferenceable(1) %this) unnamed_addr #1 comdat align 2 {
entry:
  %this.addr = alloca ptr, align 8, !llfi_index !409
  call void @doProfiling(i32 31)
  store ptr %this, ptr %this.addr, align 8, !llfi_index !410
  %this1 = load ptr, ptr %this.addr, align 8, !llfi_index !411
  call void @doProfiling(i32 32)
  call void @_ZN9__gnu_cxx13new_allocatorIdED2Ev(ptr noundef nonnull align 1 dereferenceable(1) %this1) #2, !llfi_index !412
  ret void, !llfi_index !413
}

; Function Attrs: noinline nounwind optnone uwtable
define linkonce_odr dso_local void @_ZN9__gnu_cxx13new_allocatorIdED2Ev(ptr noundef nonnull align 1 dereferenceable(1) %this) unnamed_addr #1 comdat align 2 {
entry:
  %this.addr = alloca ptr, align 8, !llfi_index !414
  call void @doProfiling(i32 31)
  store ptr %this, ptr %this.addr, align 8, !llfi_index !415
  %this1 = load ptr, ptr %this.addr, align 8, !llfi_index !416
  call void @doProfiling(i32 32)
  ret void, !llfi_index !417
}

; Function Attrs: mustprogress noinline optnone uwtable
define linkonce_odr dso_local void @_ZNSt16allocator_traitsISaIdEE10deallocateERS0_Pdm(ptr noundef nonnull align 1 dereferenceable(1) %__a, ptr noundef %__p, i64 noundef %__n) #4 comdat align 2 {
entry:
  %__a.addr = alloca ptr, align 8, !llfi_index !418
  call void @doProfiling(i32 31)
  %__p.addr = alloca ptr, align 8, !llfi_index !419
  call void @doProfiling(i32 31)
  %__n.addr = alloca i64, align 8, !llfi_index !420
  call void @doProfiling(i32 31)
  store ptr %__a, ptr %__a.addr, align 8, !llfi_index !421
  store ptr %__p, ptr %__p.addr, align 8, !llfi_index !422
  store i64 %__n, ptr %__n.addr, align 8, !llfi_index !423
  %0 = load ptr, ptr %__a.addr, align 8, !llfi_index !424
  call void @doProfiling(i32 32)
  %1 = load ptr, ptr %__p.addr, align 8, !llfi_index !425
  call void @doProfiling(i32 32)
  %2 = load i64, ptr %__n.addr, align 8, !llfi_index !426
  call void @doProfiling(i32 32)
  call void @_ZN9__gnu_cxx13new_allocatorIdE10deallocateEPdm(ptr noundef nonnull align 1 dereferenceable(1) %0, ptr noundef %1, i64 noundef %2), !llfi_index !427
  ret void, !llfi_index !428
}

; Function Attrs: mustprogress noinline nounwind optnone uwtable
define linkonce_odr dso_local void @_ZN9__gnu_cxx13new_allocatorIdE10deallocateEPdm(ptr noundef nonnull align 1 dereferenceable(1) %this, ptr noundef %__p, i64 noundef %0) #3 comdat align 2 {
entry:
  %this.addr = alloca ptr, align 8, !llfi_index !429
  call void @doProfiling(i32 31)
  %__p.addr = alloca ptr, align 8, !llfi_index !430
  call void @doProfiling(i32 31)
  %.addr = alloca i64, align 8, !llfi_index !431
  call void @doProfiling(i32 31)
  store ptr %this, ptr %this.addr, align 8, !llfi_index !432
  store ptr %__p, ptr %__p.addr, align 8, !llfi_index !433
  store i64 %0, ptr %.addr, align 8, !llfi_index !434
  %this1 = load ptr, ptr %this.addr, align 8, !llfi_index !435
  call void @doProfiling(i32 32)
  %1 = load ptr, ptr %__p.addr, align 8, !llfi_index !436
  call void @doProfiling(i32 32)
  call void @_ZdlPv(ptr noundef %1) #2, !llfi_index !437
  ret void, !llfi_index !438
}

; Function Attrs: mustprogress noinline optnone uwtable
define linkonce_odr dso_local void @_ZSt8_DestroyIPdEvT_S1_(ptr noundef %__first, ptr noundef %__last) #4 comdat {
entry:
  %__first.addr = alloca ptr, align 8, !llfi_index !439
  call void @doProfiling(i32 31)
  %__last.addr = alloca ptr, align 8, !llfi_index !440
  call void @doProfiling(i32 31)
  store ptr %__first, ptr %__first.addr, align 8, !llfi_index !441
  store ptr %__last, ptr %__last.addr, align 8, !llfi_index !442
  %0 = load ptr, ptr %__first.addr, align 8, !llfi_index !443
  call void @doProfiling(i32 32)
  %1 = load ptr, ptr %__last.addr, align 8, !llfi_index !444
  call void @doProfiling(i32 32)
  call void @_ZNSt12_Destroy_auxILb1EE9__destroyIPdEEvT_S3_(ptr noundef %0, ptr noundef %1), !llfi_index !445
  ret void, !llfi_index !446
}

; Function Attrs: mustprogress noinline nounwind optnone uwtable
define linkonce_odr dso_local void @_ZNSt12_Destroy_auxILb1EE9__destroyIPdEEvT_S3_(ptr noundef %0, ptr noundef %1) #3 comdat align 2 {
entry:
  %.addr = alloca ptr, align 8, !llfi_index !447
  call void @doProfiling(i32 31)
  %.addr1 = alloca ptr, align 8, !llfi_index !448
  call void @doProfiling(i32 31)
  store ptr %0, ptr %.addr, align 8, !llfi_index !449
  store ptr %1, ptr %.addr1, align 8, !llfi_index !450
  ret void, !llfi_index !451
}

; Function Attrs: noinline nounwind optnone uwtable
define linkonce_odr dso_local void @_ZNSt6vectorIdSaIdEEC2Ev(ptr noundef nonnull align 8 dereferenceable(24) %this) unnamed_addr #1 comdat align 2 personality ptr @__gxx_personality_v0 {
entry:
  %this.addr = alloca ptr, align 8, !llfi_index !452
  call void @doProfiling(i32 31)
  store ptr %this, ptr %this.addr, align 8, !llfi_index !453
  %this1 = load ptr, ptr %this.addr, align 8, !llfi_index !454
  call void @doProfiling(i32 32)
  invoke void @_ZNSt12_Vector_baseIdSaIdEEC2Ev(ptr noundef nonnull align 8 dereferenceable(24) %this1)
          to label %invoke.cont unwind label %terminate.lpad, !llfi_index !455

invoke.cont:                                      ; preds = %entry
  ret void, !llfi_index !456

terminate.lpad:                                   ; preds = %entry
  %0 = landingpad { ptr, i32 }
          catch ptr null, !llfi_index !457
  %1 = extractvalue { ptr, i32 } %0, 0, !llfi_index !458
  call void @doProfiling(i32 64)
  call void @__clang_call_terminate(ptr %1) #19, !llfi_index !459
  unreachable, !llfi_index !460
}

; Function Attrs: noinline nounwind optnone uwtable
define linkonce_odr dso_local void @_ZNSt6vectorIiSaIiEEC2Ev(ptr noundef nonnull align 8 dereferenceable(24) %this) unnamed_addr #1 comdat align 2 personality ptr @__gxx_personality_v0 {
entry:
  %this.addr = alloca ptr, align 8, !llfi_index !461
  call void @doProfiling(i32 31)
  store ptr %this, ptr %this.addr, align 8, !llfi_index !462
  %this1 = load ptr, ptr %this.addr, align 8, !llfi_index !463
  call void @doProfiling(i32 32)
  invoke void @_ZNSt12_Vector_baseIiSaIiEEC2Ev(ptr noundef nonnull align 8 dereferenceable(24) %this1)
          to label %invoke.cont unwind label %terminate.lpad, !llfi_index !464

invoke.cont:                                      ; preds = %entry
  ret void, !llfi_index !465

terminate.lpad:                                   ; preds = %entry
  %0 = landingpad { ptr, i32 }
          catch ptr null, !llfi_index !466
  %1 = extractvalue { ptr, i32 } %0, 0, !llfi_index !467
  call void @doProfiling(i32 64)
  call void @__clang_call_terminate(ptr %1) #19, !llfi_index !468
  unreachable, !llfi_index !469
}

; Function Attrs: noinline optnone uwtable
define linkonce_odr dso_local void @_ZNSt12_Vector_baseIiSaIiEEC2Ev(ptr noundef nonnull align 8 dereferenceable(24) %this) unnamed_addr #7 comdat align 2 {
entry:
  %this.addr = alloca ptr, align 8, !llfi_index !470
  call void @doProfiling(i32 31)
  store ptr %this, ptr %this.addr, align 8, !llfi_index !471
  %this1 = load ptr, ptr %this.addr, align 8, !llfi_index !472
  call void @doProfiling(i32 32)
  %_M_impl = getelementptr inbounds %"struct.std::_Vector_base", ptr %this1, i32 0, i32 0, !llfi_index !473
  call void @_ZNSt12_Vector_baseIiSaIiEE12_Vector_implC2Ev(ptr noundef nonnull align 8 dereferenceable(24) %_M_impl), !llfi_index !474
  ret void, !llfi_index !475
}

; Function Attrs: noinline nounwind optnone uwtable
define linkonce_odr dso_local void @_ZNSt12_Vector_baseIiSaIiEE12_Vector_implC2Ev(ptr noundef nonnull align 8 dereferenceable(24) %this) unnamed_addr #1 comdat align 2 {
entry:
  %this.addr = alloca ptr, align 8, !llfi_index !476
  call void @doProfiling(i32 31)
  store ptr %this, ptr %this.addr, align 8, !llfi_index !477
  %this1 = load ptr, ptr %this.addr, align 8, !llfi_index !478
  call void @doProfiling(i32 32)
  call void @_ZNSaIiEC2Ev(ptr noundef nonnull align 1 dereferenceable(1) %this1) #2, !llfi_index !479
  %_M_start = getelementptr inbounds %"struct.std::_Vector_base<double, std::allocator<double>>::_Vector_impl", ptr %this1, i32 0, i32 0, !llfi_index !480
  store ptr null, ptr %_M_start, align 8, !llfi_index !481
  %_M_finish = getelementptr inbounds %"struct.std::_Vector_base<double, std::allocator<double>>::_Vector_impl", ptr %this1, i32 0, i32 1, !llfi_index !482
  store ptr null, ptr %_M_finish, align 8, !llfi_index !483
  %_M_end_of_storage = getelementptr inbounds %"struct.std::_Vector_base<double, std::allocator<double>>::_Vector_impl", ptr %this1, i32 0, i32 2, !llfi_index !484
  store ptr null, ptr %_M_end_of_storage, align 8, !llfi_index !485
  ret void, !llfi_index !486
}

; Function Attrs: noinline nounwind optnone uwtable
define linkonce_odr dso_local void @_ZNSaIiEC2Ev(ptr noundef nonnull align 1 dereferenceable(1) %this) unnamed_addr #1 comdat align 2 {
entry:
  %this.addr = alloca ptr, align 8, !llfi_index !487
  call void @doProfiling(i32 31)
  store ptr %this, ptr %this.addr, align 8, !llfi_index !488
  %this1 = load ptr, ptr %this.addr, align 8, !llfi_index !489
  call void @doProfiling(i32 32)
  call void @_ZN9__gnu_cxx13new_allocatorIiEC2Ev(ptr noundef nonnull align 1 dereferenceable(1) %this1) #2, !llfi_index !490
  ret void, !llfi_index !491
}

; Function Attrs: noinline nounwind optnone uwtable
define linkonce_odr dso_local void @_ZN9__gnu_cxx13new_allocatorIiEC2Ev(ptr noundef nonnull align 1 dereferenceable(1) %this) unnamed_addr #1 comdat align 2 {
entry:
  %this.addr = alloca ptr, align 8, !llfi_index !492
  call void @doProfiling(i32 31)
  store ptr %this, ptr %this.addr, align 8, !llfi_index !493
  %this1 = load ptr, ptr %this.addr, align 8, !llfi_index !494
  call void @doProfiling(i32 32)
  ret void, !llfi_index !495
}

; Function Attrs: noinline optnone uwtable
define linkonce_odr dso_local void @_ZNSt12_Vector_baseIdSaIdEEC2Ev(ptr noundef nonnull align 8 dereferenceable(24) %this) unnamed_addr #7 comdat align 2 {
entry:
  %this.addr = alloca ptr, align 8, !llfi_index !496
  call void @doProfiling(i32 31)
  store ptr %this, ptr %this.addr, align 8, !llfi_index !497
  %this1 = load ptr, ptr %this.addr, align 8, !llfi_index !498
  call void @doProfiling(i32 32)
  %_M_impl = getelementptr inbounds %"struct.std::_Vector_base", ptr %this1, i32 0, i32 0, !llfi_index !499
  call void @_ZNSt12_Vector_baseIdSaIdEE12_Vector_implC2Ev(ptr noundef nonnull align 8 dereferenceable(24) %_M_impl), !llfi_index !500
  ret void, !llfi_index !501
}

; Function Attrs: noinline nounwind optnone uwtable
define linkonce_odr dso_local void @_ZNSt12_Vector_baseIdSaIdEE12_Vector_implC2Ev(ptr noundef nonnull align 8 dereferenceable(24) %this) unnamed_addr #1 comdat align 2 {
entry:
  %this.addr = alloca ptr, align 8, !llfi_index !502
  call void @doProfiling(i32 31)
  store ptr %this, ptr %this.addr, align 8, !llfi_index !503
  %this1 = load ptr, ptr %this.addr, align 8, !llfi_index !504
  call void @doProfiling(i32 32)
  call void @_ZNSaIdEC2Ev(ptr noundef nonnull align 1 dereferenceable(1) %this1) #2, !llfi_index !505
  %_M_start = getelementptr inbounds %"struct.std::_Vector_base<double, std::allocator<double>>::_Vector_impl", ptr %this1, i32 0, i32 0, !llfi_index !506
  store ptr null, ptr %_M_start, align 8, !llfi_index !507
  %_M_finish = getelementptr inbounds %"struct.std::_Vector_base<double, std::allocator<double>>::_Vector_impl", ptr %this1, i32 0, i32 1, !llfi_index !508
  store ptr null, ptr %_M_finish, align 8, !llfi_index !509
  %_M_end_of_storage = getelementptr inbounds %"struct.std::_Vector_base<double, std::allocator<double>>::_Vector_impl", ptr %this1, i32 0, i32 2, !llfi_index !510
  store ptr null, ptr %_M_end_of_storage, align 8, !llfi_index !511
  ret void, !llfi_index !512
}

; Function Attrs: noinline nounwind optnone uwtable
define linkonce_odr dso_local void @_ZNSaIdEC2Ev(ptr noundef nonnull align 1 dereferenceable(1) %this) unnamed_addr #1 comdat align 2 {
entry:
  %this.addr = alloca ptr, align 8, !llfi_index !513
  call void @doProfiling(i32 31)
  store ptr %this, ptr %this.addr, align 8, !llfi_index !514
  %this1 = load ptr, ptr %this.addr, align 8, !llfi_index !515
  call void @doProfiling(i32 32)
  call void @_ZN9__gnu_cxx13new_allocatorIdEC2Ev(ptr noundef nonnull align 1 dereferenceable(1) %this1) #2, !llfi_index !516
  ret void, !llfi_index !517
}

; Function Attrs: noinline nounwind optnone uwtable
define linkonce_odr dso_local void @_ZN9__gnu_cxx13new_allocatorIdEC2Ev(ptr noundef nonnull align 1 dereferenceable(1) %this) unnamed_addr #1 comdat align 2 {
entry:
  %this.addr = alloca ptr, align 8, !llfi_index !518
  call void @doProfiling(i32 31)
  store ptr %this, ptr %this.addr, align 8, !llfi_index !519
  %this1 = load ptr, ptr %this.addr, align 8, !llfi_index !520
  call void @doProfiling(i32 32)
  ret void, !llfi_index !521
}

; Function Attrs: mustprogress noinline optnone uwtable
define dso_local void @_Z13TimeIncrementv() #4 {
entry:
  %targetdt = alloca double, align 8, !llfi_index !522
  call void @doProfiling(i32 31)
  %ratio = alloca double, align 8, !llfi_index !523
  call void @doProfiling(i32 31)
  %olddt = alloca double, align 8, !llfi_index !524
  call void @doProfiling(i32 31)
  %newdt = alloca double, align 8, !llfi_index !525
  call void @doProfiling(i32 31)
  %call = call noundef nonnull align 8 dereferenceable(8) ptr @_ZN4Mesh8stoptimeEv(ptr noundef nonnull align 8 dereferenceable(1376) @mesh), !llfi_index !526
  call void @doProfiling(i32 56)
  %0 = load double, ptr %call, align 8, !llfi_index !527
  call void @doProfiling(i32 32)
  %call1 = call noundef nonnull align 8 dereferenceable(8) ptr @_ZN4Mesh4timeEv(ptr noundef nonnull align 8 dereferenceable(1376) @mesh), !llfi_index !528
  call void @doProfiling(i32 56)
  %1 = load double, ptr %call1, align 8, !llfi_index !529
  call void @doProfiling(i32 32)
  %sub = fsub double %0, %1, !llfi_index !530
  call void @doProfiling(i32 16)
  store double %sub, ptr %targetdt, align 8, !llfi_index !531
  %call2 = call noundef nonnull align 8 dereferenceable(8) ptr @_ZN4Mesh7dtfixedEv(ptr noundef nonnull align 8 dereferenceable(1376) @mesh), !llfi_index !532
  call void @doProfiling(i32 56)
  %2 = load double, ptr %call2, align 8, !llfi_index !533
  call void @doProfiling(i32 32)
  %cmp = fcmp ole double %2, 0.000000e+00, !llfi_index !534
  call void @doProfiling(i32 54)
  br i1 %cmp, label %land.lhs.true, label %if.end36, !llfi_index !535

land.lhs.true:                                    ; preds = %entry
  %call3 = call noundef nonnull align 4 dereferenceable(4) ptr @_ZN4Mesh5cycleEv(ptr noundef nonnull align 8 dereferenceable(1376) @mesh), !llfi_index !536
  call void @doProfiling(i32 56)
  %3 = load i32, ptr %call3, align 4, !llfi_index !537
  call void @doProfiling(i32 32)
  %cmp4 = icmp ne i32 %3, 0, !llfi_index !538
  call void @doProfiling(i32 53)
  br i1 %cmp4, label %if.then, label %if.end36, !llfi_index !539

if.then:                                          ; preds = %land.lhs.true
  %call5 = call noundef nonnull align 8 dereferenceable(8) ptr @_ZN4Mesh9deltatimeEv(ptr noundef nonnull align 8 dereferenceable(1376) @mesh), !llfi_index !540
  call void @doProfiling(i32 56)
  %4 = load double, ptr %call5, align 8, !llfi_index !541
  call void @doProfiling(i32 32)
  store double %4, ptr %olddt, align 8, !llfi_index !542
  store double 1.000000e+20, ptr %newdt, align 8, !llfi_index !543
  %call6 = call noundef nonnull align 8 dereferenceable(8) ptr @_ZN4Mesh9dtcourantEv(ptr noundef nonnull align 8 dereferenceable(1376) @mesh), !llfi_index !544
  call void @doProfiling(i32 56)
  %5 = load double, ptr %call6, align 8, !llfi_index !545
  call void @doProfiling(i32 32)
  %6 = load double, ptr %newdt, align 8, !llfi_index !546
  call void @doProfiling(i32 32)
  %cmp7 = fcmp olt double %5, %6, !llfi_index !547
  call void @doProfiling(i32 54)
  br i1 %cmp7, label %if.then8, label %if.end, !llfi_index !548

if.then8:                                         ; preds = %if.then
  %call9 = call noundef nonnull align 8 dereferenceable(8) ptr @_ZN4Mesh9dtcourantEv(ptr noundef nonnull align 8 dereferenceable(1376) @mesh), !llfi_index !549
  call void @doProfiling(i32 56)
  %7 = load double, ptr %call9, align 8, !llfi_index !550
  call void @doProfiling(i32 32)
  %div = fdiv double %7, 2.000000e+00, !llfi_index !551
  call void @doProfiling(i32 21)
  store double %div, ptr %newdt, align 8, !llfi_index !552
  br label %if.end, !llfi_index !553

if.end:                                           ; preds = %if.then8, %if.then
  %call10 = call noundef nonnull align 8 dereferenceable(8) ptr @_ZN4Mesh7dthydroEv(ptr noundef nonnull align 8 dereferenceable(1376) @mesh), !llfi_index !554
  call void @doProfiling(i32 56)
  %8 = load double, ptr %call10, align 8, !llfi_index !555
  call void @doProfiling(i32 32)
  %9 = load double, ptr %newdt, align 8, !llfi_index !556
  call void @doProfiling(i32 32)
  %cmp11 = fcmp olt double %8, %9, !llfi_index !557
  call void @doProfiling(i32 54)
  br i1 %cmp11, label %if.then12, label %if.end15, !llfi_index !558

if.then12:                                        ; preds = %if.end
  %call13 = call noundef nonnull align 8 dereferenceable(8) ptr @_ZN4Mesh7dthydroEv(ptr noundef nonnull align 8 dereferenceable(1376) @mesh), !llfi_index !559
  call void @doProfiling(i32 56)
  %10 = load double, ptr %call13, align 8, !llfi_index !560
  call void @doProfiling(i32 32)
  %mul = fmul double %10, 2.000000e+00, !llfi_index !561
  call void @doProfiling(i32 18)
  %div14 = fdiv double %mul, 3.000000e+00, !llfi_index !562
  call void @doProfiling(i32 21)
  store double %div14, ptr %newdt, align 8, !llfi_index !563
  br label %if.end15, !llfi_index !564

if.end15:                                         ; preds = %if.then12, %if.end
  %11 = load double, ptr %newdt, align 8, !llfi_index !565
  call void @doProfiling(i32 32)
  %12 = load double, ptr %olddt, align 8, !llfi_index !566
  call void @doProfiling(i32 32)
  %div16 = fdiv double %11, %12, !llfi_index !567
  call void @doProfiling(i32 21)
  store double %div16, ptr %ratio, align 8, !llfi_index !568
  %13 = load double, ptr %ratio, align 8, !llfi_index !569
  call void @doProfiling(i32 32)
  %cmp17 = fcmp oge double %13, 1.000000e+00, !llfi_index !570
  call void @doProfiling(i32 54)
  br i1 %cmp17, label %if.then18, label %if.end29, !llfi_index !571

if.then18:                                        ; preds = %if.end15
  %14 = load double, ptr %ratio, align 8, !llfi_index !572
  call void @doProfiling(i32 32)
  %call19 = call noundef nonnull align 8 dereferenceable(8) ptr @_ZN4Mesh15deltatimemultlbEv(ptr noundef nonnull align 8 dereferenceable(1376) @mesh), !llfi_index !573
  call void @doProfiling(i32 56)
  %15 = load double, ptr %call19, align 8, !llfi_index !574
  call void @doProfiling(i32 32)
  %cmp20 = fcmp olt double %14, %15, !llfi_index !575
  call void @doProfiling(i32 54)
  br i1 %cmp20, label %if.then21, label %if.else, !llfi_index !576

if.then21:                                        ; preds = %if.then18
  %16 = load double, ptr %olddt, align 8, !llfi_index !577
  call void @doProfiling(i32 32)
  store double %16, ptr %newdt, align 8, !llfi_index !578
  br label %if.end28, !llfi_index !579

if.else:                                          ; preds = %if.then18
  %17 = load double, ptr %ratio, align 8, !llfi_index !580
  call void @doProfiling(i32 32)
  %call22 = call noundef nonnull align 8 dereferenceable(8) ptr @_ZN4Mesh15deltatimemultubEv(ptr noundef nonnull align 8 dereferenceable(1376) @mesh), !llfi_index !581
  call void @doProfiling(i32 56)
  %18 = load double, ptr %call22, align 8, !llfi_index !582
  call void @doProfiling(i32 32)
  %cmp23 = fcmp ogt double %17, %18, !llfi_index !583
  call void @doProfiling(i32 54)
  br i1 %cmp23, label %if.then24, label %if.end27, !llfi_index !584

if.then24:                                        ; preds = %if.else
  %19 = load double, ptr %olddt, align 8, !llfi_index !585
  call void @doProfiling(i32 32)
  %call25 = call noundef nonnull align 8 dereferenceable(8) ptr @_ZN4Mesh15deltatimemultubEv(ptr noundef nonnull align 8 dereferenceable(1376) @mesh), !llfi_index !586
  call void @doProfiling(i32 56)
  %20 = load double, ptr %call25, align 8, !llfi_index !587
  call void @doProfiling(i32 32)
  %mul26 = fmul double %19, %20, !llfi_index !588
  call void @doProfiling(i32 18)
  store double %mul26, ptr %newdt, align 8, !llfi_index !589
  br label %if.end27, !llfi_index !590

if.end27:                                         ; preds = %if.then24, %if.else
  br label %if.end28, !llfi_index !591

if.end28:                                         ; preds = %if.end27, %if.then21
  br label %if.end29, !llfi_index !592

if.end29:                                         ; preds = %if.end28, %if.end15
  %21 = load double, ptr %newdt, align 8, !llfi_index !593
  call void @doProfiling(i32 32)
  %call30 = call noundef nonnull align 8 dereferenceable(8) ptr @_ZN4Mesh5dtmaxEv(ptr noundef nonnull align 8 dereferenceable(1376) @mesh), !llfi_index !594
  call void @doProfiling(i32 56)
  %22 = load double, ptr %call30, align 8, !llfi_index !595
  call void @doProfiling(i32 32)
  %cmp31 = fcmp ogt double %21, %22, !llfi_index !596
  call void @doProfiling(i32 54)
  br i1 %cmp31, label %if.then32, label %if.end34, !llfi_index !597

if.then32:                                        ; preds = %if.end29
  %call33 = call noundef nonnull align 8 dereferenceable(8) ptr @_ZN4Mesh5dtmaxEv(ptr noundef nonnull align 8 dereferenceable(1376) @mesh), !llfi_index !598
  call void @doProfiling(i32 56)
  %23 = load double, ptr %call33, align 8, !llfi_index !599
  call void @doProfiling(i32 32)
  store double %23, ptr %newdt, align 8, !llfi_index !600
  br label %if.end34, !llfi_index !601

if.end34:                                         ; preds = %if.then32, %if.end29
  %24 = load double, ptr %newdt, align 8, !llfi_index !602
  call void @doProfiling(i32 32)
  %call35 = call noundef nonnull align 8 dereferenceable(8) ptr @_ZN4Mesh9deltatimeEv(ptr noundef nonnull align 8 dereferenceable(1376) @mesh), !llfi_index !603
  call void @doProfiling(i32 56)
  store double %24, ptr %call35, align 8, !llfi_index !604
  br label %if.end36, !llfi_index !605

if.end36:                                         ; preds = %if.end34, %land.lhs.true, %entry
  %25 = load double, ptr %targetdt, align 8, !llfi_index !606
  call void @doProfiling(i32 32)
  %call37 = call noundef nonnull align 8 dereferenceable(8) ptr @_ZN4Mesh9deltatimeEv(ptr noundef nonnull align 8 dereferenceable(1376) @mesh), !llfi_index !607
  call void @doProfiling(i32 56)
  %26 = load double, ptr %call37, align 8, !llfi_index !608
  call void @doProfiling(i32 32)
  %cmp38 = fcmp ogt double %25, %26, !llfi_index !609
  call void @doProfiling(i32 54)
  br i1 %cmp38, label %land.lhs.true39, label %if.end48, !llfi_index !610

land.lhs.true39:                                  ; preds = %if.end36
  %27 = load double, ptr %targetdt, align 8, !llfi_index !611
  call void @doProfiling(i32 32)
  %call40 = call noundef nonnull align 8 dereferenceable(8) ptr @_ZN4Mesh9deltatimeEv(ptr noundef nonnull align 8 dereferenceable(1376) @mesh), !llfi_index !612
  call void @doProfiling(i32 56)
  %28 = load double, ptr %call40, align 8, !llfi_index !613
  call void @doProfiling(i32 32)
  %mul41 = fmul double 4.000000e+00, %28, !llfi_index !614
  call void @doProfiling(i32 18)
  %div42 = fdiv double %mul41, 3.000000e+00, !llfi_index !615
  call void @doProfiling(i32 21)
  %cmp43 = fcmp olt double %27, %div42, !llfi_index !616
  call void @doProfiling(i32 54)
  br i1 %cmp43, label %if.then44, label %if.end48, !llfi_index !617

if.then44:                                        ; preds = %land.lhs.true39
  %call45 = call noundef nonnull align 8 dereferenceable(8) ptr @_ZN4Mesh9deltatimeEv(ptr noundef nonnull align 8 dereferenceable(1376) @mesh), !llfi_index !618
  call void @doProfiling(i32 56)
  %29 = load double, ptr %call45, align 8, !llfi_index !619
  call void @doProfiling(i32 32)
  %mul46 = fmul double 2.000000e+00, %29, !llfi_index !620
  call void @doProfiling(i32 18)
  %div47 = fdiv double %mul46, 3.000000e+00, !llfi_index !621
  call void @doProfiling(i32 21)
  store double %div47, ptr %targetdt, align 8, !llfi_index !622
  br label %if.end48, !llfi_index !623

if.end48:                                         ; preds = %if.then44, %land.lhs.true39, %if.end36
  %30 = load double, ptr %targetdt, align 8, !llfi_index !624
  call void @doProfiling(i32 32)
  %call49 = call noundef nonnull align 8 dereferenceable(8) ptr @_ZN4Mesh9deltatimeEv(ptr noundef nonnull align 8 dereferenceable(1376) @mesh), !llfi_index !625
  call void @doProfiling(i32 56)
  %31 = load double, ptr %call49, align 8, !llfi_index !626
  call void @doProfiling(i32 32)
  %cmp50 = fcmp olt double %30, %31, !llfi_index !627
  call void @doProfiling(i32 54)
  br i1 %cmp50, label %if.then51, label %if.end53, !llfi_index !628

if.then51:                                        ; preds = %if.end48
  %32 = load double, ptr %targetdt, align 8, !llfi_index !629
  call void @doProfiling(i32 32)
  %call52 = call noundef nonnull align 8 dereferenceable(8) ptr @_ZN4Mesh9deltatimeEv(ptr noundef nonnull align 8 dereferenceable(1376) @mesh), !llfi_index !630
  call void @doProfiling(i32 56)
  store double %32, ptr %call52, align 8, !llfi_index !631
  br label %if.end53, !llfi_index !632

if.end53:                                         ; preds = %if.then51, %if.end48
  %call54 = call noundef nonnull align 8 dereferenceable(8) ptr @_ZN4Mesh9deltatimeEv(ptr noundef nonnull align 8 dereferenceable(1376) @mesh), !llfi_index !633
  call void @doProfiling(i32 56)
  %33 = load double, ptr %call54, align 8, !llfi_index !634
  call void @doProfiling(i32 32)
  %call55 = call noundef nonnull align 8 dereferenceable(8) ptr @_ZN4Mesh4timeEv(ptr noundef nonnull align 8 dereferenceable(1376) @mesh), !llfi_index !635
  call void @doProfiling(i32 56)
  %34 = load double, ptr %call55, align 8, !llfi_index !636
  call void @doProfiling(i32 32)
  %add = fadd double %34, %33, !llfi_index !637
  call void @doProfiling(i32 14)
  store double %add, ptr %call55, align 8, !llfi_index !638
  %call56 = call noundef nonnull align 4 dereferenceable(4) ptr @_ZN4Mesh5cycleEv(ptr noundef nonnull align 8 dereferenceable(1376) @mesh), !llfi_index !639
  call void @doProfiling(i32 56)
  %35 = load i32, ptr %call56, align 4, !llfi_index !640
  call void @doProfiling(i32 32)
  %inc = add nsw i32 %35, 1, !llfi_index !641
  call void @doProfiling(i32 13)
  store i32 %inc, ptr %call56, align 4, !llfi_index !642
  ret void, !llfi_index !643
}

; Function Attrs: mustprogress noinline nounwind optnone uwtable
define linkonce_odr dso_local noundef nonnull align 8 dereferenceable(8) ptr @_ZN4Mesh8stoptimeEv(ptr noundef nonnull align 8 dereferenceable(1376) %this) #3 comdat align 2 {
entry:
  %this.addr = alloca ptr, align 8, !llfi_index !644
  call void @doProfiling(i32 31)
  store ptr %this, ptr %this.addr, align 8, !llfi_index !645
  %this1 = load ptr, ptr %this.addr, align 8, !llfi_index !646
  call void @doProfiling(i32 32)
  %m_stoptime = getelementptr inbounds %struct.Mesh, ptr %this1, i32 0, i32 52, !llfi_index !647
  ret ptr %m_stoptime, !llfi_index !648
}

; Function Attrs: mustprogress noinline nounwind optnone uwtable
define linkonce_odr dso_local noundef nonnull align 8 dereferenceable(8) ptr @_ZN4Mesh4timeEv(ptr noundef nonnull align 8 dereferenceable(1376) %this) #3 comdat align 2 {
entry:
  %this.addr = alloca ptr, align 8, !llfi_index !649
  call void @doProfiling(i32 31)
  store ptr %this, ptr %this.addr, align 8, !llfi_index !650
  %this1 = load ptr, ptr %this.addr, align 8, !llfi_index !651
  call void @doProfiling(i32 32)
  %m_time = getelementptr inbounds %struct.Mesh, ptr %this1, i32 0, i32 48, !llfi_index !652
  ret ptr %m_time, !llfi_index !653
}

; Function Attrs: mustprogress noinline nounwind optnone uwtable
define linkonce_odr dso_local noundef nonnull align 8 dereferenceable(8) ptr @_ZN4Mesh7dtfixedEv(ptr noundef nonnull align 8 dereferenceable(1376) %this) #3 comdat align 2 {
entry:
  %this.addr = alloca ptr, align 8, !llfi_index !654
  call void @doProfiling(i32 31)
  store ptr %this, ptr %this.addr, align 8, !llfi_index !655
  %this1 = load ptr, ptr %this.addr, align 8, !llfi_index !656
  call void @doProfiling(i32 32)
  %m_dtfixed = getelementptr inbounds %struct.Mesh, ptr %this1, i32 0, i32 47, !llfi_index !657
  ret ptr %m_dtfixed, !llfi_index !658
}

; Function Attrs: mustprogress noinline nounwind optnone uwtable
define linkonce_odr dso_local noundef nonnull align 4 dereferenceable(4) ptr @_ZN4Mesh5cycleEv(ptr noundef nonnull align 8 dereferenceable(1376) %this) #3 comdat align 2 {
entry:
  %this.addr = alloca ptr, align 8, !llfi_index !659
  call void @doProfiling(i32 31)
  store ptr %this, ptr %this.addr, align 8, !llfi_index !660
  %this1 = load ptr, ptr %this.addr, align 8, !llfi_index !661
  call void @doProfiling(i32 32)
  %m_cycle = getelementptr inbounds %struct.Mesh, ptr %this1, i32 0, i32 75, !llfi_index !662
  ret ptr %m_cycle, !llfi_index !663
}

; Function Attrs: mustprogress noinline nounwind optnone uwtable
define linkonce_odr dso_local noundef nonnull align 8 dereferenceable(8) ptr @_ZN4Mesh9deltatimeEv(ptr noundef nonnull align 8 dereferenceable(1376) %this) #3 comdat align 2 {
entry:
  %this.addr = alloca ptr, align 8, !llfi_index !664
  call void @doProfiling(i32 31)
  store ptr %this, ptr %this.addr, align 8, !llfi_index !665
  %this1 = load ptr, ptr %this.addr, align 8, !llfi_index !666
  call void @doProfiling(i32 32)
  %m_deltatime = getelementptr inbounds %struct.Mesh, ptr %this1, i32 0, i32 49, !llfi_index !667
  ret ptr %m_deltatime, !llfi_index !668
}

; Function Attrs: mustprogress noinline nounwind optnone uwtable
define linkonce_odr dso_local noundef nonnull align 8 dereferenceable(8) ptr @_ZN4Mesh9dtcourantEv(ptr noundef nonnull align 8 dereferenceable(1376) %this) #3 comdat align 2 {
entry:
  %this.addr = alloca ptr, align 8, !llfi_index !669
  call void @doProfiling(i32 31)
  store ptr %this, ptr %this.addr, align 8, !llfi_index !670
  %this1 = load ptr, ptr %this.addr, align 8, !llfi_index !671
  call void @doProfiling(i32 32)
  %m_dtcourant = getelementptr inbounds %struct.Mesh, ptr %this1, i32 0, i32 72, !llfi_index !672
  ret ptr %m_dtcourant, !llfi_index !673
}

; Function Attrs: mustprogress noinline nounwind optnone uwtable
define linkonce_odr dso_local noundef nonnull align 8 dereferenceable(8) ptr @_ZN4Mesh7dthydroEv(ptr noundef nonnull align 8 dereferenceable(1376) %this) #3 comdat align 2 {
entry:
  %this.addr = alloca ptr, align 8, !llfi_index !674
  call void @doProfiling(i32 31)
  store ptr %this, ptr %this.addr, align 8, !llfi_index !675
  %this1 = load ptr, ptr %this.addr, align 8, !llfi_index !676
  call void @doProfiling(i32 32)
  %m_dthydro = getelementptr inbounds %struct.Mesh, ptr %this1, i32 0, i32 73, !llfi_index !677
  ret ptr %m_dthydro, !llfi_index !678
}

; Function Attrs: mustprogress noinline nounwind optnone uwtable
define linkonce_odr dso_local noundef nonnull align 8 dereferenceable(8) ptr @_ZN4Mesh15deltatimemultlbEv(ptr noundef nonnull align 8 dereferenceable(1376) %this) #3 comdat align 2 {
entry:
  %this.addr = alloca ptr, align 8, !llfi_index !679
  call void @doProfiling(i32 31)
  store ptr %this, ptr %this.addr, align 8, !llfi_index !680
  %this1 = load ptr, ptr %this.addr, align 8, !llfi_index !681
  call void @doProfiling(i32 32)
  %m_deltatimemultlb = getelementptr inbounds %struct.Mesh, ptr %this1, i32 0, i32 50, !llfi_index !682
  ret ptr %m_deltatimemultlb, !llfi_index !683
}

; Function Attrs: mustprogress noinline nounwind optnone uwtable
define linkonce_odr dso_local noundef nonnull align 8 dereferenceable(8) ptr @_ZN4Mesh15deltatimemultubEv(ptr noundef nonnull align 8 dereferenceable(1376) %this) #3 comdat align 2 {
entry:
  %this.addr = alloca ptr, align 8, !llfi_index !684
  call void @doProfiling(i32 31)
  store ptr %this, ptr %this.addr, align 8, !llfi_index !685
  %this1 = load ptr, ptr %this.addr, align 8, !llfi_index !686
  call void @doProfiling(i32 32)
  %m_deltatimemultub = getelementptr inbounds %struct.Mesh, ptr %this1, i32 0, i32 51, !llfi_index !687
  ret ptr %m_deltatimemultub, !llfi_index !688
}

; Function Attrs: mustprogress noinline nounwind optnone uwtable
define linkonce_odr dso_local noundef nonnull align 8 dereferenceable(8) ptr @_ZN4Mesh5dtmaxEv(ptr noundef nonnull align 8 dereferenceable(1376) %this) #3 comdat align 2 {
entry:
  %this.addr = alloca ptr, align 8, !llfi_index !689
  call void @doProfiling(i32 31)
  store ptr %this, ptr %this.addr, align 8, !llfi_index !690
  %this1 = load ptr, ptr %this.addr, align 8, !llfi_index !691
  call void @doProfiling(i32 32)
  %m_dtmax = getelementptr inbounds %struct.Mesh, ptr %this1, i32 0, i32 74, !llfi_index !692
  ret ptr %m_dtmax, !llfi_index !693
}

; Function Attrs: mustprogress noinline optnone uwtable
define dso_local void @_Z23InitStressTermsForElemsiPdS_S_(i32 noundef %numElem, ptr noundef %sigxx, ptr noundef %sigyy, ptr noundef %sigzz) #4 {
entry:
  %numElem.addr = alloca i32, align 4, !llfi_index !694
  call void @doProfiling(i32 31)
  %sigxx.addr = alloca ptr, align 8, !llfi_index !695
  call void @doProfiling(i32 31)
  %sigyy.addr = alloca ptr, align 8, !llfi_index !696
  call void @doProfiling(i32 31)
  %sigzz.addr = alloca ptr, align 8, !llfi_index !697
  call void @doProfiling(i32 31)
  %i = alloca i32, align 4, !llfi_index !698
  call void @doProfiling(i32 31)
  store i32 %numElem, ptr %numElem.addr, align 4, !llfi_index !699
  store ptr %sigxx, ptr %sigxx.addr, align 8, !llfi_index !700
  store ptr %sigyy, ptr %sigyy.addr, align 8, !llfi_index !701
  store ptr %sigzz, ptr %sigzz.addr, align 8, !llfi_index !702
  store i32 0, ptr %i, align 4, !llfi_index !703
  br label %for.cond, !llfi_index !704

for.cond:                                         ; preds = %for.inc, %entry
  %0 = load i32, ptr %i, align 4, !llfi_index !705
  call void @doProfiling(i32 32)
  %1 = load i32, ptr %numElem.addr, align 4, !llfi_index !706
  call void @doProfiling(i32 32)
  %cmp = icmp slt i32 %0, %1, !llfi_index !707
  call void @doProfiling(i32 53)
  br i1 %cmp, label %for.body, label %for.end, !llfi_index !708

for.body:                                         ; preds = %for.cond
  %2 = load i32, ptr %i, align 4, !llfi_index !709
  call void @doProfiling(i32 32)
  %call = call noundef nonnull align 8 dereferenceable(8) ptr @_ZN4Mesh1pEi(ptr noundef nonnull align 8 dereferenceable(1376) @mesh, i32 noundef %2), !llfi_index !710
  call void @doProfiling(i32 56)
  %3 = load double, ptr %call, align 8, !llfi_index !711
  call void @doProfiling(i32 32)
  %fneg = fneg double %3, !llfi_index !712
  call void @doProfiling(i32 12)
  %4 = load i32, ptr %i, align 4, !llfi_index !713
  call void @doProfiling(i32 32)
  %call1 = call noundef nonnull align 8 dereferenceable(8) ptr @_ZN4Mesh1qEi(ptr noundef nonnull align 8 dereferenceable(1376) @mesh, i32 noundef %4), !llfi_index !714
  call void @doProfiling(i32 56)
  %5 = load double, ptr %call1, align 8, !llfi_index !715
  call void @doProfiling(i32 32)
  %sub = fsub double %fneg, %5, !llfi_index !716
  call void @doProfiling(i32 16)
  %6 = load ptr, ptr %sigzz.addr, align 8, !llfi_index !717
  call void @doProfiling(i32 32)
  %7 = load i32, ptr %i, align 4, !llfi_index !718
  call void @doProfiling(i32 32)
  %idxprom = sext i32 %7 to i64, !llfi_index !719
  call void @doProfiling(i32 40)
  %arrayidx = getelementptr inbounds double, ptr %6, i64 %idxprom, !llfi_index !720
  store double %sub, ptr %arrayidx, align 8, !llfi_index !721
  %8 = load ptr, ptr %sigyy.addr, align 8, !llfi_index !722
  call void @doProfiling(i32 32)
  %9 = load i32, ptr %i, align 4, !llfi_index !723
  call void @doProfiling(i32 32)
  %idxprom2 = sext i32 %9 to i64, !llfi_index !724
  call void @doProfiling(i32 40)
  %arrayidx3 = getelementptr inbounds double, ptr %8, i64 %idxprom2, !llfi_index !725
  store double %sub, ptr %arrayidx3, align 8, !llfi_index !726
  %10 = load ptr, ptr %sigxx.addr, align 8, !llfi_index !727
  call void @doProfiling(i32 32)
  %11 = load i32, ptr %i, align 4, !llfi_index !728
  call void @doProfiling(i32 32)
  %idxprom4 = sext i32 %11 to i64, !llfi_index !729
  call void @doProfiling(i32 40)
  %arrayidx5 = getelementptr inbounds double, ptr %10, i64 %idxprom4, !llfi_index !730
  store double %sub, ptr %arrayidx5, align 8, !llfi_index !731
  br label %for.inc, !llfi_index !732

for.inc:                                          ; preds = %for.body
  %12 = load i32, ptr %i, align 4, !llfi_index !733
  call void @doProfiling(i32 32)
  %inc = add nsw i32 %12, 1, !llfi_index !734
  call void @doProfiling(i32 13)
  store i32 %inc, ptr %i, align 4, !llfi_index !735
  br label %for.cond, !llvm.loop !736, !llfi_index !738

for.end:                                          ; preds = %for.cond
  ret void, !llfi_index !739
}

; Function Attrs: mustprogress noinline nounwind optnone uwtable
define linkonce_odr dso_local noundef nonnull align 8 dereferenceable(8) ptr @_ZN4Mesh1pEi(ptr noundef nonnull align 8 dereferenceable(1376) %this, i32 noundef %idx) #3 comdat align 2 {
entry:
  %this.addr = alloca ptr, align 8, !llfi_index !740
  call void @doProfiling(i32 31)
  %idx.addr = alloca i32, align 4, !llfi_index !741
  call void @doProfiling(i32 31)
  store ptr %this, ptr %this.addr, align 8, !llfi_index !742
  store i32 %idx, ptr %idx.addr, align 4, !llfi_index !743
  %this1 = load ptr, ptr %this.addr, align 8, !llfi_index !744
  call void @doProfiling(i32 32)
  %m_p = getelementptr inbounds %struct.Mesh, ptr %this1, i32 0, i32 35, !llfi_index !745
  %0 = load i32, ptr %idx.addr, align 4, !llfi_index !746
  call void @doProfiling(i32 32)
  %conv = sext i32 %0 to i64, !llfi_index !747
  call void @doProfiling(i32 40)
  %call = call noundef nonnull align 8 dereferenceable(8) ptr @_ZNSt6vectorIdSaIdEEixEm(ptr noundef nonnull align 8 dereferenceable(24) %m_p, i64 noundef %conv) #2, !llfi_index !748
  call void @doProfiling(i32 56)
  ret ptr %call, !llfi_index !749
}

; Function Attrs: mustprogress noinline nounwind optnone uwtable
define linkonce_odr dso_local noundef nonnull align 8 dereferenceable(8) ptr @_ZN4Mesh1qEi(ptr noundef nonnull align 8 dereferenceable(1376) %this, i32 noundef %idx) #3 comdat align 2 {
entry:
  %this.addr = alloca ptr, align 8, !llfi_index !750
  call void @doProfiling(i32 31)
  %idx.addr = alloca i32, align 4, !llfi_index !751
  call void @doProfiling(i32 31)
  store ptr %this, ptr %this.addr, align 8, !llfi_index !752
  store i32 %idx, ptr %idx.addr, align 4, !llfi_index !753
  %this1 = load ptr, ptr %this.addr, align 8, !llfi_index !754
  call void @doProfiling(i32 32)
  %m_q = getelementptr inbounds %struct.Mesh, ptr %this1, i32 0, i32 36, !llfi_index !755
  %0 = load i32, ptr %idx.addr, align 4, !llfi_index !756
  call void @doProfiling(i32 32)
  %conv = sext i32 %0 to i64, !llfi_index !757
  call void @doProfiling(i32 40)
  %call = call noundef nonnull align 8 dereferenceable(8) ptr @_ZNSt6vectorIdSaIdEEixEm(ptr noundef nonnull align 8 dereferenceable(24) %m_q, i64 noundef %conv) #2, !llfi_index !758
  call void @doProfiling(i32 56)
  ret ptr %call, !llfi_index !759
}

; Function Attrs: mustprogress noinline nounwind optnone uwtable
define linkonce_odr dso_local noundef nonnull align 8 dereferenceable(8) ptr @_ZNSt6vectorIdSaIdEEixEm(ptr noundef nonnull align 8 dereferenceable(24) %this, i64 noundef %__n) #3 comdat align 2 {
entry:
  %this.addr = alloca ptr, align 8, !llfi_index !760
  call void @doProfiling(i32 31)
  %__n.addr = alloca i64, align 8, !llfi_index !761
  call void @doProfiling(i32 31)
  store ptr %this, ptr %this.addr, align 8, !llfi_index !762
  store i64 %__n, ptr %__n.addr, align 8, !llfi_index !763
  %this1 = load ptr, ptr %this.addr, align 8, !llfi_index !764
  call void @doProfiling(i32 32)
  %_M_impl = getelementptr inbounds %"struct.std::_Vector_base", ptr %this1, i32 0, i32 0, !llfi_index !765
  %_M_start = getelementptr inbounds %"struct.std::_Vector_base<double, std::allocator<double>>::_Vector_impl", ptr %_M_impl, i32 0, i32 0, !llfi_index !766
  %0 = load ptr, ptr %_M_start, align 8, !llfi_index !767
  call void @doProfiling(i32 32)
  %1 = load i64, ptr %__n.addr, align 8, !llfi_index !768
  call void @doProfiling(i32 32)
  %add.ptr = getelementptr inbounds double, ptr %0, i64 %1, !llfi_index !769
  ret ptr %add.ptr, !llfi_index !770
}

; Function Attrs: mustprogress noinline nounwind optnone uwtable
define dso_local void @_Z32CalcElemShapeFunctionDerivativesPKdS0_S0_PA8_dPd(ptr noundef %x, ptr noundef %y, ptr noundef %z, ptr noundef %b, ptr noundef %volume) #3 {
entry:
  %x.addr = alloca ptr, align 8, !llfi_index !771
  call void @doProfiling(i32 31)
  %y.addr = alloca ptr, align 8, !llfi_index !772
  call void @doProfiling(i32 31)
  %z.addr = alloca ptr, align 8, !llfi_index !773
  call void @doProfiling(i32 31)
  %b.addr = alloca ptr, align 8, !llfi_index !774
  call void @doProfiling(i32 31)
  %volume.addr = alloca ptr, align 8, !llfi_index !775
  call void @doProfiling(i32 31)
  %x0 = alloca double, align 8, !llfi_index !776
  call void @doProfiling(i32 31)
  %x1 = alloca double, align 8, !llfi_index !777
  call void @doProfiling(i32 31)
  %x2 = alloca double, align 8, !llfi_index !778
  call void @doProfiling(i32 31)
  %x3 = alloca double, align 8, !llfi_index !779
  call void @doProfiling(i32 31)
  %x4 = alloca double, align 8, !llfi_index !780
  call void @doProfiling(i32 31)
  %x5 = alloca double, align 8, !llfi_index !781
  call void @doProfiling(i32 31)
  %x6 = alloca double, align 8, !llfi_index !782
  call void @doProfiling(i32 31)
  %x7 = alloca double, align 8, !llfi_index !783
  call void @doProfiling(i32 31)
  %y0 = alloca double, align 8, !llfi_index !784
  call void @doProfiling(i32 31)
  %y1 = alloca double, align 8, !llfi_index !785
  call void @doProfiling(i32 31)
  %y2 = alloca double, align 8, !llfi_index !786
  call void @doProfiling(i32 31)
  %y3 = alloca double, align 8, !llfi_index !787
  call void @doProfiling(i32 31)
  %y4 = alloca double, align 8, !llfi_index !788
  call void @doProfiling(i32 31)
  %y5 = alloca double, align 8, !llfi_index !789
  call void @doProfiling(i32 31)
  %y6 = alloca double, align 8, !llfi_index !790
  call void @doProfiling(i32 31)
  %y7 = alloca double, align 8, !llfi_index !791
  call void @doProfiling(i32 31)
  %z0 = alloca double, align 8, !llfi_index !792
  call void @doProfiling(i32 31)
  %z1 = alloca double, align 8, !llfi_index !793
  call void @doProfiling(i32 31)
  %z2 = alloca double, align 8, !llfi_index !794
  call void @doProfiling(i32 31)
  %z3 = alloca double, align 8, !llfi_index !795
  call void @doProfiling(i32 31)
  %z4 = alloca double, align 8, !llfi_index !796
  call void @doProfiling(i32 31)
  %z5 = alloca double, align 8, !llfi_index !797
  call void @doProfiling(i32 31)
  %z6 = alloca double, align 8, !llfi_index !798
  call void @doProfiling(i32 31)
  %z7 = alloca double, align 8, !llfi_index !799
  call void @doProfiling(i32 31)
  %fjxxi = alloca double, align 8, !llfi_index !800
  call void @doProfiling(i32 31)
  %fjxet = alloca double, align 8, !llfi_index !801
  call void @doProfiling(i32 31)
  %fjxze = alloca double, align 8, !llfi_index !802
  call void @doProfiling(i32 31)
  %fjyxi = alloca double, align 8, !llfi_index !803
  call void @doProfiling(i32 31)
  %fjyet = alloca double, align 8, !llfi_index !804
  call void @doProfiling(i32 31)
  %fjyze = alloca double, align 8, !llfi_index !805
  call void @doProfiling(i32 31)
  %fjzxi = alloca double, align 8, !llfi_index !806
  call void @doProfiling(i32 31)
  %fjzet = alloca double, align 8, !llfi_index !807
  call void @doProfiling(i32 31)
  %fjzze = alloca double, align 8, !llfi_index !808
  call void @doProfiling(i32 31)
  %cjxxi = alloca double, align 8, !llfi_index !809
  call void @doProfiling(i32 31)
  %cjxet = alloca double, align 8, !llfi_index !810
  call void @doProfiling(i32 31)
  %cjxze = alloca double, align 8, !llfi_index !811
  call void @doProfiling(i32 31)
  %cjyxi = alloca double, align 8, !llfi_index !812
  call void @doProfiling(i32 31)
  %cjyet = alloca double, align 8, !llfi_index !813
  call void @doProfiling(i32 31)
  %cjyze = alloca double, align 8, !llfi_index !814
  call void @doProfiling(i32 31)
  %cjzxi = alloca double, align 8, !llfi_index !815
  call void @doProfiling(i32 31)
  %cjzet = alloca double, align 8, !llfi_index !816
  call void @doProfiling(i32 31)
  %cjzze = alloca double, align 8, !llfi_index !817
  call void @doProfiling(i32 31)
  store ptr %x, ptr %x.addr, align 8, !llfi_index !818
  store ptr %y, ptr %y.addr, align 8, !llfi_index !819
  store ptr %z, ptr %z.addr, align 8, !llfi_index !820
  store ptr %b, ptr %b.addr, align 8, !llfi_index !821
  store ptr %volume, ptr %volume.addr, align 8, !llfi_index !822
  %0 = load ptr, ptr %x.addr, align 8, !llfi_index !823
  call void @doProfiling(i32 32)
  %arrayidx = getelementptr inbounds double, ptr %0, i64 0, !llfi_index !824
  %1 = load double, ptr %arrayidx, align 8, !llfi_index !825
  call void @doProfiling(i32 32)
  store double %1, ptr %x0, align 8, !llfi_index !826
  %2 = load ptr, ptr %x.addr, align 8, !llfi_index !827
  call void @doProfiling(i32 32)
  %arrayidx1 = getelementptr inbounds double, ptr %2, i64 1, !llfi_index !828
  %3 = load double, ptr %arrayidx1, align 8, !llfi_index !829
  call void @doProfiling(i32 32)
  store double %3, ptr %x1, align 8, !llfi_index !830
  %4 = load ptr, ptr %x.addr, align 8, !llfi_index !831
  call void @doProfiling(i32 32)
  %arrayidx2 = getelementptr inbounds double, ptr %4, i64 2, !llfi_index !832
  %5 = load double, ptr %arrayidx2, align 8, !llfi_index !833
  call void @doProfiling(i32 32)
  store double %5, ptr %x2, align 8, !llfi_index !834
  %6 = load ptr, ptr %x.addr, align 8, !llfi_index !835
  call void @doProfiling(i32 32)
  %arrayidx3 = getelementptr inbounds double, ptr %6, i64 3, !llfi_index !836
  %7 = load double, ptr %arrayidx3, align 8, !llfi_index !837
  call void @doProfiling(i32 32)
  store double %7, ptr %x3, align 8, !llfi_index !838
  %8 = load ptr, ptr %x.addr, align 8, !llfi_index !839
  call void @doProfiling(i32 32)
  %arrayidx4 = getelementptr inbounds double, ptr %8, i64 4, !llfi_index !840
  %9 = load double, ptr %arrayidx4, align 8, !llfi_index !841
  call void @doProfiling(i32 32)
  store double %9, ptr %x4, align 8, !llfi_index !842
  %10 = load ptr, ptr %x.addr, align 8, !llfi_index !843
  call void @doProfiling(i32 32)
  %arrayidx5 = getelementptr inbounds double, ptr %10, i64 5, !llfi_index !844
  %11 = load double, ptr %arrayidx5, align 8, !llfi_index !845
  call void @doProfiling(i32 32)
  store double %11, ptr %x5, align 8, !llfi_index !846
  %12 = load ptr, ptr %x.addr, align 8, !llfi_index !847
  call void @doProfiling(i32 32)
  %arrayidx6 = getelementptr inbounds double, ptr %12, i64 6, !llfi_index !848
  %13 = load double, ptr %arrayidx6, align 8, !llfi_index !849
  call void @doProfiling(i32 32)
  store double %13, ptr %x6, align 8, !llfi_index !850
  %14 = load ptr, ptr %x.addr, align 8, !llfi_index !851
  call void @doProfiling(i32 32)
  %arrayidx7 = getelementptr inbounds double, ptr %14, i64 7, !llfi_index !852
  %15 = load double, ptr %arrayidx7, align 8, !llfi_index !853
  call void @doProfiling(i32 32)
  store double %15, ptr %x7, align 8, !llfi_index !854
  %16 = load ptr, ptr %y.addr, align 8, !llfi_index !855
  call void @doProfiling(i32 32)
  %arrayidx8 = getelementptr inbounds double, ptr %16, i64 0, !llfi_index !856
  %17 = load double, ptr %arrayidx8, align 8, !llfi_index !857
  call void @doProfiling(i32 32)
  store double %17, ptr %y0, align 8, !llfi_index !858
  %18 = load ptr, ptr %y.addr, align 8, !llfi_index !859
  call void @doProfiling(i32 32)
  %arrayidx9 = getelementptr inbounds double, ptr %18, i64 1, !llfi_index !860
  %19 = load double, ptr %arrayidx9, align 8, !llfi_index !861
  call void @doProfiling(i32 32)
  store double %19, ptr %y1, align 8, !llfi_index !862
  %20 = load ptr, ptr %y.addr, align 8, !llfi_index !863
  call void @doProfiling(i32 32)
  %arrayidx10 = getelementptr inbounds double, ptr %20, i64 2, !llfi_index !864
  %21 = load double, ptr %arrayidx10, align 8, !llfi_index !865
  call void @doProfiling(i32 32)
  store double %21, ptr %y2, align 8, !llfi_index !866
  %22 = load ptr, ptr %y.addr, align 8, !llfi_index !867
  call void @doProfiling(i32 32)
  %arrayidx11 = getelementptr inbounds double, ptr %22, i64 3, !llfi_index !868
  %23 = load double, ptr %arrayidx11, align 8, !llfi_index !869
  call void @doProfiling(i32 32)
  store double %23, ptr %y3, align 8, !llfi_index !870
  %24 = load ptr, ptr %y.addr, align 8, !llfi_index !871
  call void @doProfiling(i32 32)
  %arrayidx12 = getelementptr inbounds double, ptr %24, i64 4, !llfi_index !872
  %25 = load double, ptr %arrayidx12, align 8, !llfi_index !873
  call void @doProfiling(i32 32)
  store double %25, ptr %y4, align 8, !llfi_index !874
  %26 = load ptr, ptr %y.addr, align 8, !llfi_index !875
  call void @doProfiling(i32 32)
  %arrayidx13 = getelementptr inbounds double, ptr %26, i64 5, !llfi_index !876
  %27 = load double, ptr %arrayidx13, align 8, !llfi_index !877
  call void @doProfiling(i32 32)
  store double %27, ptr %y5, align 8, !llfi_index !878
  %28 = load ptr, ptr %y.addr, align 8, !llfi_index !879
  call void @doProfiling(i32 32)
  %arrayidx14 = getelementptr inbounds double, ptr %28, i64 6, !llfi_index !880
  %29 = load double, ptr %arrayidx14, align 8, !llfi_index !881
  call void @doProfiling(i32 32)
  store double %29, ptr %y6, align 8, !llfi_index !882
  %30 = load ptr, ptr %y.addr, align 8, !llfi_index !883
  call void @doProfiling(i32 32)
  %arrayidx15 = getelementptr inbounds double, ptr %30, i64 7, !llfi_index !884
  %31 = load double, ptr %arrayidx15, align 8, !llfi_index !885
  call void @doProfiling(i32 32)
  store double %31, ptr %y7, align 8, !llfi_index !886
  %32 = load ptr, ptr %z.addr, align 8, !llfi_index !887
  call void @doProfiling(i32 32)
  %arrayidx16 = getelementptr inbounds double, ptr %32, i64 0, !llfi_index !888
  %33 = load double, ptr %arrayidx16, align 8, !llfi_index !889
  call void @doProfiling(i32 32)
  store double %33, ptr %z0, align 8, !llfi_index !890
  %34 = load ptr, ptr %z.addr, align 8, !llfi_index !891
  call void @doProfiling(i32 32)
  %arrayidx17 = getelementptr inbounds double, ptr %34, i64 1, !llfi_index !892
  %35 = load double, ptr %arrayidx17, align 8, !llfi_index !893
  call void @doProfiling(i32 32)
  store double %35, ptr %z1, align 8, !llfi_index !894
  %36 = load ptr, ptr %z.addr, align 8, !llfi_index !895
  call void @doProfiling(i32 32)
  %arrayidx18 = getelementptr inbounds double, ptr %36, i64 2, !llfi_index !896
  %37 = load double, ptr %arrayidx18, align 8, !llfi_index !897
  call void @doProfiling(i32 32)
  store double %37, ptr %z2, align 8, !llfi_index !898
  %38 = load ptr, ptr %z.addr, align 8, !llfi_index !899
  call void @doProfiling(i32 32)
  %arrayidx19 = getelementptr inbounds double, ptr %38, i64 3, !llfi_index !900
  %39 = load double, ptr %arrayidx19, align 8, !llfi_index !901
  call void @doProfiling(i32 32)
  store double %39, ptr %z3, align 8, !llfi_index !902
  %40 = load ptr, ptr %z.addr, align 8, !llfi_index !903
  call void @doProfiling(i32 32)
  %arrayidx20 = getelementptr inbounds double, ptr %40, i64 4, !llfi_index !904
  %41 = load double, ptr %arrayidx20, align 8, !llfi_index !905
  call void @doProfiling(i32 32)
  store double %41, ptr %z4, align 8, !llfi_index !906
  %42 = load ptr, ptr %z.addr, align 8, !llfi_index !907
  call void @doProfiling(i32 32)
  %arrayidx21 = getelementptr inbounds double, ptr %42, i64 5, !llfi_index !908
  %43 = load double, ptr %arrayidx21, align 8, !llfi_index !909
  call void @doProfiling(i32 32)
  store double %43, ptr %z5, align 8, !llfi_index !910
  %44 = load ptr, ptr %z.addr, align 8, !llfi_index !911
  call void @doProfiling(i32 32)
  %arrayidx22 = getelementptr inbounds double, ptr %44, i64 6, !llfi_index !912
  %45 = load double, ptr %arrayidx22, align 8, !llfi_index !913
  call void @doProfiling(i32 32)
  store double %45, ptr %z6, align 8, !llfi_index !914
  %46 = load ptr, ptr %z.addr, align 8, !llfi_index !915
  call void @doProfiling(i32 32)
  %arrayidx23 = getelementptr inbounds double, ptr %46, i64 7, !llfi_index !916
  %47 = load double, ptr %arrayidx23, align 8, !llfi_index !917
  call void @doProfiling(i32 32)
  store double %47, ptr %z7, align 8, !llfi_index !918
  %48 = load double, ptr %x6, align 8, !llfi_index !919
  call void @doProfiling(i32 32)
  %49 = load double, ptr %x0, align 8, !llfi_index !920
  call void @doProfiling(i32 32)
  %sub = fsub double %48, %49, !llfi_index !921
  call void @doProfiling(i32 16)
  %50 = load double, ptr %x5, align 8, !llfi_index !922
  call void @doProfiling(i32 32)
  %51 = load double, ptr %x3, align 8, !llfi_index !923
  call void @doProfiling(i32 32)
  %sub24 = fsub double %50, %51, !llfi_index !924
  call void @doProfiling(i32 16)
  %add = fadd double %sub, %sub24, !llfi_index !925
  call void @doProfiling(i32 14)
  %52 = load double, ptr %x7, align 8, !llfi_index !926
  call void @doProfiling(i32 32)
  %53 = load double, ptr %x1, align 8, !llfi_index !927
  call void @doProfiling(i32 32)
  %sub25 = fsub double %52, %53, !llfi_index !928
  call void @doProfiling(i32 16)
  %sub26 = fsub double %add, %sub25, !llfi_index !929
  call void @doProfiling(i32 16)
  %54 = load double, ptr %x4, align 8, !llfi_index !930
  call void @doProfiling(i32 32)
  %55 = load double, ptr %x2, align 8, !llfi_index !931
  call void @doProfiling(i32 32)
  %sub27 = fsub double %54, %55, !llfi_index !932
  call void @doProfiling(i32 16)
  %sub28 = fsub double %sub26, %sub27, !llfi_index !933
  call void @doProfiling(i32 16)
  %mul = fmul double 1.250000e-01, %sub28, !llfi_index !934
  call void @doProfiling(i32 18)
  store double %mul, ptr %fjxxi, align 8, !llfi_index !935
  %56 = load double, ptr %x6, align 8, !llfi_index !936
  call void @doProfiling(i32 32)
  %57 = load double, ptr %x0, align 8, !llfi_index !937
  call void @doProfiling(i32 32)
  %sub29 = fsub double %56, %57, !llfi_index !938
  call void @doProfiling(i32 16)
  %58 = load double, ptr %x5, align 8, !llfi_index !939
  call void @doProfiling(i32 32)
  %59 = load double, ptr %x3, align 8, !llfi_index !940
  call void @doProfiling(i32 32)
  %sub30 = fsub double %58, %59, !llfi_index !941
  call void @doProfiling(i32 16)
  %sub31 = fsub double %sub29, %sub30, !llfi_index !942
  call void @doProfiling(i32 16)
  %60 = load double, ptr %x7, align 8, !llfi_index !943
  call void @doProfiling(i32 32)
  %61 = load double, ptr %x1, align 8, !llfi_index !944
  call void @doProfiling(i32 32)
  %sub32 = fsub double %60, %61, !llfi_index !945
  call void @doProfiling(i32 16)
  %add33 = fadd double %sub31, %sub32, !llfi_index !946
  call void @doProfiling(i32 14)
  %62 = load double, ptr %x4, align 8, !llfi_index !947
  call void @doProfiling(i32 32)
  %63 = load double, ptr %x2, align 8, !llfi_index !948
  call void @doProfiling(i32 32)
  %sub34 = fsub double %62, %63, !llfi_index !949
  call void @doProfiling(i32 16)
  %sub35 = fsub double %add33, %sub34, !llfi_index !950
  call void @doProfiling(i32 16)
  %mul36 = fmul double 1.250000e-01, %sub35, !llfi_index !951
  call void @doProfiling(i32 18)
  store double %mul36, ptr %fjxet, align 8, !llfi_index !952
  %64 = load double, ptr %x6, align 8, !llfi_index !953
  call void @doProfiling(i32 32)
  %65 = load double, ptr %x0, align 8, !llfi_index !954
  call void @doProfiling(i32 32)
  %sub37 = fsub double %64, %65, !llfi_index !955
  call void @doProfiling(i32 16)
  %66 = load double, ptr %x5, align 8, !llfi_index !956
  call void @doProfiling(i32 32)
  %67 = load double, ptr %x3, align 8, !llfi_index !957
  call void @doProfiling(i32 32)
  %sub38 = fsub double %66, %67, !llfi_index !958
  call void @doProfiling(i32 16)
  %add39 = fadd double %sub37, %sub38, !llfi_index !959
  call void @doProfiling(i32 14)
  %68 = load double, ptr %x7, align 8, !llfi_index !960
  call void @doProfiling(i32 32)
  %69 = load double, ptr %x1, align 8, !llfi_index !961
  call void @doProfiling(i32 32)
  %sub40 = fsub double %68, %69, !llfi_index !962
  call void @doProfiling(i32 16)
  %add41 = fadd double %add39, %sub40, !llfi_index !963
  call void @doProfiling(i32 14)
  %70 = load double, ptr %x4, align 8, !llfi_index !964
  call void @doProfiling(i32 32)
  %71 = load double, ptr %x2, align 8, !llfi_index !965
  call void @doProfiling(i32 32)
  %sub42 = fsub double %70, %71, !llfi_index !966
  call void @doProfiling(i32 16)
  %add43 = fadd double %add41, %sub42, !llfi_index !967
  call void @doProfiling(i32 14)
  %mul44 = fmul double 1.250000e-01, %add43, !llfi_index !968
  call void @doProfiling(i32 18)
  store double %mul44, ptr %fjxze, align 8, !llfi_index !969
  %72 = load double, ptr %y6, align 8, !llfi_index !970
  call void @doProfiling(i32 32)
  %73 = load double, ptr %y0, align 8, !llfi_index !971
  call void @doProfiling(i32 32)
  %sub45 = fsub double %72, %73, !llfi_index !972
  call void @doProfiling(i32 16)
  %74 = load double, ptr %y5, align 8, !llfi_index !973
  call void @doProfiling(i32 32)
  %75 = load double, ptr %y3, align 8, !llfi_index !974
  call void @doProfiling(i32 32)
  %sub46 = fsub double %74, %75, !llfi_index !975
  call void @doProfiling(i32 16)
  %add47 = fadd double %sub45, %sub46, !llfi_index !976
  call void @doProfiling(i32 14)
  %76 = load double, ptr %y7, align 8, !llfi_index !977
  call void @doProfiling(i32 32)
  %77 = load double, ptr %y1, align 8, !llfi_index !978
  call void @doProfiling(i32 32)
  %sub48 = fsub double %76, %77, !llfi_index !979
  call void @doProfiling(i32 16)
  %sub49 = fsub double %add47, %sub48, !llfi_index !980
  call void @doProfiling(i32 16)
  %78 = load double, ptr %y4, align 8, !llfi_index !981
  call void @doProfiling(i32 32)
  %79 = load double, ptr %y2, align 8, !llfi_index !982
  call void @doProfiling(i32 32)
  %sub50 = fsub double %78, %79, !llfi_index !983
  call void @doProfiling(i32 16)
  %sub51 = fsub double %sub49, %sub50, !llfi_index !984
  call void @doProfiling(i32 16)
  %mul52 = fmul double 1.250000e-01, %sub51, !llfi_index !985
  call void @doProfiling(i32 18)
  store double %mul52, ptr %fjyxi, align 8, !llfi_index !986
  %80 = load double, ptr %y6, align 8, !llfi_index !987
  call void @doProfiling(i32 32)
  %81 = load double, ptr %y0, align 8, !llfi_index !988
  call void @doProfiling(i32 32)
  %sub53 = fsub double %80, %81, !llfi_index !989
  call void @doProfiling(i32 16)
  %82 = load double, ptr %y5, align 8, !llfi_index !990
  call void @doProfiling(i32 32)
  %83 = load double, ptr %y3, align 8, !llfi_index !991
  call void @doProfiling(i32 32)
  %sub54 = fsub double %82, %83, !llfi_index !992
  call void @doProfiling(i32 16)
  %sub55 = fsub double %sub53, %sub54, !llfi_index !993
  call void @doProfiling(i32 16)
  %84 = load double, ptr %y7, align 8, !llfi_index !994
  call void @doProfiling(i32 32)
  %85 = load double, ptr %y1, align 8, !llfi_index !995
  call void @doProfiling(i32 32)
  %sub56 = fsub double %84, %85, !llfi_index !996
  call void @doProfiling(i32 16)
  %add57 = fadd double %sub55, %sub56, !llfi_index !997
  call void @doProfiling(i32 14)
  %86 = load double, ptr %y4, align 8, !llfi_index !998
  call void @doProfiling(i32 32)
  %87 = load double, ptr %y2, align 8, !llfi_index !999
  call void @doProfiling(i32 32)
  %sub58 = fsub double %86, %87, !llfi_index !1000
  call void @doProfiling(i32 16)
  %sub59 = fsub double %add57, %sub58, !llfi_index !1001
  call void @doProfiling(i32 16)
  %mul60 = fmul double 1.250000e-01, %sub59, !llfi_index !1002
  call void @doProfiling(i32 18)
  store double %mul60, ptr %fjyet, align 8, !llfi_index !1003
  %88 = load double, ptr %y6, align 8, !llfi_index !1004
  call void @doProfiling(i32 32)
  %89 = load double, ptr %y0, align 8, !llfi_index !1005
  call void @doProfiling(i32 32)
  %sub61 = fsub double %88, %89, !llfi_index !1006
  call void @doProfiling(i32 16)
  %90 = load double, ptr %y5, align 8, !llfi_index !1007
  call void @doProfiling(i32 32)
  %91 = load double, ptr %y3, align 8, !llfi_index !1008
  call void @doProfiling(i32 32)
  %sub62 = fsub double %90, %91, !llfi_index !1009
  call void @doProfiling(i32 16)
  %add63 = fadd double %sub61, %sub62, !llfi_index !1010
  call void @doProfiling(i32 14)
  %92 = load double, ptr %y7, align 8, !llfi_index !1011
  call void @doProfiling(i32 32)
  %93 = load double, ptr %y1, align 8, !llfi_index !1012
  call void @doProfiling(i32 32)
  %sub64 = fsub double %92, %93, !llfi_index !1013
  call void @doProfiling(i32 16)
  %add65 = fadd double %add63, %sub64, !llfi_index !1014
  call void @doProfiling(i32 14)
  %94 = load double, ptr %y4, align 8, !llfi_index !1015
  call void @doProfiling(i32 32)
  %95 = load double, ptr %y2, align 8, !llfi_index !1016
  call void @doProfiling(i32 32)
  %sub66 = fsub double %94, %95, !llfi_index !1017
  call void @doProfiling(i32 16)
  %add67 = fadd double %add65, %sub66, !llfi_index !1018
  call void @doProfiling(i32 14)
  %mul68 = fmul double 1.250000e-01, %add67, !llfi_index !1019
  call void @doProfiling(i32 18)
  store double %mul68, ptr %fjyze, align 8, !llfi_index !1020
  %96 = load double, ptr %z6, align 8, !llfi_index !1021
  call void @doProfiling(i32 32)
  %97 = load double, ptr %z0, align 8, !llfi_index !1022
  call void @doProfiling(i32 32)
  %sub69 = fsub double %96, %97, !llfi_index !1023
  call void @doProfiling(i32 16)
  %98 = load double, ptr %z5, align 8, !llfi_index !1024
  call void @doProfiling(i32 32)
  %99 = load double, ptr %z3, align 8, !llfi_index !1025
  call void @doProfiling(i32 32)
  %sub70 = fsub double %98, %99, !llfi_index !1026
  call void @doProfiling(i32 16)
  %add71 = fadd double %sub69, %sub70, !llfi_index !1027
  call void @doProfiling(i32 14)
  %100 = load double, ptr %z7, align 8, !llfi_index !1028
  call void @doProfiling(i32 32)
  %101 = load double, ptr %z1, align 8, !llfi_index !1029
  call void @doProfiling(i32 32)
  %sub72 = fsub double %100, %101, !llfi_index !1030
  call void @doProfiling(i32 16)
  %sub73 = fsub double %add71, %sub72, !llfi_index !1031
  call void @doProfiling(i32 16)
  %102 = load double, ptr %z4, align 8, !llfi_index !1032
  call void @doProfiling(i32 32)
  %103 = load double, ptr %z2, align 8, !llfi_index !1033
  call void @doProfiling(i32 32)
  %sub74 = fsub double %102, %103, !llfi_index !1034
  call void @doProfiling(i32 16)
  %sub75 = fsub double %sub73, %sub74, !llfi_index !1035
  call void @doProfiling(i32 16)
  %mul76 = fmul double 1.250000e-01, %sub75, !llfi_index !1036
  call void @doProfiling(i32 18)
  store double %mul76, ptr %fjzxi, align 8, !llfi_index !1037
  %104 = load double, ptr %z6, align 8, !llfi_index !1038
  call void @doProfiling(i32 32)
  %105 = load double, ptr %z0, align 8, !llfi_index !1039
  call void @doProfiling(i32 32)
  %sub77 = fsub double %104, %105, !llfi_index !1040
  call void @doProfiling(i32 16)
  %106 = load double, ptr %z5, align 8, !llfi_index !1041
  call void @doProfiling(i32 32)
  %107 = load double, ptr %z3, align 8, !llfi_index !1042
  call void @doProfiling(i32 32)
  %sub78 = fsub double %106, %107, !llfi_index !1043
  call void @doProfiling(i32 16)
  %sub79 = fsub double %sub77, %sub78, !llfi_index !1044
  call void @doProfiling(i32 16)
  %108 = load double, ptr %z7, align 8, !llfi_index !1045
  call void @doProfiling(i32 32)
  %109 = load double, ptr %z1, align 8, !llfi_index !1046
  call void @doProfiling(i32 32)
  %sub80 = fsub double %108, %109, !llfi_index !1047
  call void @doProfiling(i32 16)
  %add81 = fadd double %sub79, %sub80, !llfi_index !1048
  call void @doProfiling(i32 14)
  %110 = load double, ptr %z4, align 8, !llfi_index !1049
  call void @doProfiling(i32 32)
  %111 = load double, ptr %z2, align 8, !llfi_index !1050
  call void @doProfiling(i32 32)
  %sub82 = fsub double %110, %111, !llfi_index !1051
  call void @doProfiling(i32 16)
  %sub83 = fsub double %add81, %sub82, !llfi_index !1052
  call void @doProfiling(i32 16)
  %mul84 = fmul double 1.250000e-01, %sub83, !llfi_index !1053
  call void @doProfiling(i32 18)
  store double %mul84, ptr %fjzet, align 8, !llfi_index !1054
  %112 = load double, ptr %z6, align 8, !llfi_index !1055
  call void @doProfiling(i32 32)
  %113 = load double, ptr %z0, align 8, !llfi_index !1056
  call void @doProfiling(i32 32)
  %sub85 = fsub double %112, %113, !llfi_index !1057
  call void @doProfiling(i32 16)
  %114 = load double, ptr %z5, align 8, !llfi_index !1058
  call void @doProfiling(i32 32)
  %115 = load double, ptr %z3, align 8, !llfi_index !1059
  call void @doProfiling(i32 32)
  %sub86 = fsub double %114, %115, !llfi_index !1060
  call void @doProfiling(i32 16)
  %add87 = fadd double %sub85, %sub86, !llfi_index !1061
  call void @doProfiling(i32 14)
  %116 = load double, ptr %z7, align 8, !llfi_index !1062
  call void @doProfiling(i32 32)
  %117 = load double, ptr %z1, align 8, !llfi_index !1063
  call void @doProfiling(i32 32)
  %sub88 = fsub double %116, %117, !llfi_index !1064
  call void @doProfiling(i32 16)
  %add89 = fadd double %add87, %sub88, !llfi_index !1065
  call void @doProfiling(i32 14)
  %118 = load double, ptr %z4, align 8, !llfi_index !1066
  call void @doProfiling(i32 32)
  %119 = load double, ptr %z2, align 8, !llfi_index !1067
  call void @doProfiling(i32 32)
  %sub90 = fsub double %118, %119, !llfi_index !1068
  call void @doProfiling(i32 16)
  %add91 = fadd double %add89, %sub90, !llfi_index !1069
  call void @doProfiling(i32 14)
  %mul92 = fmul double 1.250000e-01, %add91, !llfi_index !1070
  call void @doProfiling(i32 18)
  store double %mul92, ptr %fjzze, align 8, !llfi_index !1071
  %120 = load double, ptr %fjyet, align 8, !llfi_index !1072
  call void @doProfiling(i32 32)
  %121 = load double, ptr %fjzze, align 8, !llfi_index !1073
  call void @doProfiling(i32 32)
  %122 = load double, ptr %fjzet, align 8, !llfi_index !1074
  call void @doProfiling(i32 32)
  %123 = load double, ptr %fjyze, align 8, !llfi_index !1075
  call void @doProfiling(i32 32)
  %mul94 = fmul double %122, %123, !llfi_index !1076
  call void @doProfiling(i32 18)
  %neg = fneg double %mul94, !llfi_index !1077
  call void @doProfiling(i32 12)
  %124 = call double @llvm.fmuladd.f64(double %120, double %121, double %neg), !llfi_index !1078
  call void @doProfiling(i32 56)
  store double %124, ptr %cjxxi, align 8, !llfi_index !1079
  %125 = load double, ptr %fjyxi, align 8, !llfi_index !1080
  call void @doProfiling(i32 32)
  %126 = load double, ptr %fjzze, align 8, !llfi_index !1081
  call void @doProfiling(i32 32)
  %mul95 = fmul double %125, %126, !llfi_index !1082
  call void @doProfiling(i32 18)
  %fneg = fneg double %mul95, !llfi_index !1083
  call void @doProfiling(i32 12)
  %127 = load double, ptr %fjzxi, align 8, !llfi_index !1084
  call void @doProfiling(i32 32)
  %128 = load double, ptr %fjyze, align 8, !llfi_index !1085
  call void @doProfiling(i32 32)
  %129 = call double @llvm.fmuladd.f64(double %127, double %128, double %fneg), !llfi_index !1086
  call void @doProfiling(i32 56)
  store double %129, ptr %cjxet, align 8, !llfi_index !1087
  %130 = load double, ptr %fjyxi, align 8, !llfi_index !1088
  call void @doProfiling(i32 32)
  %131 = load double, ptr %fjzet, align 8, !llfi_index !1089
  call void @doProfiling(i32 32)
  %132 = load double, ptr %fjzxi, align 8, !llfi_index !1090
  call void @doProfiling(i32 32)
  %133 = load double, ptr %fjyet, align 8, !llfi_index !1091
  call void @doProfiling(i32 32)
  %mul98 = fmul double %132, %133, !llfi_index !1092
  call void @doProfiling(i32 18)
  %neg99 = fneg double %mul98, !llfi_index !1093
  call void @doProfiling(i32 12)
  %134 = call double @llvm.fmuladd.f64(double %130, double %131, double %neg99), !llfi_index !1094
  call void @doProfiling(i32 56)
  store double %134, ptr %cjxze, align 8, !llfi_index !1095
  %135 = load double, ptr %fjxet, align 8, !llfi_index !1096
  call void @doProfiling(i32 32)
  %136 = load double, ptr %fjzze, align 8, !llfi_index !1097
  call void @doProfiling(i32 32)
  %mul100 = fmul double %135, %136, !llfi_index !1098
  call void @doProfiling(i32 18)
  %fneg101 = fneg double %mul100, !llfi_index !1099
  call void @doProfiling(i32 12)
  %137 = load double, ptr %fjzet, align 8, !llfi_index !1100
  call void @doProfiling(i32 32)
  %138 = load double, ptr %fjxze, align 8, !llfi_index !1101
  call void @doProfiling(i32 32)
  %139 = call double @llvm.fmuladd.f64(double %137, double %138, double %fneg101), !llfi_index !1102
  call void @doProfiling(i32 56)
  store double %139, ptr %cjyxi, align 8, !llfi_index !1103
  %140 = load double, ptr %fjxxi, align 8, !llfi_index !1104
  call void @doProfiling(i32 32)
  %141 = load double, ptr %fjzze, align 8, !llfi_index !1105
  call void @doProfiling(i32 32)
  %142 = load double, ptr %fjzxi, align 8, !llfi_index !1106
  call void @doProfiling(i32 32)
  %143 = load double, ptr %fjxze, align 8, !llfi_index !1107
  call void @doProfiling(i32 32)
  %mul104 = fmul double %142, %143, !llfi_index !1108
  call void @doProfiling(i32 18)
  %neg105 = fneg double %mul104, !llfi_index !1109
  call void @doProfiling(i32 12)
  %144 = call double @llvm.fmuladd.f64(double %140, double %141, double %neg105), !llfi_index !1110
  call void @doProfiling(i32 56)
  store double %144, ptr %cjyet, align 8, !llfi_index !1111
  %145 = load double, ptr %fjxxi, align 8, !llfi_index !1112
  call void @doProfiling(i32 32)
  %146 = load double, ptr %fjzet, align 8, !llfi_index !1113
  call void @doProfiling(i32 32)
  %mul106 = fmul double %145, %146, !llfi_index !1114
  call void @doProfiling(i32 18)
  %fneg107 = fneg double %mul106, !llfi_index !1115
  call void @doProfiling(i32 12)
  %147 = load double, ptr %fjzxi, align 8, !llfi_index !1116
  call void @doProfiling(i32 32)
  %148 = load double, ptr %fjxet, align 8, !llfi_index !1117
  call void @doProfiling(i32 32)
  %149 = call double @llvm.fmuladd.f64(double %147, double %148, double %fneg107), !llfi_index !1118
  call void @doProfiling(i32 56)
  store double %149, ptr %cjyze, align 8, !llfi_index !1119
  %150 = load double, ptr %fjxet, align 8, !llfi_index !1120
  call void @doProfiling(i32 32)
  %151 = load double, ptr %fjyze, align 8, !llfi_index !1121
  call void @doProfiling(i32 32)
  %152 = load double, ptr %fjyet, align 8, !llfi_index !1122
  call void @doProfiling(i32 32)
  %153 = load double, ptr %fjxze, align 8, !llfi_index !1123
  call void @doProfiling(i32 32)
  %mul110 = fmul double %152, %153, !llfi_index !1124
  call void @doProfiling(i32 18)
  %neg111 = fneg double %mul110, !llfi_index !1125
  call void @doProfiling(i32 12)
  %154 = call double @llvm.fmuladd.f64(double %150, double %151, double %neg111), !llfi_index !1126
  call void @doProfiling(i32 56)
  store double %154, ptr %cjzxi, align 8, !llfi_index !1127
  %155 = load double, ptr %fjxxi, align 8, !llfi_index !1128
  call void @doProfiling(i32 32)
  %156 = load double, ptr %fjyze, align 8, !llfi_index !1129
  call void @doProfiling(i32 32)
  %mul112 = fmul double %155, %156, !llfi_index !1130
  call void @doProfiling(i32 18)
  %fneg113 = fneg double %mul112, !llfi_index !1131
  call void @doProfiling(i32 12)
  %157 = load double, ptr %fjyxi, align 8, !llfi_index !1132
  call void @doProfiling(i32 32)
  %158 = load double, ptr %fjxze, align 8, !llfi_index !1133
  call void @doProfiling(i32 32)
  %159 = call double @llvm.fmuladd.f64(double %157, double %158, double %fneg113), !llfi_index !1134
  call void @doProfiling(i32 56)
  store double %159, ptr %cjzet, align 8, !llfi_index !1135
  %160 = load double, ptr %fjxxi, align 8, !llfi_index !1136
  call void @doProfiling(i32 32)
  %161 = load double, ptr %fjyet, align 8, !llfi_index !1137
  call void @doProfiling(i32 32)
  %162 = load double, ptr %fjyxi, align 8, !llfi_index !1138
  call void @doProfiling(i32 32)
  %163 = load double, ptr %fjxet, align 8, !llfi_index !1139
  call void @doProfiling(i32 32)
  %mul116 = fmul double %162, %163, !llfi_index !1140
  call void @doProfiling(i32 18)
  %neg117 = fneg double %mul116, !llfi_index !1141
  call void @doProfiling(i32 12)
  %164 = call double @llvm.fmuladd.f64(double %160, double %161, double %neg117), !llfi_index !1142
  call void @doProfiling(i32 56)
  store double %164, ptr %cjzze, align 8, !llfi_index !1143
  %165 = load double, ptr %cjxxi, align 8, !llfi_index !1144
  call void @doProfiling(i32 32)
  %fneg118 = fneg double %165, !llfi_index !1145
  call void @doProfiling(i32 12)
  %166 = load double, ptr %cjxet, align 8, !llfi_index !1146
  call void @doProfiling(i32 32)
  %sub119 = fsub double %fneg118, %166, !llfi_index !1147
  call void @doProfiling(i32 16)
  %167 = load double, ptr %cjxze, align 8, !llfi_index !1148
  call void @doProfiling(i32 32)
  %sub120 = fsub double %sub119, %167, !llfi_index !1149
  call void @doProfiling(i32 16)
  %168 = load ptr, ptr %b.addr, align 8, !llfi_index !1150
  call void @doProfiling(i32 32)
  %arrayidx121 = getelementptr inbounds [8 x double], ptr %168, i64 0, !llfi_index !1151
  %arrayidx122 = getelementptr inbounds [8 x double], ptr %arrayidx121, i64 0, i64 0, !llfi_index !1152
  store double %sub120, ptr %arrayidx122, align 8, !llfi_index !1153
  %169 = load double, ptr %cjxxi, align 8, !llfi_index !1154
  call void @doProfiling(i32 32)
  %170 = load double, ptr %cjxet, align 8, !llfi_index !1155
  call void @doProfiling(i32 32)
  %sub123 = fsub double %169, %170, !llfi_index !1156
  call void @doProfiling(i32 16)
  %171 = load double, ptr %cjxze, align 8, !llfi_index !1157
  call void @doProfiling(i32 32)
  %sub124 = fsub double %sub123, %171, !llfi_index !1158
  call void @doProfiling(i32 16)
  %172 = load ptr, ptr %b.addr, align 8, !llfi_index !1159
  call void @doProfiling(i32 32)
  %arrayidx125 = getelementptr inbounds [8 x double], ptr %172, i64 0, !llfi_index !1160
  %arrayidx126 = getelementptr inbounds [8 x double], ptr %arrayidx125, i64 0, i64 1, !llfi_index !1161
  store double %sub124, ptr %arrayidx126, align 8, !llfi_index !1162
  %173 = load double, ptr %cjxxi, align 8, !llfi_index !1163
  call void @doProfiling(i32 32)
  %174 = load double, ptr %cjxet, align 8, !llfi_index !1164
  call void @doProfiling(i32 32)
  %add127 = fadd double %173, %174, !llfi_index !1165
  call void @doProfiling(i32 14)
  %175 = load double, ptr %cjxze, align 8, !llfi_index !1166
  call void @doProfiling(i32 32)
  %sub128 = fsub double %add127, %175, !llfi_index !1167
  call void @doProfiling(i32 16)
  %176 = load ptr, ptr %b.addr, align 8, !llfi_index !1168
  call void @doProfiling(i32 32)
  %arrayidx129 = getelementptr inbounds [8 x double], ptr %176, i64 0, !llfi_index !1169
  %arrayidx130 = getelementptr inbounds [8 x double], ptr %arrayidx129, i64 0, i64 2, !llfi_index !1170
  store double %sub128, ptr %arrayidx130, align 8, !llfi_index !1171
  %177 = load double, ptr %cjxxi, align 8, !llfi_index !1172
  call void @doProfiling(i32 32)
  %fneg131 = fneg double %177, !llfi_index !1173
  call void @doProfiling(i32 12)
  %178 = load double, ptr %cjxet, align 8, !llfi_index !1174
  call void @doProfiling(i32 32)
  %add132 = fadd double %fneg131, %178, !llfi_index !1175
  call void @doProfiling(i32 14)
  %179 = load double, ptr %cjxze, align 8, !llfi_index !1176
  call void @doProfiling(i32 32)
  %sub133 = fsub double %add132, %179, !llfi_index !1177
  call void @doProfiling(i32 16)
  %180 = load ptr, ptr %b.addr, align 8, !llfi_index !1178
  call void @doProfiling(i32 32)
  %arrayidx134 = getelementptr inbounds [8 x double], ptr %180, i64 0, !llfi_index !1179
  %arrayidx135 = getelementptr inbounds [8 x double], ptr %arrayidx134, i64 0, i64 3, !llfi_index !1180
  store double %sub133, ptr %arrayidx135, align 8, !llfi_index !1181
  %181 = load ptr, ptr %b.addr, align 8, !llfi_index !1182
  call void @doProfiling(i32 32)
  %arrayidx136 = getelementptr inbounds [8 x double], ptr %181, i64 0, !llfi_index !1183
  %arrayidx137 = getelementptr inbounds [8 x double], ptr %arrayidx136, i64 0, i64 2, !llfi_index !1184
  %182 = load double, ptr %arrayidx137, align 8, !llfi_index !1185
  call void @doProfiling(i32 32)
  %fneg138 = fneg double %182, !llfi_index !1186
  call void @doProfiling(i32 12)
  %183 = load ptr, ptr %b.addr, align 8, !llfi_index !1187
  call void @doProfiling(i32 32)
  %arrayidx139 = getelementptr inbounds [8 x double], ptr %183, i64 0, !llfi_index !1188
  %arrayidx140 = getelementptr inbounds [8 x double], ptr %arrayidx139, i64 0, i64 4, !llfi_index !1189
  store double %fneg138, ptr %arrayidx140, align 8, !llfi_index !1190
  %184 = load ptr, ptr %b.addr, align 8, !llfi_index !1191
  call void @doProfiling(i32 32)
  %arrayidx141 = getelementptr inbounds [8 x double], ptr %184, i64 0, !llfi_index !1192
  %arrayidx142 = getelementptr inbounds [8 x double], ptr %arrayidx141, i64 0, i64 3, !llfi_index !1193
  %185 = load double, ptr %arrayidx142, align 8, !llfi_index !1194
  call void @doProfiling(i32 32)
  %fneg143 = fneg double %185, !llfi_index !1195
  call void @doProfiling(i32 12)
  %186 = load ptr, ptr %b.addr, align 8, !llfi_index !1196
  call void @doProfiling(i32 32)
  %arrayidx144 = getelementptr inbounds [8 x double], ptr %186, i64 0, !llfi_index !1197
  %arrayidx145 = getelementptr inbounds [8 x double], ptr %arrayidx144, i64 0, i64 5, !llfi_index !1198
  store double %fneg143, ptr %arrayidx145, align 8, !llfi_index !1199
  %187 = load ptr, ptr %b.addr, align 8, !llfi_index !1200
  call void @doProfiling(i32 32)
  %arrayidx146 = getelementptr inbounds [8 x double], ptr %187, i64 0, !llfi_index !1201
  %arrayidx147 = getelementptr inbounds [8 x double], ptr %arrayidx146, i64 0, i64 0, !llfi_index !1202
  %188 = load double, ptr %arrayidx147, align 8, !llfi_index !1203
  call void @doProfiling(i32 32)
  %fneg148 = fneg double %188, !llfi_index !1204
  call void @doProfiling(i32 12)
  %189 = load ptr, ptr %b.addr, align 8, !llfi_index !1205
  call void @doProfiling(i32 32)
  %arrayidx149 = getelementptr inbounds [8 x double], ptr %189, i64 0, !llfi_index !1206
  %arrayidx150 = getelementptr inbounds [8 x double], ptr %arrayidx149, i64 0, i64 6, !llfi_index !1207
  store double %fneg148, ptr %arrayidx150, align 8, !llfi_index !1208
  %190 = load ptr, ptr %b.addr, align 8, !llfi_index !1209
  call void @doProfiling(i32 32)
  %arrayidx151 = getelementptr inbounds [8 x double], ptr %190, i64 0, !llfi_index !1210
  %arrayidx152 = getelementptr inbounds [8 x double], ptr %arrayidx151, i64 0, i64 1, !llfi_index !1211
  %191 = load double, ptr %arrayidx152, align 8, !llfi_index !1212
  call void @doProfiling(i32 32)
  %fneg153 = fneg double %191, !llfi_index !1213
  call void @doProfiling(i32 12)
  %192 = load ptr, ptr %b.addr, align 8, !llfi_index !1214
  call void @doProfiling(i32 32)
  %arrayidx154 = getelementptr inbounds [8 x double], ptr %192, i64 0, !llfi_index !1215
  %arrayidx155 = getelementptr inbounds [8 x double], ptr %arrayidx154, i64 0, i64 7, !llfi_index !1216
  store double %fneg153, ptr %arrayidx155, align 8, !llfi_index !1217
  %193 = load double, ptr %cjyxi, align 8, !llfi_index !1218
  call void @doProfiling(i32 32)
  %fneg156 = fneg double %193, !llfi_index !1219
  call void @doProfiling(i32 12)
  %194 = load double, ptr %cjyet, align 8, !llfi_index !1220
  call void @doProfiling(i32 32)
  %sub157 = fsub double %fneg156, %194, !llfi_index !1221
  call void @doProfiling(i32 16)
  %195 = load double, ptr %cjyze, align 8, !llfi_index !1222
  call void @doProfiling(i32 32)
  %sub158 = fsub double %sub157, %195, !llfi_index !1223
  call void @doProfiling(i32 16)
  %196 = load ptr, ptr %b.addr, align 8, !llfi_index !1224
  call void @doProfiling(i32 32)
  %arrayidx159 = getelementptr inbounds [8 x double], ptr %196, i64 1, !llfi_index !1225
  %arrayidx160 = getelementptr inbounds [8 x double], ptr %arrayidx159, i64 0, i64 0, !llfi_index !1226
  store double %sub158, ptr %arrayidx160, align 8, !llfi_index !1227
  %197 = load double, ptr %cjyxi, align 8, !llfi_index !1228
  call void @doProfiling(i32 32)
  %198 = load double, ptr %cjyet, align 8, !llfi_index !1229
  call void @doProfiling(i32 32)
  %sub161 = fsub double %197, %198, !llfi_index !1230
  call void @doProfiling(i32 16)
  %199 = load double, ptr %cjyze, align 8, !llfi_index !1231
  call void @doProfiling(i32 32)
  %sub162 = fsub double %sub161, %199, !llfi_index !1232
  call void @doProfiling(i32 16)
  %200 = load ptr, ptr %b.addr, align 8, !llfi_index !1233
  call void @doProfiling(i32 32)
  %arrayidx163 = getelementptr inbounds [8 x double], ptr %200, i64 1, !llfi_index !1234
  %arrayidx164 = getelementptr inbounds [8 x double], ptr %arrayidx163, i64 0, i64 1, !llfi_index !1235
  store double %sub162, ptr %arrayidx164, align 8, !llfi_index !1236
  %201 = load double, ptr %cjyxi, align 8, !llfi_index !1237
  call void @doProfiling(i32 32)
  %202 = load double, ptr %cjyet, align 8, !llfi_index !1238
  call void @doProfiling(i32 32)
  %add165 = fadd double %201, %202, !llfi_index !1239
  call void @doProfiling(i32 14)
  %203 = load double, ptr %cjyze, align 8, !llfi_index !1240
  call void @doProfiling(i32 32)
  %sub166 = fsub double %add165, %203, !llfi_index !1241
  call void @doProfiling(i32 16)
  %204 = load ptr, ptr %b.addr, align 8, !llfi_index !1242
  call void @doProfiling(i32 32)
  %arrayidx167 = getelementptr inbounds [8 x double], ptr %204, i64 1, !llfi_index !1243
  %arrayidx168 = getelementptr inbounds [8 x double], ptr %arrayidx167, i64 0, i64 2, !llfi_index !1244
  store double %sub166, ptr %arrayidx168, align 8, !llfi_index !1245
  %205 = load double, ptr %cjyxi, align 8, !llfi_index !1246
  call void @doProfiling(i32 32)
  %fneg169 = fneg double %205, !llfi_index !1247
  call void @doProfiling(i32 12)
  %206 = load double, ptr %cjyet, align 8, !llfi_index !1248
  call void @doProfiling(i32 32)
  %add170 = fadd double %fneg169, %206, !llfi_index !1249
  call void @doProfiling(i32 14)
  %207 = load double, ptr %cjyze, align 8, !llfi_index !1250
  call void @doProfiling(i32 32)
  %sub171 = fsub double %add170, %207, !llfi_index !1251
  call void @doProfiling(i32 16)
  %208 = load ptr, ptr %b.addr, align 8, !llfi_index !1252
  call void @doProfiling(i32 32)
  %arrayidx172 = getelementptr inbounds [8 x double], ptr %208, i64 1, !llfi_index !1253
  %arrayidx173 = getelementptr inbounds [8 x double], ptr %arrayidx172, i64 0, i64 3, !llfi_index !1254
  store double %sub171, ptr %arrayidx173, align 8, !llfi_index !1255
  %209 = load ptr, ptr %b.addr, align 8, !llfi_index !1256
  call void @doProfiling(i32 32)
  %arrayidx174 = getelementptr inbounds [8 x double], ptr %209, i64 1, !llfi_index !1257
  %arrayidx175 = getelementptr inbounds [8 x double], ptr %arrayidx174, i64 0, i64 2, !llfi_index !1258
  %210 = load double, ptr %arrayidx175, align 8, !llfi_index !1259
  call void @doProfiling(i32 32)
  %fneg176 = fneg double %210, !llfi_index !1260
  call void @doProfiling(i32 12)
  %211 = load ptr, ptr %b.addr, align 8, !llfi_index !1261
  call void @doProfiling(i32 32)
  %arrayidx177 = getelementptr inbounds [8 x double], ptr %211, i64 1, !llfi_index !1262
  %arrayidx178 = getelementptr inbounds [8 x double], ptr %arrayidx177, i64 0, i64 4, !llfi_index !1263
  store double %fneg176, ptr %arrayidx178, align 8, !llfi_index !1264
  %212 = load ptr, ptr %b.addr, align 8, !llfi_index !1265
  call void @doProfiling(i32 32)
  %arrayidx179 = getelementptr inbounds [8 x double], ptr %212, i64 1, !llfi_index !1266
  %arrayidx180 = getelementptr inbounds [8 x double], ptr %arrayidx179, i64 0, i64 3, !llfi_index !1267
  %213 = load double, ptr %arrayidx180, align 8, !llfi_index !1268
  call void @doProfiling(i32 32)
  %fneg181 = fneg double %213, !llfi_index !1269
  call void @doProfiling(i32 12)
  %214 = load ptr, ptr %b.addr, align 8, !llfi_index !1270
  call void @doProfiling(i32 32)
  %arrayidx182 = getelementptr inbounds [8 x double], ptr %214, i64 1, !llfi_index !1271
  %arrayidx183 = getelementptr inbounds [8 x double], ptr %arrayidx182, i64 0, i64 5, !llfi_index !1272
  store double %fneg181, ptr %arrayidx183, align 8, !llfi_index !1273
  %215 = load ptr, ptr %b.addr, align 8, !llfi_index !1274
  call void @doProfiling(i32 32)
  %arrayidx184 = getelementptr inbounds [8 x double], ptr %215, i64 1, !llfi_index !1275
  %arrayidx185 = getelementptr inbounds [8 x double], ptr %arrayidx184, i64 0, i64 0, !llfi_index !1276
  %216 = load double, ptr %arrayidx185, align 8, !llfi_index !1277
  call void @doProfiling(i32 32)
  %fneg186 = fneg double %216, !llfi_index !1278
  call void @doProfiling(i32 12)
  %217 = load ptr, ptr %b.addr, align 8, !llfi_index !1279
  call void @doProfiling(i32 32)
  %arrayidx187 = getelementptr inbounds [8 x double], ptr %217, i64 1, !llfi_index !1280
  %arrayidx188 = getelementptr inbounds [8 x double], ptr %arrayidx187, i64 0, i64 6, !llfi_index !1281
  store double %fneg186, ptr %arrayidx188, align 8, !llfi_index !1282
  %218 = load ptr, ptr %b.addr, align 8, !llfi_index !1283
  call void @doProfiling(i32 32)
  %arrayidx189 = getelementptr inbounds [8 x double], ptr %218, i64 1, !llfi_index !1284
  %arrayidx190 = getelementptr inbounds [8 x double], ptr %arrayidx189, i64 0, i64 1, !llfi_index !1285
  %219 = load double, ptr %arrayidx190, align 8, !llfi_index !1286
  call void @doProfiling(i32 32)
  %fneg191 = fneg double %219, !llfi_index !1287
  call void @doProfiling(i32 12)
  %220 = load ptr, ptr %b.addr, align 8, !llfi_index !1288
  call void @doProfiling(i32 32)
  %arrayidx192 = getelementptr inbounds [8 x double], ptr %220, i64 1, !llfi_index !1289
  %arrayidx193 = getelementptr inbounds [8 x double], ptr %arrayidx192, i64 0, i64 7, !llfi_index !1290
  store double %fneg191, ptr %arrayidx193, align 8, !llfi_index !1291
  %221 = load double, ptr %cjzxi, align 8, !llfi_index !1292
  call void @doProfiling(i32 32)
  %fneg194 = fneg double %221, !llfi_index !1293
  call void @doProfiling(i32 12)
  %222 = load double, ptr %cjzet, align 8, !llfi_index !1294
  call void @doProfiling(i32 32)
  %sub195 = fsub double %fneg194, %222, !llfi_index !1295
  call void @doProfiling(i32 16)
  %223 = load double, ptr %cjzze, align 8, !llfi_index !1296
  call void @doProfiling(i32 32)
  %sub196 = fsub double %sub195, %223, !llfi_index !1297
  call void @doProfiling(i32 16)
  %224 = load ptr, ptr %b.addr, align 8, !llfi_index !1298
  call void @doProfiling(i32 32)
  %arrayidx197 = getelementptr inbounds [8 x double], ptr %224, i64 2, !llfi_index !1299
  %arrayidx198 = getelementptr inbounds [8 x double], ptr %arrayidx197, i64 0, i64 0, !llfi_index !1300
  store double %sub196, ptr %arrayidx198, align 8, !llfi_index !1301
  %225 = load double, ptr %cjzxi, align 8, !llfi_index !1302
  call void @doProfiling(i32 32)
  %226 = load double, ptr %cjzet, align 8, !llfi_index !1303
  call void @doProfiling(i32 32)
  %sub199 = fsub double %225, %226, !llfi_index !1304
  call void @doProfiling(i32 16)
  %227 = load double, ptr %cjzze, align 8, !llfi_index !1305
  call void @doProfiling(i32 32)
  %sub200 = fsub double %sub199, %227, !llfi_index !1306
  call void @doProfiling(i32 16)
  %228 = load ptr, ptr %b.addr, align 8, !llfi_index !1307
  call void @doProfiling(i32 32)
  %arrayidx201 = getelementptr inbounds [8 x double], ptr %228, i64 2, !llfi_index !1308
  %arrayidx202 = getelementptr inbounds [8 x double], ptr %arrayidx201, i64 0, i64 1, !llfi_index !1309
  store double %sub200, ptr %arrayidx202, align 8, !llfi_index !1310
  %229 = load double, ptr %cjzxi, align 8, !llfi_index !1311
  call void @doProfiling(i32 32)
  %230 = load double, ptr %cjzet, align 8, !llfi_index !1312
  call void @doProfiling(i32 32)
  %add203 = fadd double %229, %230, !llfi_index !1313
  call void @doProfiling(i32 14)
  %231 = load double, ptr %cjzze, align 8, !llfi_index !1314
  call void @doProfiling(i32 32)
  %sub204 = fsub double %add203, %231, !llfi_index !1315
  call void @doProfiling(i32 16)
  %232 = load ptr, ptr %b.addr, align 8, !llfi_index !1316
  call void @doProfiling(i32 32)
  %arrayidx205 = getelementptr inbounds [8 x double], ptr %232, i64 2, !llfi_index !1317
  %arrayidx206 = getelementptr inbounds [8 x double], ptr %arrayidx205, i64 0, i64 2, !llfi_index !1318
  store double %sub204, ptr %arrayidx206, align 8, !llfi_index !1319
  %233 = load double, ptr %cjzxi, align 8, !llfi_index !1320
  call void @doProfiling(i32 32)
  %fneg207 = fneg double %233, !llfi_index !1321
  call void @doProfiling(i32 12)
  %234 = load double, ptr %cjzet, align 8, !llfi_index !1322
  call void @doProfiling(i32 32)
  %add208 = fadd double %fneg207, %234, !llfi_index !1323
  call void @doProfiling(i32 14)
  %235 = load double, ptr %cjzze, align 8, !llfi_index !1324
  call void @doProfiling(i32 32)
  %sub209 = fsub double %add208, %235, !llfi_index !1325
  call void @doProfiling(i32 16)
  %236 = load ptr, ptr %b.addr, align 8, !llfi_index !1326
  call void @doProfiling(i32 32)
  %arrayidx210 = getelementptr inbounds [8 x double], ptr %236, i64 2, !llfi_index !1327
  %arrayidx211 = getelementptr inbounds [8 x double], ptr %arrayidx210, i64 0, i64 3, !llfi_index !1328
  store double %sub209, ptr %arrayidx211, align 8, !llfi_index !1329
  %237 = load ptr, ptr %b.addr, align 8, !llfi_index !1330
  call void @doProfiling(i32 32)
  %arrayidx212 = getelementptr inbounds [8 x double], ptr %237, i64 2, !llfi_index !1331
  %arrayidx213 = getelementptr inbounds [8 x double], ptr %arrayidx212, i64 0, i64 2, !llfi_index !1332
  %238 = load double, ptr %arrayidx213, align 8, !llfi_index !1333
  call void @doProfiling(i32 32)
  %fneg214 = fneg double %238, !llfi_index !1334
  call void @doProfiling(i32 12)
  %239 = load ptr, ptr %b.addr, align 8, !llfi_index !1335
  call void @doProfiling(i32 32)
  %arrayidx215 = getelementptr inbounds [8 x double], ptr %239, i64 2, !llfi_index !1336
  %arrayidx216 = getelementptr inbounds [8 x double], ptr %arrayidx215, i64 0, i64 4, !llfi_index !1337
  store double %fneg214, ptr %arrayidx216, align 8, !llfi_index !1338
  %240 = load ptr, ptr %b.addr, align 8, !llfi_index !1339
  call void @doProfiling(i32 32)
  %arrayidx217 = getelementptr inbounds [8 x double], ptr %240, i64 2, !llfi_index !1340
  %arrayidx218 = getelementptr inbounds [8 x double], ptr %arrayidx217, i64 0, i64 3, !llfi_index !1341
  %241 = load double, ptr %arrayidx218, align 8, !llfi_index !1342
  call void @doProfiling(i32 32)
  %fneg219 = fneg double %241, !llfi_index !1343
  call void @doProfiling(i32 12)
  %242 = load ptr, ptr %b.addr, align 8, !llfi_index !1344
  call void @doProfiling(i32 32)
  %arrayidx220 = getelementptr inbounds [8 x double], ptr %242, i64 2, !llfi_index !1345
  %arrayidx221 = getelementptr inbounds [8 x double], ptr %arrayidx220, i64 0, i64 5, !llfi_index !1346
  store double %fneg219, ptr %arrayidx221, align 8, !llfi_index !1347
  %243 = load ptr, ptr %b.addr, align 8, !llfi_index !1348
  call void @doProfiling(i32 32)
  %arrayidx222 = getelementptr inbounds [8 x double], ptr %243, i64 2, !llfi_index !1349
  %arrayidx223 = getelementptr inbounds [8 x double], ptr %arrayidx222, i64 0, i64 0, !llfi_index !1350
  %244 = load double, ptr %arrayidx223, align 8, !llfi_index !1351
  call void @doProfiling(i32 32)
  %fneg224 = fneg double %244, !llfi_index !1352
  call void @doProfiling(i32 12)
  %245 = load ptr, ptr %b.addr, align 8, !llfi_index !1353
  call void @doProfiling(i32 32)
  %arrayidx225 = getelementptr inbounds [8 x double], ptr %245, i64 2, !llfi_index !1354
  %arrayidx226 = getelementptr inbounds [8 x double], ptr %arrayidx225, i64 0, i64 6, !llfi_index !1355
  store double %fneg224, ptr %arrayidx226, align 8, !llfi_index !1356
  %246 = load ptr, ptr %b.addr, align 8, !llfi_index !1357
  call void @doProfiling(i32 32)
  %arrayidx227 = getelementptr inbounds [8 x double], ptr %246, i64 2, !llfi_index !1358
  %arrayidx228 = getelementptr inbounds [8 x double], ptr %arrayidx227, i64 0, i64 1, !llfi_index !1359
  %247 = load double, ptr %arrayidx228, align 8, !llfi_index !1360
  call void @doProfiling(i32 32)
  %fneg229 = fneg double %247, !llfi_index !1361
  call void @doProfiling(i32 12)
  %248 = load ptr, ptr %b.addr, align 8, !llfi_index !1362
  call void @doProfiling(i32 32)
  %arrayidx230 = getelementptr inbounds [8 x double], ptr %248, i64 2, !llfi_index !1363
  %arrayidx231 = getelementptr inbounds [8 x double], ptr %arrayidx230, i64 0, i64 7, !llfi_index !1364
  store double %fneg229, ptr %arrayidx231, align 8, !llfi_index !1365
  %249 = load double, ptr %fjxet, align 8, !llfi_index !1366
  call void @doProfiling(i32 32)
  %250 = load double, ptr %cjxet, align 8, !llfi_index !1367
  call void @doProfiling(i32 32)
  %251 = load double, ptr %fjyet, align 8, !llfi_index !1368
  call void @doProfiling(i32 32)
  %252 = load double, ptr %cjyet, align 8, !llfi_index !1369
  call void @doProfiling(i32 32)
  %mul233 = fmul double %251, %252, !llfi_index !1370
  call void @doProfiling(i32 18)
  %253 = call double @llvm.fmuladd.f64(double %249, double %250, double %mul233), !llfi_index !1371
  call void @doProfiling(i32 56)
  %254 = load double, ptr %fjzet, align 8, !llfi_index !1372
  call void @doProfiling(i32 32)
  %255 = load double, ptr %cjzet, align 8, !llfi_index !1373
  call void @doProfiling(i32 32)
  %256 = call double @llvm.fmuladd.f64(double %254, double %255, double %253), !llfi_index !1374
  call void @doProfiling(i32 56)
  %mul235 = fmul double 8.000000e+00, %256, !llfi_index !1375
  call void @doProfiling(i32 18)
  %257 = load ptr, ptr %volume.addr, align 8, !llfi_index !1376
  call void @doProfiling(i32 32)
  store double %mul235, ptr %257, align 8, !llfi_index !1377
  ret void, !llfi_index !1378
}

; Function Attrs: nocallback nofree nosync nounwind readnone speculatable willreturn
declare double @llvm.fmuladd.f64(double, double, double) #8

; Function Attrs: mustprogress noinline nounwind optnone uwtable
define dso_local void @_Z17SumElemFaceNormalPdS_S_S_S_S_S_S_S_S_S_S_dddddddddddd(ptr noundef %normalX0, ptr noundef %normalY0, ptr noundef %normalZ0, ptr noundef %normalX1, ptr noundef %normalY1, ptr noundef %normalZ1, ptr noundef %normalX2, ptr noundef %normalY2, ptr noundef %normalZ2, ptr noundef %normalX3, ptr noundef %normalY3, ptr noundef %normalZ3, double noundef %x0, double noundef %y0, double noundef %z0, double noundef %x1, double noundef %y1, double noundef %z1, double noundef %x2, double noundef %y2, double noundef %z2, double noundef %x3, double noundef %y3, double noundef %z3) #3 {
entry:
  %normalX0.addr = alloca ptr, align 8, !llfi_index !1379
  call void @doProfiling(i32 31)
  %normalY0.addr = alloca ptr, align 8, !llfi_index !1380
  call void @doProfiling(i32 31)
  %normalZ0.addr = alloca ptr, align 8, !llfi_index !1381
  call void @doProfiling(i32 31)
  %normalX1.addr = alloca ptr, align 8, !llfi_index !1382
  call void @doProfiling(i32 31)
  %normalY1.addr = alloca ptr, align 8, !llfi_index !1383
  call void @doProfiling(i32 31)
  %normalZ1.addr = alloca ptr, align 8, !llfi_index !1384
  call void @doProfiling(i32 31)
  %normalX2.addr = alloca ptr, align 8, !llfi_index !1385
  call void @doProfiling(i32 31)
  %normalY2.addr = alloca ptr, align 8, !llfi_index !1386
  call void @doProfiling(i32 31)
  %normalZ2.addr = alloca ptr, align 8, !llfi_index !1387
  call void @doProfiling(i32 31)
  %normalX3.addr = alloca ptr, align 8, !llfi_index !1388
  call void @doProfiling(i32 31)
  %normalY3.addr = alloca ptr, align 8, !llfi_index !1389
  call void @doProfiling(i32 31)
  %normalZ3.addr = alloca ptr, align 8, !llfi_index !1390
  call void @doProfiling(i32 31)
  %x0.addr = alloca double, align 8, !llfi_index !1391
  call void @doProfiling(i32 31)
  %y0.addr = alloca double, align 8, !llfi_index !1392
  call void @doProfiling(i32 31)
  %z0.addr = alloca double, align 8, !llfi_index !1393
  call void @doProfiling(i32 31)
  %x1.addr = alloca double, align 8, !llfi_index !1394
  call void @doProfiling(i32 31)
  %y1.addr = alloca double, align 8, !llfi_index !1395
  call void @doProfiling(i32 31)
  %z1.addr = alloca double, align 8, !llfi_index !1396
  call void @doProfiling(i32 31)
  %x2.addr = alloca double, align 8, !llfi_index !1397
  call void @doProfiling(i32 31)
  %y2.addr = alloca double, align 8, !llfi_index !1398
  call void @doProfiling(i32 31)
  %z2.addr = alloca double, align 8, !llfi_index !1399
  call void @doProfiling(i32 31)
  %x3.addr = alloca double, align 8, !llfi_index !1400
  call void @doProfiling(i32 31)
  %y3.addr = alloca double, align 8, !llfi_index !1401
  call void @doProfiling(i32 31)
  %z3.addr = alloca double, align 8, !llfi_index !1402
  call void @doProfiling(i32 31)
  %bisectX0 = alloca double, align 8, !llfi_index !1403
  call void @doProfiling(i32 31)
  %bisectY0 = alloca double, align 8, !llfi_index !1404
  call void @doProfiling(i32 31)
  %bisectZ0 = alloca double, align 8, !llfi_index !1405
  call void @doProfiling(i32 31)
  %bisectX1 = alloca double, align 8, !llfi_index !1406
  call void @doProfiling(i32 31)
  %bisectY1 = alloca double, align 8, !llfi_index !1407
  call void @doProfiling(i32 31)
  %bisectZ1 = alloca double, align 8, !llfi_index !1408
  call void @doProfiling(i32 31)
  %areaX = alloca double, align 8, !llfi_index !1409
  call void @doProfiling(i32 31)
  %areaY = alloca double, align 8, !llfi_index !1410
  call void @doProfiling(i32 31)
  %areaZ = alloca double, align 8, !llfi_index !1411
  call void @doProfiling(i32 31)
  store ptr %normalX0, ptr %normalX0.addr, align 8, !llfi_index !1412
  store ptr %normalY0, ptr %normalY0.addr, align 8, !llfi_index !1413
  store ptr %normalZ0, ptr %normalZ0.addr, align 8, !llfi_index !1414
  store ptr %normalX1, ptr %normalX1.addr, align 8, !llfi_index !1415
  store ptr %normalY1, ptr %normalY1.addr, align 8, !llfi_index !1416
  store ptr %normalZ1, ptr %normalZ1.addr, align 8, !llfi_index !1417
  store ptr %normalX2, ptr %normalX2.addr, align 8, !llfi_index !1418
  store ptr %normalY2, ptr %normalY2.addr, align 8, !llfi_index !1419
  store ptr %normalZ2, ptr %normalZ2.addr, align 8, !llfi_index !1420
  store ptr %normalX3, ptr %normalX3.addr, align 8, !llfi_index !1421
  store ptr %normalY3, ptr %normalY3.addr, align 8, !llfi_index !1422
  store ptr %normalZ3, ptr %normalZ3.addr, align 8, !llfi_index !1423
  store double %x0, ptr %x0.addr, align 8, !llfi_index !1424
  store double %y0, ptr %y0.addr, align 8, !llfi_index !1425
  store double %z0, ptr %z0.addr, align 8, !llfi_index !1426
  store double %x1, ptr %x1.addr, align 8, !llfi_index !1427
  store double %y1, ptr %y1.addr, align 8, !llfi_index !1428
  store double %z1, ptr %z1.addr, align 8, !llfi_index !1429
  store double %x2, ptr %x2.addr, align 8, !llfi_index !1430
  store double %y2, ptr %y2.addr, align 8, !llfi_index !1431
  store double %z2, ptr %z2.addr, align 8, !llfi_index !1432
  store double %x3, ptr %x3.addr, align 8, !llfi_index !1433
  store double %y3, ptr %y3.addr, align 8, !llfi_index !1434
  store double %z3, ptr %z3.addr, align 8, !llfi_index !1435
  %0 = load double, ptr %x3.addr, align 8, !llfi_index !1436
  call void @doProfiling(i32 32)
  %1 = load double, ptr %x2.addr, align 8, !llfi_index !1437
  call void @doProfiling(i32 32)
  %add = fadd double %0, %1, !llfi_index !1438
  call void @doProfiling(i32 14)
  %2 = load double, ptr %x1.addr, align 8, !llfi_index !1439
  call void @doProfiling(i32 32)
  %sub = fsub double %add, %2, !llfi_index !1440
  call void @doProfiling(i32 16)
  %3 = load double, ptr %x0.addr, align 8, !llfi_index !1441
  call void @doProfiling(i32 32)
  %sub1 = fsub double %sub, %3, !llfi_index !1442
  call void @doProfiling(i32 16)
  %mul = fmul double 5.000000e-01, %sub1, !llfi_index !1443
  call void @doProfiling(i32 18)
  store double %mul, ptr %bisectX0, align 8, !llfi_index !1444
  %4 = load double, ptr %y3.addr, align 8, !llfi_index !1445
  call void @doProfiling(i32 32)
  %5 = load double, ptr %y2.addr, align 8, !llfi_index !1446
  call void @doProfiling(i32 32)
  %add2 = fadd double %4, %5, !llfi_index !1447
  call void @doProfiling(i32 14)
  %6 = load double, ptr %y1.addr, align 8, !llfi_index !1448
  call void @doProfiling(i32 32)
  %sub3 = fsub double %add2, %6, !llfi_index !1449
  call void @doProfiling(i32 16)
  %7 = load double, ptr %y0.addr, align 8, !llfi_index !1450
  call void @doProfiling(i32 32)
  %sub4 = fsub double %sub3, %7, !llfi_index !1451
  call void @doProfiling(i32 16)
  %mul5 = fmul double 5.000000e-01, %sub4, !llfi_index !1452
  call void @doProfiling(i32 18)
  store double %mul5, ptr %bisectY0, align 8, !llfi_index !1453
  %8 = load double, ptr %z3.addr, align 8, !llfi_index !1454
  call void @doProfiling(i32 32)
  %9 = load double, ptr %z2.addr, align 8, !llfi_index !1455
  call void @doProfiling(i32 32)
  %add6 = fadd double %8, %9, !llfi_index !1456
  call void @doProfiling(i32 14)
  %10 = load double, ptr %z1.addr, align 8, !llfi_index !1457
  call void @doProfiling(i32 32)
  %sub7 = fsub double %add6, %10, !llfi_index !1458
  call void @doProfiling(i32 16)
  %11 = load double, ptr %z0.addr, align 8, !llfi_index !1459
  call void @doProfiling(i32 32)
  %sub8 = fsub double %sub7, %11, !llfi_index !1460
  call void @doProfiling(i32 16)
  %mul9 = fmul double 5.000000e-01, %sub8, !llfi_index !1461
  call void @doProfiling(i32 18)
  store double %mul9, ptr %bisectZ0, align 8, !llfi_index !1462
  %12 = load double, ptr %x2.addr, align 8, !llfi_index !1463
  call void @doProfiling(i32 32)
  %13 = load double, ptr %x1.addr, align 8, !llfi_index !1464
  call void @doProfiling(i32 32)
  %add10 = fadd double %12, %13, !llfi_index !1465
  call void @doProfiling(i32 14)
  %14 = load double, ptr %x3.addr, align 8, !llfi_index !1466
  call void @doProfiling(i32 32)
  %sub11 = fsub double %add10, %14, !llfi_index !1467
  call void @doProfiling(i32 16)
  %15 = load double, ptr %x0.addr, align 8, !llfi_index !1468
  call void @doProfiling(i32 32)
  %sub12 = fsub double %sub11, %15, !llfi_index !1469
  call void @doProfiling(i32 16)
  %mul13 = fmul double 5.000000e-01, %sub12, !llfi_index !1470
  call void @doProfiling(i32 18)
  store double %mul13, ptr %bisectX1, align 8, !llfi_index !1471
  %16 = load double, ptr %y2.addr, align 8, !llfi_index !1472
  call void @doProfiling(i32 32)
  %17 = load double, ptr %y1.addr, align 8, !llfi_index !1473
  call void @doProfiling(i32 32)
  %add14 = fadd double %16, %17, !llfi_index !1474
  call void @doProfiling(i32 14)
  %18 = load double, ptr %y3.addr, align 8, !llfi_index !1475
  call void @doProfiling(i32 32)
  %sub15 = fsub double %add14, %18, !llfi_index !1476
  call void @doProfiling(i32 16)
  %19 = load double, ptr %y0.addr, align 8, !llfi_index !1477
  call void @doProfiling(i32 32)
  %sub16 = fsub double %sub15, %19, !llfi_index !1478
  call void @doProfiling(i32 16)
  %mul17 = fmul double 5.000000e-01, %sub16, !llfi_index !1479
  call void @doProfiling(i32 18)
  store double %mul17, ptr %bisectY1, align 8, !llfi_index !1480
  %20 = load double, ptr %z2.addr, align 8, !llfi_index !1481
  call void @doProfiling(i32 32)
  %21 = load double, ptr %z1.addr, align 8, !llfi_index !1482
  call void @doProfiling(i32 32)
  %add18 = fadd double %20, %21, !llfi_index !1483
  call void @doProfiling(i32 14)
  %22 = load double, ptr %z3.addr, align 8, !llfi_index !1484
  call void @doProfiling(i32 32)
  %sub19 = fsub double %add18, %22, !llfi_index !1485
  call void @doProfiling(i32 16)
  %23 = load double, ptr %z0.addr, align 8, !llfi_index !1486
  call void @doProfiling(i32 32)
  %sub20 = fsub double %sub19, %23, !llfi_index !1487
  call void @doProfiling(i32 16)
  %mul21 = fmul double 5.000000e-01, %sub20, !llfi_index !1488
  call void @doProfiling(i32 18)
  store double %mul21, ptr %bisectZ1, align 8, !llfi_index !1489
  %24 = load double, ptr %bisectY0, align 8, !llfi_index !1490
  call void @doProfiling(i32 32)
  %25 = load double, ptr %bisectZ1, align 8, !llfi_index !1491
  call void @doProfiling(i32 32)
  %26 = load double, ptr %bisectZ0, align 8, !llfi_index !1492
  call void @doProfiling(i32 32)
  %27 = load double, ptr %bisectY1, align 8, !llfi_index !1493
  call void @doProfiling(i32 32)
  %mul23 = fmul double %26, %27, !llfi_index !1494
  call void @doProfiling(i32 18)
  %neg = fneg double %mul23, !llfi_index !1495
  call void @doProfiling(i32 12)
  %28 = call double @llvm.fmuladd.f64(double %24, double %25, double %neg), !llfi_index !1496
  call void @doProfiling(i32 56)
  %mul24 = fmul double 2.500000e-01, %28, !llfi_index !1497
  call void @doProfiling(i32 18)
  store double %mul24, ptr %areaX, align 8, !llfi_index !1498
  %29 = load double, ptr %bisectZ0, align 8, !llfi_index !1499
  call void @doProfiling(i32 32)
  %30 = load double, ptr %bisectX1, align 8, !llfi_index !1500
  call void @doProfiling(i32 32)
  %31 = load double, ptr %bisectX0, align 8, !llfi_index !1501
  call void @doProfiling(i32 32)
  %32 = load double, ptr %bisectZ1, align 8, !llfi_index !1502
  call void @doProfiling(i32 32)
  %mul26 = fmul double %31, %32, !llfi_index !1503
  call void @doProfiling(i32 18)
  %neg27 = fneg double %mul26, !llfi_index !1504
  call void @doProfiling(i32 12)
  %33 = call double @llvm.fmuladd.f64(double %29, double %30, double %neg27), !llfi_index !1505
  call void @doProfiling(i32 56)
  %mul28 = fmul double 2.500000e-01, %33, !llfi_index !1506
  call void @doProfiling(i32 18)
  store double %mul28, ptr %areaY, align 8, !llfi_index !1507
  %34 = load double, ptr %bisectX0, align 8, !llfi_index !1508
  call void @doProfiling(i32 32)
  %35 = load double, ptr %bisectY1, align 8, !llfi_index !1509
  call void @doProfiling(i32 32)
  %36 = load double, ptr %bisectY0, align 8, !llfi_index !1510
  call void @doProfiling(i32 32)
  %37 = load double, ptr %bisectX1, align 8, !llfi_index !1511
  call void @doProfiling(i32 32)
  %mul30 = fmul double %36, %37, !llfi_index !1512
  call void @doProfiling(i32 18)
  %neg31 = fneg double %mul30, !llfi_index !1513
  call void @doProfiling(i32 12)
  %38 = call double @llvm.fmuladd.f64(double %34, double %35, double %neg31), !llfi_index !1514
  call void @doProfiling(i32 56)
  %mul32 = fmul double 2.500000e-01, %38, !llfi_index !1515
  call void @doProfiling(i32 18)
  store double %mul32, ptr %areaZ, align 8, !llfi_index !1516
  %39 = load double, ptr %areaX, align 8, !llfi_index !1517
  call void @doProfiling(i32 32)
  %40 = load ptr, ptr %normalX0.addr, align 8, !llfi_index !1518
  call void @doProfiling(i32 32)
  %41 = load double, ptr %40, align 8, !llfi_index !1519
  call void @doProfiling(i32 32)
  %add33 = fadd double %41, %39, !llfi_index !1520
  call void @doProfiling(i32 14)
  store double %add33, ptr %40, align 8, !llfi_index !1521
  %42 = load double, ptr %areaX, align 8, !llfi_index !1522
  call void @doProfiling(i32 32)
  %43 = load ptr, ptr %normalX1.addr, align 8, !llfi_index !1523
  call void @doProfiling(i32 32)
  %44 = load double, ptr %43, align 8, !llfi_index !1524
  call void @doProfiling(i32 32)
  %add34 = fadd double %44, %42, !llfi_index !1525
  call void @doProfiling(i32 14)
  store double %add34, ptr %43, align 8, !llfi_index !1526
  %45 = load double, ptr %areaX, align 8, !llfi_index !1527
  call void @doProfiling(i32 32)
  %46 = load ptr, ptr %normalX2.addr, align 8, !llfi_index !1528
  call void @doProfiling(i32 32)
  %47 = load double, ptr %46, align 8, !llfi_index !1529
  call void @doProfiling(i32 32)
  %add35 = fadd double %47, %45, !llfi_index !1530
  call void @doProfiling(i32 14)
  store double %add35, ptr %46, align 8, !llfi_index !1531
  %48 = load double, ptr %areaX, align 8, !llfi_index !1532
  call void @doProfiling(i32 32)
  %49 = load ptr, ptr %normalX3.addr, align 8, !llfi_index !1533
  call void @doProfiling(i32 32)
  %50 = load double, ptr %49, align 8, !llfi_index !1534
  call void @doProfiling(i32 32)
  %add36 = fadd double %50, %48, !llfi_index !1535
  call void @doProfiling(i32 14)
  store double %add36, ptr %49, align 8, !llfi_index !1536
  %51 = load double, ptr %areaY, align 8, !llfi_index !1537
  call void @doProfiling(i32 32)
  %52 = load ptr, ptr %normalY0.addr, align 8, !llfi_index !1538
  call void @doProfiling(i32 32)
  %53 = load double, ptr %52, align 8, !llfi_index !1539
  call void @doProfiling(i32 32)
  %add37 = fadd double %53, %51, !llfi_index !1540
  call void @doProfiling(i32 14)
  store double %add37, ptr %52, align 8, !llfi_index !1541
  %54 = load double, ptr %areaY, align 8, !llfi_index !1542
  call void @doProfiling(i32 32)
  %55 = load ptr, ptr %normalY1.addr, align 8, !llfi_index !1543
  call void @doProfiling(i32 32)
  %56 = load double, ptr %55, align 8, !llfi_index !1544
  call void @doProfiling(i32 32)
  %add38 = fadd double %56, %54, !llfi_index !1545
  call void @doProfiling(i32 14)
  store double %add38, ptr %55, align 8, !llfi_index !1546
  %57 = load double, ptr %areaY, align 8, !llfi_index !1547
  call void @doProfiling(i32 32)
  %58 = load ptr, ptr %normalY2.addr, align 8, !llfi_index !1548
  call void @doProfiling(i32 32)
  %59 = load double, ptr %58, align 8, !llfi_index !1549
  call void @doProfiling(i32 32)
  %add39 = fadd double %59, %57, !llfi_index !1550
  call void @doProfiling(i32 14)
  store double %add39, ptr %58, align 8, !llfi_index !1551
  %60 = load double, ptr %areaY, align 8, !llfi_index !1552
  call void @doProfiling(i32 32)
  %61 = load ptr, ptr %normalY3.addr, align 8, !llfi_index !1553
  call void @doProfiling(i32 32)
  %62 = load double, ptr %61, align 8, !llfi_index !1554
  call void @doProfiling(i32 32)
  %add40 = fadd double %62, %60, !llfi_index !1555
  call void @doProfiling(i32 14)
  store double %add40, ptr %61, align 8, !llfi_index !1556
  %63 = load double, ptr %areaZ, align 8, !llfi_index !1557
  call void @doProfiling(i32 32)
  %64 = load ptr, ptr %normalZ0.addr, align 8, !llfi_index !1558
  call void @doProfiling(i32 32)
  %65 = load double, ptr %64, align 8, !llfi_index !1559
  call void @doProfiling(i32 32)
  %add41 = fadd double %65, %63, !llfi_index !1560
  call void @doProfiling(i32 14)
  store double %add41, ptr %64, align 8, !llfi_index !1561
  %66 = load double, ptr %areaZ, align 8, !llfi_index !1562
  call void @doProfiling(i32 32)
  %67 = load ptr, ptr %normalZ1.addr, align 8, !llfi_index !1563
  call void @doProfiling(i32 32)
  %68 = load double, ptr %67, align 8, !llfi_index !1564
  call void @doProfiling(i32 32)
  %add42 = fadd double %68, %66, !llfi_index !1565
  call void @doProfiling(i32 14)
  store double %add42, ptr %67, align 8, !llfi_index !1566
  %69 = load double, ptr %areaZ, align 8, !llfi_index !1567
  call void @doProfiling(i32 32)
  %70 = load ptr, ptr %normalZ2.addr, align 8, !llfi_index !1568
  call void @doProfiling(i32 32)
  %71 = load double, ptr %70, align 8, !llfi_index !1569
  call void @doProfiling(i32 32)
  %add43 = fadd double %71, %69, !llfi_index !1570
  call void @doProfiling(i32 14)
  store double %add43, ptr %70, align 8, !llfi_index !1571
  %72 = load double, ptr %areaZ, align 8, !llfi_index !1572
  call void @doProfiling(i32 32)
  %73 = load ptr, ptr %normalZ3.addr, align 8, !llfi_index !1573
  call void @doProfiling(i32 32)
  %74 = load double, ptr %73, align 8, !llfi_index !1574
  call void @doProfiling(i32 32)
  %add44 = fadd double %74, %72, !llfi_index !1575
  call void @doProfiling(i32 14)
  store double %add44, ptr %73, align 8, !llfi_index !1576
  ret void, !llfi_index !1577
}

; Function Attrs: mustprogress noinline nounwind optnone uwtable
define dso_local void @_Z19CalcElemNodeNormalsPdS_S_PKdS1_S1_(ptr noundef %pfx, ptr noundef %pfy, ptr noundef %pfz, ptr noundef %x, ptr noundef %y, ptr noundef %z) #3 {
entry:
  %pfx.addr = alloca ptr, align 8, !llfi_index !1578
  call void @doProfiling(i32 31)
  %pfy.addr = alloca ptr, align 8, !llfi_index !1579
  call void @doProfiling(i32 31)
  %pfz.addr = alloca ptr, align 8, !llfi_index !1580
  call void @doProfiling(i32 31)
  %x.addr = alloca ptr, align 8, !llfi_index !1581
  call void @doProfiling(i32 31)
  %y.addr = alloca ptr, align 8, !llfi_index !1582
  call void @doProfiling(i32 31)
  %z.addr = alloca ptr, align 8, !llfi_index !1583
  call void @doProfiling(i32 31)
  %i = alloca i32, align 4, !llfi_index !1584
  call void @doProfiling(i32 31)
  store ptr %pfx, ptr %pfx.addr, align 8, !llfi_index !1585
  store ptr %pfy, ptr %pfy.addr, align 8, !llfi_index !1586
  store ptr %pfz, ptr %pfz.addr, align 8, !llfi_index !1587
  store ptr %x, ptr %x.addr, align 8, !llfi_index !1588
  store ptr %y, ptr %y.addr, align 8, !llfi_index !1589
  store ptr %z, ptr %z.addr, align 8, !llfi_index !1590
  store i32 0, ptr %i, align 4, !llfi_index !1591
  br label %for.cond, !llfi_index !1592

for.cond:                                         ; preds = %for.inc, %entry
  %0 = load i32, ptr %i, align 4, !llfi_index !1593
  call void @doProfiling(i32 32)
  %cmp = icmp slt i32 %0, 8, !llfi_index !1594
  call void @doProfiling(i32 53)
  br i1 %cmp, label %for.body, label %for.end, !llfi_index !1595

for.body:                                         ; preds = %for.cond
  %1 = load ptr, ptr %pfx.addr, align 8, !llfi_index !1596
  call void @doProfiling(i32 32)
  %2 = load i32, ptr %i, align 4, !llfi_index !1597
  call void @doProfiling(i32 32)
  %idxprom = sext i32 %2 to i64, !llfi_index !1598
  call void @doProfiling(i32 40)
  %arrayidx = getelementptr inbounds double, ptr %1, i64 %idxprom, !llfi_index !1599
  store double 0.000000e+00, ptr %arrayidx, align 8, !llfi_index !1600
  %3 = load ptr, ptr %pfy.addr, align 8, !llfi_index !1601
  call void @doProfiling(i32 32)
  %4 = load i32, ptr %i, align 4, !llfi_index !1602
  call void @doProfiling(i32 32)
  %idxprom1 = sext i32 %4 to i64, !llfi_index !1603
  call void @doProfiling(i32 40)
  %arrayidx2 = getelementptr inbounds double, ptr %3, i64 %idxprom1, !llfi_index !1604
  store double 0.000000e+00, ptr %arrayidx2, align 8, !llfi_index !1605
  %5 = load ptr, ptr %pfz.addr, align 8, !llfi_index !1606
  call void @doProfiling(i32 32)
  %6 = load i32, ptr %i, align 4, !llfi_index !1607
  call void @doProfiling(i32 32)
  %idxprom3 = sext i32 %6 to i64, !llfi_index !1608
  call void @doProfiling(i32 40)
  %arrayidx4 = getelementptr inbounds double, ptr %5, i64 %idxprom3, !llfi_index !1609
  store double 0.000000e+00, ptr %arrayidx4, align 8, !llfi_index !1610
  br label %for.inc, !llfi_index !1611

for.inc:                                          ; preds = %for.body
  %7 = load i32, ptr %i, align 4, !llfi_index !1612
  call void @doProfiling(i32 32)
  %inc = add nsw i32 %7, 1, !llfi_index !1613
  call void @doProfiling(i32 13)
  store i32 %inc, ptr %i, align 4, !llfi_index !1614
  br label %for.cond, !llvm.loop !1615, !llfi_index !1616

for.end:                                          ; preds = %for.cond
  %8 = load ptr, ptr %pfx.addr, align 8, !llfi_index !1617
  call void @doProfiling(i32 32)
  %arrayidx5 = getelementptr inbounds double, ptr %8, i64 0, !llfi_index !1618
  %9 = load ptr, ptr %pfy.addr, align 8, !llfi_index !1619
  call void @doProfiling(i32 32)
  %arrayidx6 = getelementptr inbounds double, ptr %9, i64 0, !llfi_index !1620
  %10 = load ptr, ptr %pfz.addr, align 8, !llfi_index !1621
  call void @doProfiling(i32 32)
  %arrayidx7 = getelementptr inbounds double, ptr %10, i64 0, !llfi_index !1622
  %11 = load ptr, ptr %pfx.addr, align 8, !llfi_index !1623
  call void @doProfiling(i32 32)
  %arrayidx8 = getelementptr inbounds double, ptr %11, i64 1, !llfi_index !1624
  %12 = load ptr, ptr %pfy.addr, align 8, !llfi_index !1625
  call void @doProfiling(i32 32)
  %arrayidx9 = getelementptr inbounds double, ptr %12, i64 1, !llfi_index !1626
  %13 = load ptr, ptr %pfz.addr, align 8, !llfi_index !1627
  call void @doProfiling(i32 32)
  %arrayidx10 = getelementptr inbounds double, ptr %13, i64 1, !llfi_index !1628
  %14 = load ptr, ptr %pfx.addr, align 8, !llfi_index !1629
  call void @doProfiling(i32 32)
  %arrayidx11 = getelementptr inbounds double, ptr %14, i64 2, !llfi_index !1630
  %15 = load ptr, ptr %pfy.addr, align 8, !llfi_index !1631
  call void @doProfiling(i32 32)
  %arrayidx12 = getelementptr inbounds double, ptr %15, i64 2, !llfi_index !1632
  %16 = load ptr, ptr %pfz.addr, align 8, !llfi_index !1633
  call void @doProfiling(i32 32)
  %arrayidx13 = getelementptr inbounds double, ptr %16, i64 2, !llfi_index !1634
  %17 = load ptr, ptr %pfx.addr, align 8, !llfi_index !1635
  call void @doProfiling(i32 32)
  %arrayidx14 = getelementptr inbounds double, ptr %17, i64 3, !llfi_index !1636
  %18 = load ptr, ptr %pfy.addr, align 8, !llfi_index !1637
  call void @doProfiling(i32 32)
  %arrayidx15 = getelementptr inbounds double, ptr %18, i64 3, !llfi_index !1638
  %19 = load ptr, ptr %pfz.addr, align 8, !llfi_index !1639
  call void @doProfiling(i32 32)
  %arrayidx16 = getelementptr inbounds double, ptr %19, i64 3, !llfi_index !1640
  %20 = load ptr, ptr %x.addr, align 8, !llfi_index !1641
  call void @doProfiling(i32 32)
  %arrayidx17 = getelementptr inbounds double, ptr %20, i64 0, !llfi_index !1642
  %21 = load double, ptr %arrayidx17, align 8, !llfi_index !1643
  call void @doProfiling(i32 32)
  %22 = load ptr, ptr %y.addr, align 8, !llfi_index !1644
  call void @doProfiling(i32 32)
  %arrayidx18 = getelementptr inbounds double, ptr %22, i64 0, !llfi_index !1645
  %23 = load double, ptr %arrayidx18, align 8, !llfi_index !1646
  call void @doProfiling(i32 32)
  %24 = load ptr, ptr %z.addr, align 8, !llfi_index !1647
  call void @doProfiling(i32 32)
  %arrayidx19 = getelementptr inbounds double, ptr %24, i64 0, !llfi_index !1648
  %25 = load double, ptr %arrayidx19, align 8, !llfi_index !1649
  call void @doProfiling(i32 32)
  %26 = load ptr, ptr %x.addr, align 8, !llfi_index !1650
  call void @doProfiling(i32 32)
  %arrayidx20 = getelementptr inbounds double, ptr %26, i64 1, !llfi_index !1651
  %27 = load double, ptr %arrayidx20, align 8, !llfi_index !1652
  call void @doProfiling(i32 32)
  %28 = load ptr, ptr %y.addr, align 8, !llfi_index !1653
  call void @doProfiling(i32 32)
  %arrayidx21 = getelementptr inbounds double, ptr %28, i64 1, !llfi_index !1654
  %29 = load double, ptr %arrayidx21, align 8, !llfi_index !1655
  call void @doProfiling(i32 32)
  %30 = load ptr, ptr %z.addr, align 8, !llfi_index !1656
  call void @doProfiling(i32 32)
  %arrayidx22 = getelementptr inbounds double, ptr %30, i64 1, !llfi_index !1657
  %31 = load double, ptr %arrayidx22, align 8, !llfi_index !1658
  call void @doProfiling(i32 32)
  %32 = load ptr, ptr %x.addr, align 8, !llfi_index !1659
  call void @doProfiling(i32 32)
  %arrayidx23 = getelementptr inbounds double, ptr %32, i64 2, !llfi_index !1660
  %33 = load double, ptr %arrayidx23, align 8, !llfi_index !1661
  call void @doProfiling(i32 32)
  %34 = load ptr, ptr %y.addr, align 8, !llfi_index !1662
  call void @doProfiling(i32 32)
  %arrayidx24 = getelementptr inbounds double, ptr %34, i64 2, !llfi_index !1663
  %35 = load double, ptr %arrayidx24, align 8, !llfi_index !1664
  call void @doProfiling(i32 32)
  %36 = load ptr, ptr %z.addr, align 8, !llfi_index !1665
  call void @doProfiling(i32 32)
  %arrayidx25 = getelementptr inbounds double, ptr %36, i64 2, !llfi_index !1666
  %37 = load double, ptr %arrayidx25, align 8, !llfi_index !1667
  call void @doProfiling(i32 32)
  %38 = load ptr, ptr %x.addr, align 8, !llfi_index !1668
  call void @doProfiling(i32 32)
  %arrayidx26 = getelementptr inbounds double, ptr %38, i64 3, !llfi_index !1669
  %39 = load double, ptr %arrayidx26, align 8, !llfi_index !1670
  call void @doProfiling(i32 32)
  %40 = load ptr, ptr %y.addr, align 8, !llfi_index !1671
  call void @doProfiling(i32 32)
  %arrayidx27 = getelementptr inbounds double, ptr %40, i64 3, !llfi_index !1672
  %41 = load double, ptr %arrayidx27, align 8, !llfi_index !1673
  call void @doProfiling(i32 32)
  %42 = load ptr, ptr %z.addr, align 8, !llfi_index !1674
  call void @doProfiling(i32 32)
  %arrayidx28 = getelementptr inbounds double, ptr %42, i64 3, !llfi_index !1675
  %43 = load double, ptr %arrayidx28, align 8, !llfi_index !1676
  call void @doProfiling(i32 32)
  call void @_Z17SumElemFaceNormalPdS_S_S_S_S_S_S_S_S_S_S_dddddddddddd(ptr noundef %arrayidx5, ptr noundef %arrayidx6, ptr noundef %arrayidx7, ptr noundef %arrayidx8, ptr noundef %arrayidx9, ptr noundef %arrayidx10, ptr noundef %arrayidx11, ptr noundef %arrayidx12, ptr noundef %arrayidx13, ptr noundef %arrayidx14, ptr noundef %arrayidx15, ptr noundef %arrayidx16, double noundef %21, double noundef %23, double noundef %25, double noundef %27, double noundef %29, double noundef %31, double noundef %33, double noundef %35, double noundef %37, double noundef %39, double noundef %41, double noundef %43), !llfi_index !1677
  %44 = load ptr, ptr %pfx.addr, align 8, !llfi_index !1678
  call void @doProfiling(i32 32)
  %arrayidx29 = getelementptr inbounds double, ptr %44, i64 0, !llfi_index !1679
  %45 = load ptr, ptr %pfy.addr, align 8, !llfi_index !1680
  call void @doProfiling(i32 32)
  %arrayidx30 = getelementptr inbounds double, ptr %45, i64 0, !llfi_index !1681
  %46 = load ptr, ptr %pfz.addr, align 8, !llfi_index !1682
  call void @doProfiling(i32 32)
  %arrayidx31 = getelementptr inbounds double, ptr %46, i64 0, !llfi_index !1683
  %47 = load ptr, ptr %pfx.addr, align 8, !llfi_index !1684
  call void @doProfiling(i32 32)
  %arrayidx32 = getelementptr inbounds double, ptr %47, i64 4, !llfi_index !1685
  %48 = load ptr, ptr %pfy.addr, align 8, !llfi_index !1686
  call void @doProfiling(i32 32)
  %arrayidx33 = getelementptr inbounds double, ptr %48, i64 4, !llfi_index !1687
  %49 = load ptr, ptr %pfz.addr, align 8, !llfi_index !1688
  call void @doProfiling(i32 32)
  %arrayidx34 = getelementptr inbounds double, ptr %49, i64 4, !llfi_index !1689
  %50 = load ptr, ptr %pfx.addr, align 8, !llfi_index !1690
  call void @doProfiling(i32 32)
  %arrayidx35 = getelementptr inbounds double, ptr %50, i64 5, !llfi_index !1691
  %51 = load ptr, ptr %pfy.addr, align 8, !llfi_index !1692
  call void @doProfiling(i32 32)
  %arrayidx36 = getelementptr inbounds double, ptr %51, i64 5, !llfi_index !1693
  %52 = load ptr, ptr %pfz.addr, align 8, !llfi_index !1694
  call void @doProfiling(i32 32)
  %arrayidx37 = getelementptr inbounds double, ptr %52, i64 5, !llfi_index !1695
  %53 = load ptr, ptr %pfx.addr, align 8, !llfi_index !1696
  call void @doProfiling(i32 32)
  %arrayidx38 = getelementptr inbounds double, ptr %53, i64 1, !llfi_index !1697
  %54 = load ptr, ptr %pfy.addr, align 8, !llfi_index !1698
  call void @doProfiling(i32 32)
  %arrayidx39 = getelementptr inbounds double, ptr %54, i64 1, !llfi_index !1699
  %55 = load ptr, ptr %pfz.addr, align 8, !llfi_index !1700
  call void @doProfiling(i32 32)
  %arrayidx40 = getelementptr inbounds double, ptr %55, i64 1, !llfi_index !1701
  %56 = load ptr, ptr %x.addr, align 8, !llfi_index !1702
  call void @doProfiling(i32 32)
  %arrayidx41 = getelementptr inbounds double, ptr %56, i64 0, !llfi_index !1703
  %57 = load double, ptr %arrayidx41, align 8, !llfi_index !1704
  call void @doProfiling(i32 32)
  %58 = load ptr, ptr %y.addr, align 8, !llfi_index !1705
  call void @doProfiling(i32 32)
  %arrayidx42 = getelementptr inbounds double, ptr %58, i64 0, !llfi_index !1706
  %59 = load double, ptr %arrayidx42, align 8, !llfi_index !1707
  call void @doProfiling(i32 32)
  %60 = load ptr, ptr %z.addr, align 8, !llfi_index !1708
  call void @doProfiling(i32 32)
  %arrayidx43 = getelementptr inbounds double, ptr %60, i64 0, !llfi_index !1709
  %61 = load double, ptr %arrayidx43, align 8, !llfi_index !1710
  call void @doProfiling(i32 32)
  %62 = load ptr, ptr %x.addr, align 8, !llfi_index !1711
  call void @doProfiling(i32 32)
  %arrayidx44 = getelementptr inbounds double, ptr %62, i64 4, !llfi_index !1712
  %63 = load double, ptr %arrayidx44, align 8, !llfi_index !1713
  call void @doProfiling(i32 32)
  %64 = load ptr, ptr %y.addr, align 8, !llfi_index !1714
  call void @doProfiling(i32 32)
  %arrayidx45 = getelementptr inbounds double, ptr %64, i64 4, !llfi_index !1715
  %65 = load double, ptr %arrayidx45, align 8, !llfi_index !1716
  call void @doProfiling(i32 32)
  %66 = load ptr, ptr %z.addr, align 8, !llfi_index !1717
  call void @doProfiling(i32 32)
  %arrayidx46 = getelementptr inbounds double, ptr %66, i64 4, !llfi_index !1718
  %67 = load double, ptr %arrayidx46, align 8, !llfi_index !1719
  call void @doProfiling(i32 32)
  %68 = load ptr, ptr %x.addr, align 8, !llfi_index !1720
  call void @doProfiling(i32 32)
  %arrayidx47 = getelementptr inbounds double, ptr %68, i64 5, !llfi_index !1721
  %69 = load double, ptr %arrayidx47, align 8, !llfi_index !1722
  call void @doProfiling(i32 32)
  %70 = load ptr, ptr %y.addr, align 8, !llfi_index !1723
  call void @doProfiling(i32 32)
  %arrayidx48 = getelementptr inbounds double, ptr %70, i64 5, !llfi_index !1724
  %71 = load double, ptr %arrayidx48, align 8, !llfi_index !1725
  call void @doProfiling(i32 32)
  %72 = load ptr, ptr %z.addr, align 8, !llfi_index !1726
  call void @doProfiling(i32 32)
  %arrayidx49 = getelementptr inbounds double, ptr %72, i64 5, !llfi_index !1727
  %73 = load double, ptr %arrayidx49, align 8, !llfi_index !1728
  call void @doProfiling(i32 32)
  %74 = load ptr, ptr %x.addr, align 8, !llfi_index !1729
  call void @doProfiling(i32 32)
  %arrayidx50 = getelementptr inbounds double, ptr %74, i64 1, !llfi_index !1730
  %75 = load double, ptr %arrayidx50, align 8, !llfi_index !1731
  call void @doProfiling(i32 32)
  %76 = load ptr, ptr %y.addr, align 8, !llfi_index !1732
  call void @doProfiling(i32 32)
  %arrayidx51 = getelementptr inbounds double, ptr %76, i64 1, !llfi_index !1733
  %77 = load double, ptr %arrayidx51, align 8, !llfi_index !1734
  call void @doProfiling(i32 32)
  %78 = load ptr, ptr %z.addr, align 8, !llfi_index !1735
  call void @doProfiling(i32 32)
  %arrayidx52 = getelementptr inbounds double, ptr %78, i64 1, !llfi_index !1736
  %79 = load double, ptr %arrayidx52, align 8, !llfi_index !1737
  call void @doProfiling(i32 32)
  call void @_Z17SumElemFaceNormalPdS_S_S_S_S_S_S_S_S_S_S_dddddddddddd(ptr noundef %arrayidx29, ptr noundef %arrayidx30, ptr noundef %arrayidx31, ptr noundef %arrayidx32, ptr noundef %arrayidx33, ptr noundef %arrayidx34, ptr noundef %arrayidx35, ptr noundef %arrayidx36, ptr noundef %arrayidx37, ptr noundef %arrayidx38, ptr noundef %arrayidx39, ptr noundef %arrayidx40, double noundef %57, double noundef %59, double noundef %61, double noundef %63, double noundef %65, double noundef %67, double noundef %69, double noundef %71, double noundef %73, double noundef %75, double noundef %77, double noundef %79), !llfi_index !1738
  %80 = load ptr, ptr %pfx.addr, align 8, !llfi_index !1739
  call void @doProfiling(i32 32)
  %arrayidx53 = getelementptr inbounds double, ptr %80, i64 1, !llfi_index !1740
  %81 = load ptr, ptr %pfy.addr, align 8, !llfi_index !1741
  call void @doProfiling(i32 32)
  %arrayidx54 = getelementptr inbounds double, ptr %81, i64 1, !llfi_index !1742
  %82 = load ptr, ptr %pfz.addr, align 8, !llfi_index !1743
  call void @doProfiling(i32 32)
  %arrayidx55 = getelementptr inbounds double, ptr %82, i64 1, !llfi_index !1744
  %83 = load ptr, ptr %pfx.addr, align 8, !llfi_index !1745
  call void @doProfiling(i32 32)
  %arrayidx56 = getelementptr inbounds double, ptr %83, i64 5, !llfi_index !1746
  %84 = load ptr, ptr %pfy.addr, align 8, !llfi_index !1747
  call void @doProfiling(i32 32)
  %arrayidx57 = getelementptr inbounds double, ptr %84, i64 5, !llfi_index !1748
  %85 = load ptr, ptr %pfz.addr, align 8, !llfi_index !1749
  call void @doProfiling(i32 32)
  %arrayidx58 = getelementptr inbounds double, ptr %85, i64 5, !llfi_index !1750
  %86 = load ptr, ptr %pfx.addr, align 8, !llfi_index !1751
  call void @doProfiling(i32 32)
  %arrayidx59 = getelementptr inbounds double, ptr %86, i64 6, !llfi_index !1752
  %87 = load ptr, ptr %pfy.addr, align 8, !llfi_index !1753
  call void @doProfiling(i32 32)
  %arrayidx60 = getelementptr inbounds double, ptr %87, i64 6, !llfi_index !1754
  %88 = load ptr, ptr %pfz.addr, align 8, !llfi_index !1755
  call void @doProfiling(i32 32)
  %arrayidx61 = getelementptr inbounds double, ptr %88, i64 6, !llfi_index !1756
  %89 = load ptr, ptr %pfx.addr, align 8, !llfi_index !1757
  call void @doProfiling(i32 32)
  %arrayidx62 = getelementptr inbounds double, ptr %89, i64 2, !llfi_index !1758
  %90 = load ptr, ptr %pfy.addr, align 8, !llfi_index !1759
  call void @doProfiling(i32 32)
  %arrayidx63 = getelementptr inbounds double, ptr %90, i64 2, !llfi_index !1760
  %91 = load ptr, ptr %pfz.addr, align 8, !llfi_index !1761
  call void @doProfiling(i32 32)
  %arrayidx64 = getelementptr inbounds double, ptr %91, i64 2, !llfi_index !1762
  %92 = load ptr, ptr %x.addr, align 8, !llfi_index !1763
  call void @doProfiling(i32 32)
  %arrayidx65 = getelementptr inbounds double, ptr %92, i64 1, !llfi_index !1764
  %93 = load double, ptr %arrayidx65, align 8, !llfi_index !1765
  call void @doProfiling(i32 32)
  %94 = load ptr, ptr %y.addr, align 8, !llfi_index !1766
  call void @doProfiling(i32 32)
  %arrayidx66 = getelementptr inbounds double, ptr %94, i64 1, !llfi_index !1767
  %95 = load double, ptr %arrayidx66, align 8, !llfi_index !1768
  call void @doProfiling(i32 32)
  %96 = load ptr, ptr %z.addr, align 8, !llfi_index !1769
  call void @doProfiling(i32 32)
  %arrayidx67 = getelementptr inbounds double, ptr %96, i64 1, !llfi_index !1770
  %97 = load double, ptr %arrayidx67, align 8, !llfi_index !1771
  call void @doProfiling(i32 32)
  %98 = load ptr, ptr %x.addr, align 8, !llfi_index !1772
  call void @doProfiling(i32 32)
  %arrayidx68 = getelementptr inbounds double, ptr %98, i64 5, !llfi_index !1773
  %99 = load double, ptr %arrayidx68, align 8, !llfi_index !1774
  call void @doProfiling(i32 32)
  %100 = load ptr, ptr %y.addr, align 8, !llfi_index !1775
  call void @doProfiling(i32 32)
  %arrayidx69 = getelementptr inbounds double, ptr %100, i64 5, !llfi_index !1776
  %101 = load double, ptr %arrayidx69, align 8, !llfi_index !1777
  call void @doProfiling(i32 32)
  %102 = load ptr, ptr %z.addr, align 8, !llfi_index !1778
  call void @doProfiling(i32 32)
  %arrayidx70 = getelementptr inbounds double, ptr %102, i64 5, !llfi_index !1779
  %103 = load double, ptr %arrayidx70, align 8, !llfi_index !1780
  call void @doProfiling(i32 32)
  %104 = load ptr, ptr %x.addr, align 8, !llfi_index !1781
  call void @doProfiling(i32 32)
  %arrayidx71 = getelementptr inbounds double, ptr %104, i64 6, !llfi_index !1782
  %105 = load double, ptr %arrayidx71, align 8, !llfi_index !1783
  call void @doProfiling(i32 32)
  %106 = load ptr, ptr %y.addr, align 8, !llfi_index !1784
  call void @doProfiling(i32 32)
  %arrayidx72 = getelementptr inbounds double, ptr %106, i64 6, !llfi_index !1785
  %107 = load double, ptr %arrayidx72, align 8, !llfi_index !1786
  call void @doProfiling(i32 32)
  %108 = load ptr, ptr %z.addr, align 8, !llfi_index !1787
  call void @doProfiling(i32 32)
  %arrayidx73 = getelementptr inbounds double, ptr %108, i64 6, !llfi_index !1788
  %109 = load double, ptr %arrayidx73, align 8, !llfi_index !1789
  call void @doProfiling(i32 32)
  %110 = load ptr, ptr %x.addr, align 8, !llfi_index !1790
  call void @doProfiling(i32 32)
  %arrayidx74 = getelementptr inbounds double, ptr %110, i64 2, !llfi_index !1791
  %111 = load double, ptr %arrayidx74, align 8, !llfi_index !1792
  call void @doProfiling(i32 32)
  %112 = load ptr, ptr %y.addr, align 8, !llfi_index !1793
  call void @doProfiling(i32 32)
  %arrayidx75 = getelementptr inbounds double, ptr %112, i64 2, !llfi_index !1794
  %113 = load double, ptr %arrayidx75, align 8, !llfi_index !1795
  call void @doProfiling(i32 32)
  %114 = load ptr, ptr %z.addr, align 8, !llfi_index !1796
  call void @doProfiling(i32 32)
  %arrayidx76 = getelementptr inbounds double, ptr %114, i64 2, !llfi_index !1797
  %115 = load double, ptr %arrayidx76, align 8, !llfi_index !1798
  call void @doProfiling(i32 32)
  call void @_Z17SumElemFaceNormalPdS_S_S_S_S_S_S_S_S_S_S_dddddddddddd(ptr noundef %arrayidx53, ptr noundef %arrayidx54, ptr noundef %arrayidx55, ptr noundef %arrayidx56, ptr noundef %arrayidx57, ptr noundef %arrayidx58, ptr noundef %arrayidx59, ptr noundef %arrayidx60, ptr noundef %arrayidx61, ptr noundef %arrayidx62, ptr noundef %arrayidx63, ptr noundef %arrayidx64, double noundef %93, double noundef %95, double noundef %97, double noundef %99, double noundef %101, double noundef %103, double noundef %105, double noundef %107, double noundef %109, double noundef %111, double noundef %113, double noundef %115), !llfi_index !1799
  %116 = load ptr, ptr %pfx.addr, align 8, !llfi_index !1800
  call void @doProfiling(i32 32)
  %arrayidx77 = getelementptr inbounds double, ptr %116, i64 2, !llfi_index !1801
  %117 = load ptr, ptr %pfy.addr, align 8, !llfi_index !1802
  call void @doProfiling(i32 32)
  %arrayidx78 = getelementptr inbounds double, ptr %117, i64 2, !llfi_index !1803
  %118 = load ptr, ptr %pfz.addr, align 8, !llfi_index !1804
  call void @doProfiling(i32 32)
  %arrayidx79 = getelementptr inbounds double, ptr %118, i64 2, !llfi_index !1805
  %119 = load ptr, ptr %pfx.addr, align 8, !llfi_index !1806
  call void @doProfiling(i32 32)
  %arrayidx80 = getelementptr inbounds double, ptr %119, i64 6, !llfi_index !1807
  %120 = load ptr, ptr %pfy.addr, align 8, !llfi_index !1808
  call void @doProfiling(i32 32)
  %arrayidx81 = getelementptr inbounds double, ptr %120, i64 6, !llfi_index !1809
  %121 = load ptr, ptr %pfz.addr, align 8, !llfi_index !1810
  call void @doProfiling(i32 32)
  %arrayidx82 = getelementptr inbounds double, ptr %121, i64 6, !llfi_index !1811
  %122 = load ptr, ptr %pfx.addr, align 8, !llfi_index !1812
  call void @doProfiling(i32 32)
  %arrayidx83 = getelementptr inbounds double, ptr %122, i64 7, !llfi_index !1813
  %123 = load ptr, ptr %pfy.addr, align 8, !llfi_index !1814
  call void @doProfiling(i32 32)
  %arrayidx84 = getelementptr inbounds double, ptr %123, i64 7, !llfi_index !1815
  %124 = load ptr, ptr %pfz.addr, align 8, !llfi_index !1816
  call void @doProfiling(i32 32)
  %arrayidx85 = getelementptr inbounds double, ptr %124, i64 7, !llfi_index !1817
  %125 = load ptr, ptr %pfx.addr, align 8, !llfi_index !1818
  call void @doProfiling(i32 32)
  %arrayidx86 = getelementptr inbounds double, ptr %125, i64 3, !llfi_index !1819
  %126 = load ptr, ptr %pfy.addr, align 8, !llfi_index !1820
  call void @doProfiling(i32 32)
  %arrayidx87 = getelementptr inbounds double, ptr %126, i64 3, !llfi_index !1821
  %127 = load ptr, ptr %pfz.addr, align 8, !llfi_index !1822
  call void @doProfiling(i32 32)
  %arrayidx88 = getelementptr inbounds double, ptr %127, i64 3, !llfi_index !1823
  %128 = load ptr, ptr %x.addr, align 8, !llfi_index !1824
  call void @doProfiling(i32 32)
  %arrayidx89 = getelementptr inbounds double, ptr %128, i64 2, !llfi_index !1825
  %129 = load double, ptr %arrayidx89, align 8, !llfi_index !1826
  call void @doProfiling(i32 32)
  %130 = load ptr, ptr %y.addr, align 8, !llfi_index !1827
  call void @doProfiling(i32 32)
  %arrayidx90 = getelementptr inbounds double, ptr %130, i64 2, !llfi_index !1828
  %131 = load double, ptr %arrayidx90, align 8, !llfi_index !1829
  call void @doProfiling(i32 32)
  %132 = load ptr, ptr %z.addr, align 8, !llfi_index !1830
  call void @doProfiling(i32 32)
  %arrayidx91 = getelementptr inbounds double, ptr %132, i64 2, !llfi_index !1831
  %133 = load double, ptr %arrayidx91, align 8, !llfi_index !1832
  call void @doProfiling(i32 32)
  %134 = load ptr, ptr %x.addr, align 8, !llfi_index !1833
  call void @doProfiling(i32 32)
  %arrayidx92 = getelementptr inbounds double, ptr %134, i64 6, !llfi_index !1834
  %135 = load double, ptr %arrayidx92, align 8, !llfi_index !1835
  call void @doProfiling(i32 32)
  %136 = load ptr, ptr %y.addr, align 8, !llfi_index !1836
  call void @doProfiling(i32 32)
  %arrayidx93 = getelementptr inbounds double, ptr %136, i64 6, !llfi_index !1837
  %137 = load double, ptr %arrayidx93, align 8, !llfi_index !1838
  call void @doProfiling(i32 32)
  %138 = load ptr, ptr %z.addr, align 8, !llfi_index !1839
  call void @doProfiling(i32 32)
  %arrayidx94 = getelementptr inbounds double, ptr %138, i64 6, !llfi_index !1840
  %139 = load double, ptr %arrayidx94, align 8, !llfi_index !1841
  call void @doProfiling(i32 32)
  %140 = load ptr, ptr %x.addr, align 8, !llfi_index !1842
  call void @doProfiling(i32 32)
  %arrayidx95 = getelementptr inbounds double, ptr %140, i64 7, !llfi_index !1843
  %141 = load double, ptr %arrayidx95, align 8, !llfi_index !1844
  call void @doProfiling(i32 32)
  %142 = load ptr, ptr %y.addr, align 8, !llfi_index !1845
  call void @doProfiling(i32 32)
  %arrayidx96 = getelementptr inbounds double, ptr %142, i64 7, !llfi_index !1846
  %143 = load double, ptr %arrayidx96, align 8, !llfi_index !1847
  call void @doProfiling(i32 32)
  %144 = load ptr, ptr %z.addr, align 8, !llfi_index !1848
  call void @doProfiling(i32 32)
  %arrayidx97 = getelementptr inbounds double, ptr %144, i64 7, !llfi_index !1849
  %145 = load double, ptr %arrayidx97, align 8, !llfi_index !1850
  call void @doProfiling(i32 32)
  %146 = load ptr, ptr %x.addr, align 8, !llfi_index !1851
  call void @doProfiling(i32 32)
  %arrayidx98 = getelementptr inbounds double, ptr %146, i64 3, !llfi_index !1852
  %147 = load double, ptr %arrayidx98, align 8, !llfi_index !1853
  call void @doProfiling(i32 32)
  %148 = load ptr, ptr %y.addr, align 8, !llfi_index !1854
  call void @doProfiling(i32 32)
  %arrayidx99 = getelementptr inbounds double, ptr %148, i64 3, !llfi_index !1855
  %149 = load double, ptr %arrayidx99, align 8, !llfi_index !1856
  call void @doProfiling(i32 32)
  %150 = load ptr, ptr %z.addr, align 8, !llfi_index !1857
  call void @doProfiling(i32 32)
  %arrayidx100 = getelementptr inbounds double, ptr %150, i64 3, !llfi_index !1858
  %151 = load double, ptr %arrayidx100, align 8, !llfi_index !1859
  call void @doProfiling(i32 32)
  call void @_Z17SumElemFaceNormalPdS_S_S_S_S_S_S_S_S_S_S_dddddddddddd(ptr noundef %arrayidx77, ptr noundef %arrayidx78, ptr noundef %arrayidx79, ptr noundef %arrayidx80, ptr noundef %arrayidx81, ptr noundef %arrayidx82, ptr noundef %arrayidx83, ptr noundef %arrayidx84, ptr noundef %arrayidx85, ptr noundef %arrayidx86, ptr noundef %arrayidx87, ptr noundef %arrayidx88, double noundef %129, double noundef %131, double noundef %133, double noundef %135, double noundef %137, double noundef %139, double noundef %141, double noundef %143, double noundef %145, double noundef %147, double noundef %149, double noundef %151), !llfi_index !1860
  %152 = load ptr, ptr %pfx.addr, align 8, !llfi_index !1861
  call void @doProfiling(i32 32)
  %arrayidx101 = getelementptr inbounds double, ptr %152, i64 3, !llfi_index !1862
  %153 = load ptr, ptr %pfy.addr, align 8, !llfi_index !1863
  call void @doProfiling(i32 32)
  %arrayidx102 = getelementptr inbounds double, ptr %153, i64 3, !llfi_index !1864
  %154 = load ptr, ptr %pfz.addr, align 8, !llfi_index !1865
  call void @doProfiling(i32 32)
  %arrayidx103 = getelementptr inbounds double, ptr %154, i64 3, !llfi_index !1866
  %155 = load ptr, ptr %pfx.addr, align 8, !llfi_index !1867
  call void @doProfiling(i32 32)
  %arrayidx104 = getelementptr inbounds double, ptr %155, i64 7, !llfi_index !1868
  %156 = load ptr, ptr %pfy.addr, align 8, !llfi_index !1869
  call void @doProfiling(i32 32)
  %arrayidx105 = getelementptr inbounds double, ptr %156, i64 7, !llfi_index !1870
  %157 = load ptr, ptr %pfz.addr, align 8, !llfi_index !1871
  call void @doProfiling(i32 32)
  %arrayidx106 = getelementptr inbounds double, ptr %157, i64 7, !llfi_index !1872
  %158 = load ptr, ptr %pfx.addr, align 8, !llfi_index !1873
  call void @doProfiling(i32 32)
  %arrayidx107 = getelementptr inbounds double, ptr %158, i64 4, !llfi_index !1874
  %159 = load ptr, ptr %pfy.addr, align 8, !llfi_index !1875
  call void @doProfiling(i32 32)
  %arrayidx108 = getelementptr inbounds double, ptr %159, i64 4, !llfi_index !1876
  %160 = load ptr, ptr %pfz.addr, align 8, !llfi_index !1877
  call void @doProfiling(i32 32)
  %arrayidx109 = getelementptr inbounds double, ptr %160, i64 4, !llfi_index !1878
  %161 = load ptr, ptr %pfx.addr, align 8, !llfi_index !1879
  call void @doProfiling(i32 32)
  %arrayidx110 = getelementptr inbounds double, ptr %161, i64 0, !llfi_index !1880
  %162 = load ptr, ptr %pfy.addr, align 8, !llfi_index !1881
  call void @doProfiling(i32 32)
  %arrayidx111 = getelementptr inbounds double, ptr %162, i64 0, !llfi_index !1882
  %163 = load ptr, ptr %pfz.addr, align 8, !llfi_index !1883
  call void @doProfiling(i32 32)
  %arrayidx112 = getelementptr inbounds double, ptr %163, i64 0, !llfi_index !1884
  %164 = load ptr, ptr %x.addr, align 8, !llfi_index !1885
  call void @doProfiling(i32 32)
  %arrayidx113 = getelementptr inbounds double, ptr %164, i64 3, !llfi_index !1886
  %165 = load double, ptr %arrayidx113, align 8, !llfi_index !1887
  call void @doProfiling(i32 32)
  %166 = load ptr, ptr %y.addr, align 8, !llfi_index !1888
  call void @doProfiling(i32 32)
  %arrayidx114 = getelementptr inbounds double, ptr %166, i64 3, !llfi_index !1889
  %167 = load double, ptr %arrayidx114, align 8, !llfi_index !1890
  call void @doProfiling(i32 32)
  %168 = load ptr, ptr %z.addr, align 8, !llfi_index !1891
  call void @doProfiling(i32 32)
  %arrayidx115 = getelementptr inbounds double, ptr %168, i64 3, !llfi_index !1892
  %169 = load double, ptr %arrayidx115, align 8, !llfi_index !1893
  call void @doProfiling(i32 32)
  %170 = load ptr, ptr %x.addr, align 8, !llfi_index !1894
  call void @doProfiling(i32 32)
  %arrayidx116 = getelementptr inbounds double, ptr %170, i64 7, !llfi_index !1895
  %171 = load double, ptr %arrayidx116, align 8, !llfi_index !1896
  call void @doProfiling(i32 32)
  %172 = load ptr, ptr %y.addr, align 8, !llfi_index !1897
  call void @doProfiling(i32 32)
  %arrayidx117 = getelementptr inbounds double, ptr %172, i64 7, !llfi_index !1898
  %173 = load double, ptr %arrayidx117, align 8, !llfi_index !1899
  call void @doProfiling(i32 32)
  %174 = load ptr, ptr %z.addr, align 8, !llfi_index !1900
  call void @doProfiling(i32 32)
  %arrayidx118 = getelementptr inbounds double, ptr %174, i64 7, !llfi_index !1901
  %175 = load double, ptr %arrayidx118, align 8, !llfi_index !1902
  call void @doProfiling(i32 32)
  %176 = load ptr, ptr %x.addr, align 8, !llfi_index !1903
  call void @doProfiling(i32 32)
  %arrayidx119 = getelementptr inbounds double, ptr %176, i64 4, !llfi_index !1904
  %177 = load double, ptr %arrayidx119, align 8, !llfi_index !1905
  call void @doProfiling(i32 32)
  %178 = load ptr, ptr %y.addr, align 8, !llfi_index !1906
  call void @doProfiling(i32 32)
  %arrayidx120 = getelementptr inbounds double, ptr %178, i64 4, !llfi_index !1907
  %179 = load double, ptr %arrayidx120, align 8, !llfi_index !1908
  call void @doProfiling(i32 32)
  %180 = load ptr, ptr %z.addr, align 8, !llfi_index !1909
  call void @doProfiling(i32 32)
  %arrayidx121 = getelementptr inbounds double, ptr %180, i64 4, !llfi_index !1910
  %181 = load double, ptr %arrayidx121, align 8, !llfi_index !1911
  call void @doProfiling(i32 32)
  %182 = load ptr, ptr %x.addr, align 8, !llfi_index !1912
  call void @doProfiling(i32 32)
  %arrayidx122 = getelementptr inbounds double, ptr %182, i64 0, !llfi_index !1913
  %183 = load double, ptr %arrayidx122, align 8, !llfi_index !1914
  call void @doProfiling(i32 32)
  %184 = load ptr, ptr %y.addr, align 8, !llfi_index !1915
  call void @doProfiling(i32 32)
  %arrayidx123 = getelementptr inbounds double, ptr %184, i64 0, !llfi_index !1916
  %185 = load double, ptr %arrayidx123, align 8, !llfi_index !1917
  call void @doProfiling(i32 32)
  %186 = load ptr, ptr %z.addr, align 8, !llfi_index !1918
  call void @doProfiling(i32 32)
  %arrayidx124 = getelementptr inbounds double, ptr %186, i64 0, !llfi_index !1919
  %187 = load double, ptr %arrayidx124, align 8, !llfi_index !1920
  call void @doProfiling(i32 32)
  call void @_Z17SumElemFaceNormalPdS_S_S_S_S_S_S_S_S_S_S_dddddddddddd(ptr noundef %arrayidx101, ptr noundef %arrayidx102, ptr noundef %arrayidx103, ptr noundef %arrayidx104, ptr noundef %arrayidx105, ptr noundef %arrayidx106, ptr noundef %arrayidx107, ptr noundef %arrayidx108, ptr noundef %arrayidx109, ptr noundef %arrayidx110, ptr noundef %arrayidx111, ptr noundef %arrayidx112, double noundef %165, double noundef %167, double noundef %169, double noundef %171, double noundef %173, double noundef %175, double noundef %177, double noundef %179, double noundef %181, double noundef %183, double noundef %185, double noundef %187), !llfi_index !1921
  %188 = load ptr, ptr %pfx.addr, align 8, !llfi_index !1922
  call void @doProfiling(i32 32)
  %arrayidx125 = getelementptr inbounds double, ptr %188, i64 4, !llfi_index !1923
  %189 = load ptr, ptr %pfy.addr, align 8, !llfi_index !1924
  call void @doProfiling(i32 32)
  %arrayidx126 = getelementptr inbounds double, ptr %189, i64 4, !llfi_index !1925
  %190 = load ptr, ptr %pfz.addr, align 8, !llfi_index !1926
  call void @doProfiling(i32 32)
  %arrayidx127 = getelementptr inbounds double, ptr %190, i64 4, !llfi_index !1927
  %191 = load ptr, ptr %pfx.addr, align 8, !llfi_index !1928
  call void @doProfiling(i32 32)
  %arrayidx128 = getelementptr inbounds double, ptr %191, i64 7, !llfi_index !1929
  %192 = load ptr, ptr %pfy.addr, align 8, !llfi_index !1930
  call void @doProfiling(i32 32)
  %arrayidx129 = getelementptr inbounds double, ptr %192, i64 7, !llfi_index !1931
  %193 = load ptr, ptr %pfz.addr, align 8, !llfi_index !1932
  call void @doProfiling(i32 32)
  %arrayidx130 = getelementptr inbounds double, ptr %193, i64 7, !llfi_index !1933
  %194 = load ptr, ptr %pfx.addr, align 8, !llfi_index !1934
  call void @doProfiling(i32 32)
  %arrayidx131 = getelementptr inbounds double, ptr %194, i64 6, !llfi_index !1935
  %195 = load ptr, ptr %pfy.addr, align 8, !llfi_index !1936
  call void @doProfiling(i32 32)
  %arrayidx132 = getelementptr inbounds double, ptr %195, i64 6, !llfi_index !1937
  %196 = load ptr, ptr %pfz.addr, align 8, !llfi_index !1938
  call void @doProfiling(i32 32)
  %arrayidx133 = getelementptr inbounds double, ptr %196, i64 6, !llfi_index !1939
  %197 = load ptr, ptr %pfx.addr, align 8, !llfi_index !1940
  call void @doProfiling(i32 32)
  %arrayidx134 = getelementptr inbounds double, ptr %197, i64 5, !llfi_index !1941
  %198 = load ptr, ptr %pfy.addr, align 8, !llfi_index !1942
  call void @doProfiling(i32 32)
  %arrayidx135 = getelementptr inbounds double, ptr %198, i64 5, !llfi_index !1943
  %199 = load ptr, ptr %pfz.addr, align 8, !llfi_index !1944
  call void @doProfiling(i32 32)
  %arrayidx136 = getelementptr inbounds double, ptr %199, i64 5, !llfi_index !1945
  %200 = load ptr, ptr %x.addr, align 8, !llfi_index !1946
  call void @doProfiling(i32 32)
  %arrayidx137 = getelementptr inbounds double, ptr %200, i64 4, !llfi_index !1947
  %201 = load double, ptr %arrayidx137, align 8, !llfi_index !1948
  call void @doProfiling(i32 32)
  %202 = load ptr, ptr %y.addr, align 8, !llfi_index !1949
  call void @doProfiling(i32 32)
  %arrayidx138 = getelementptr inbounds double, ptr %202, i64 4, !llfi_index !1950
  %203 = load double, ptr %arrayidx138, align 8, !llfi_index !1951
  call void @doProfiling(i32 32)
  %204 = load ptr, ptr %z.addr, align 8, !llfi_index !1952
  call void @doProfiling(i32 32)
  %arrayidx139 = getelementptr inbounds double, ptr %204, i64 4, !llfi_index !1953
  %205 = load double, ptr %arrayidx139, align 8, !llfi_index !1954
  call void @doProfiling(i32 32)
  %206 = load ptr, ptr %x.addr, align 8, !llfi_index !1955
  call void @doProfiling(i32 32)
  %arrayidx140 = getelementptr inbounds double, ptr %206, i64 7, !llfi_index !1956
  %207 = load double, ptr %arrayidx140, align 8, !llfi_index !1957
  call void @doProfiling(i32 32)
  %208 = load ptr, ptr %y.addr, align 8, !llfi_index !1958
  call void @doProfiling(i32 32)
  %arrayidx141 = getelementptr inbounds double, ptr %208, i64 7, !llfi_index !1959
  %209 = load double, ptr %arrayidx141, align 8, !llfi_index !1960
  call void @doProfiling(i32 32)
  %210 = load ptr, ptr %z.addr, align 8, !llfi_index !1961
  call void @doProfiling(i32 32)
  %arrayidx142 = getelementptr inbounds double, ptr %210, i64 7, !llfi_index !1962
  %211 = load double, ptr %arrayidx142, align 8, !llfi_index !1963
  call void @doProfiling(i32 32)
  %212 = load ptr, ptr %x.addr, align 8, !llfi_index !1964
  call void @doProfiling(i32 32)
  %arrayidx143 = getelementptr inbounds double, ptr %212, i64 6, !llfi_index !1965
  %213 = load double, ptr %arrayidx143, align 8, !llfi_index !1966
  call void @doProfiling(i32 32)
  %214 = load ptr, ptr %y.addr, align 8, !llfi_index !1967
  call void @doProfiling(i32 32)
  %arrayidx144 = getelementptr inbounds double, ptr %214, i64 6, !llfi_index !1968
  %215 = load double, ptr %arrayidx144, align 8, !llfi_index !1969
  call void @doProfiling(i32 32)
  %216 = load ptr, ptr %z.addr, align 8, !llfi_index !1970
  call void @doProfiling(i32 32)
  %arrayidx145 = getelementptr inbounds double, ptr %216, i64 6, !llfi_index !1971
  %217 = load double, ptr %arrayidx145, align 8, !llfi_index !1972
  call void @doProfiling(i32 32)
  %218 = load ptr, ptr %x.addr, align 8, !llfi_index !1973
  call void @doProfiling(i32 32)
  %arrayidx146 = getelementptr inbounds double, ptr %218, i64 5, !llfi_index !1974
  %219 = load double, ptr %arrayidx146, align 8, !llfi_index !1975
  call void @doProfiling(i32 32)
  %220 = load ptr, ptr %y.addr, align 8, !llfi_index !1976
  call void @doProfiling(i32 32)
  %arrayidx147 = getelementptr inbounds double, ptr %220, i64 5, !llfi_index !1977
  %221 = load double, ptr %arrayidx147, align 8, !llfi_index !1978
  call void @doProfiling(i32 32)
  %222 = load ptr, ptr %z.addr, align 8, !llfi_index !1979
  call void @doProfiling(i32 32)
  %arrayidx148 = getelementptr inbounds double, ptr %222, i64 5, !llfi_index !1980
  %223 = load double, ptr %arrayidx148, align 8, !llfi_index !1981
  call void @doProfiling(i32 32)
  call void @_Z17SumElemFaceNormalPdS_S_S_S_S_S_S_S_S_S_S_dddddddddddd(ptr noundef %arrayidx125, ptr noundef %arrayidx126, ptr noundef %arrayidx127, ptr noundef %arrayidx128, ptr noundef %arrayidx129, ptr noundef %arrayidx130, ptr noundef %arrayidx131, ptr noundef %arrayidx132, ptr noundef %arrayidx133, ptr noundef %arrayidx134, ptr noundef %arrayidx135, ptr noundef %arrayidx136, double noundef %201, double noundef %203, double noundef %205, double noundef %207, double noundef %209, double noundef %211, double noundef %213, double noundef %215, double noundef %217, double noundef %219, double noundef %221, double noundef %223), !llfi_index !1982
  ret void, !llfi_index !1983
}

; Function Attrs: mustprogress noinline nounwind optnone uwtable
define dso_local void @_Z27SumElemStressesToNodeForcesPA8_KddddPdS2_S2_(ptr noundef %B, double noundef %stress_xx, double noundef %stress_yy, double noundef %stress_zz, ptr noundef %fx, ptr noundef %fy, ptr noundef %fz) #3 {
entry:
  %B.addr = alloca ptr, align 8, !llfi_index !1984
  call void @doProfiling(i32 31)
  %stress_xx.addr = alloca double, align 8, !llfi_index !1985
  call void @doProfiling(i32 31)
  %stress_yy.addr = alloca double, align 8, !llfi_index !1986
  call void @doProfiling(i32 31)
  %stress_zz.addr = alloca double, align 8, !llfi_index !1987
  call void @doProfiling(i32 31)
  %fx.addr = alloca ptr, align 8, !llfi_index !1988
  call void @doProfiling(i32 31)
  %fy.addr = alloca ptr, align 8, !llfi_index !1989
  call void @doProfiling(i32 31)
  %fz.addr = alloca ptr, align 8, !llfi_index !1990
  call void @doProfiling(i32 31)
  %pfx0 = alloca double, align 8, !llfi_index !1991
  call void @doProfiling(i32 31)
  %pfx1 = alloca double, align 8, !llfi_index !1992
  call void @doProfiling(i32 31)
  %pfx2 = alloca double, align 8, !llfi_index !1993
  call void @doProfiling(i32 31)
  %pfx3 = alloca double, align 8, !llfi_index !1994
  call void @doProfiling(i32 31)
  %pfx4 = alloca double, align 8, !llfi_index !1995
  call void @doProfiling(i32 31)
  %pfx5 = alloca double, align 8, !llfi_index !1996
  call void @doProfiling(i32 31)
  %pfx6 = alloca double, align 8, !llfi_index !1997
  call void @doProfiling(i32 31)
  %pfx7 = alloca double, align 8, !llfi_index !1998
  call void @doProfiling(i32 31)
  %pfy0 = alloca double, align 8, !llfi_index !1999
  call void @doProfiling(i32 31)
  %pfy1 = alloca double, align 8, !llfi_index !2000
  call void @doProfiling(i32 31)
  %pfy2 = alloca double, align 8, !llfi_index !2001
  call void @doProfiling(i32 31)
  %pfy3 = alloca double, align 8, !llfi_index !2002
  call void @doProfiling(i32 31)
  %pfy4 = alloca double, align 8, !llfi_index !2003
  call void @doProfiling(i32 31)
  %pfy5 = alloca double, align 8, !llfi_index !2004
  call void @doProfiling(i32 31)
  %pfy6 = alloca double, align 8, !llfi_index !2005
  call void @doProfiling(i32 31)
  %pfy7 = alloca double, align 8, !llfi_index !2006
  call void @doProfiling(i32 31)
  %pfz0 = alloca double, align 8, !llfi_index !2007
  call void @doProfiling(i32 31)
  %pfz1 = alloca double, align 8, !llfi_index !2008
  call void @doProfiling(i32 31)
  %pfz2 = alloca double, align 8, !llfi_index !2009
  call void @doProfiling(i32 31)
  %pfz3 = alloca double, align 8, !llfi_index !2010
  call void @doProfiling(i32 31)
  %pfz4 = alloca double, align 8, !llfi_index !2011
  call void @doProfiling(i32 31)
  %pfz5 = alloca double, align 8, !llfi_index !2012
  call void @doProfiling(i32 31)
  %pfz6 = alloca double, align 8, !llfi_index !2013
  call void @doProfiling(i32 31)
  %pfz7 = alloca double, align 8, !llfi_index !2014
  call void @doProfiling(i32 31)
  store ptr %B, ptr %B.addr, align 8, !llfi_index !2015
  store double %stress_xx, ptr %stress_xx.addr, align 8, !llfi_index !2016
  store double %stress_yy, ptr %stress_yy.addr, align 8, !llfi_index !2017
  store double %stress_zz, ptr %stress_zz.addr, align 8, !llfi_index !2018
  store ptr %fx, ptr %fx.addr, align 8, !llfi_index !2019
  store ptr %fy, ptr %fy.addr, align 8, !llfi_index !2020
  store ptr %fz, ptr %fz.addr, align 8, !llfi_index !2021
  %0 = load ptr, ptr %B.addr, align 8, !llfi_index !2022
  call void @doProfiling(i32 32)
  %arrayidx = getelementptr inbounds [8 x double], ptr %0, i64 0, !llfi_index !2023
  %arrayidx1 = getelementptr inbounds [8 x double], ptr %arrayidx, i64 0, i64 0, !llfi_index !2024
  %1 = load double, ptr %arrayidx1, align 8, !llfi_index !2025
  call void @doProfiling(i32 32)
  store double %1, ptr %pfx0, align 8, !llfi_index !2026
  %2 = load ptr, ptr %B.addr, align 8, !llfi_index !2027
  call void @doProfiling(i32 32)
  %arrayidx2 = getelementptr inbounds [8 x double], ptr %2, i64 0, !llfi_index !2028
  %arrayidx3 = getelementptr inbounds [8 x double], ptr %arrayidx2, i64 0, i64 1, !llfi_index !2029
  %3 = load double, ptr %arrayidx3, align 8, !llfi_index !2030
  call void @doProfiling(i32 32)
  store double %3, ptr %pfx1, align 8, !llfi_index !2031
  %4 = load ptr, ptr %B.addr, align 8, !llfi_index !2032
  call void @doProfiling(i32 32)
  %arrayidx4 = getelementptr inbounds [8 x double], ptr %4, i64 0, !llfi_index !2033
  %arrayidx5 = getelementptr inbounds [8 x double], ptr %arrayidx4, i64 0, i64 2, !llfi_index !2034
  %5 = load double, ptr %arrayidx5, align 8, !llfi_index !2035
  call void @doProfiling(i32 32)
  store double %5, ptr %pfx2, align 8, !llfi_index !2036
  %6 = load ptr, ptr %B.addr, align 8, !llfi_index !2037
  call void @doProfiling(i32 32)
  %arrayidx6 = getelementptr inbounds [8 x double], ptr %6, i64 0, !llfi_index !2038
  %arrayidx7 = getelementptr inbounds [8 x double], ptr %arrayidx6, i64 0, i64 3, !llfi_index !2039
  %7 = load double, ptr %arrayidx7, align 8, !llfi_index !2040
  call void @doProfiling(i32 32)
  store double %7, ptr %pfx3, align 8, !llfi_index !2041
  %8 = load ptr, ptr %B.addr, align 8, !llfi_index !2042
  call void @doProfiling(i32 32)
  %arrayidx8 = getelementptr inbounds [8 x double], ptr %8, i64 0, !llfi_index !2043
  %arrayidx9 = getelementptr inbounds [8 x double], ptr %arrayidx8, i64 0, i64 4, !llfi_index !2044
  %9 = load double, ptr %arrayidx9, align 8, !llfi_index !2045
  call void @doProfiling(i32 32)
  store double %9, ptr %pfx4, align 8, !llfi_index !2046
  %10 = load ptr, ptr %B.addr, align 8, !llfi_index !2047
  call void @doProfiling(i32 32)
  %arrayidx10 = getelementptr inbounds [8 x double], ptr %10, i64 0, !llfi_index !2048
  %arrayidx11 = getelementptr inbounds [8 x double], ptr %arrayidx10, i64 0, i64 5, !llfi_index !2049
  %11 = load double, ptr %arrayidx11, align 8, !llfi_index !2050
  call void @doProfiling(i32 32)
  store double %11, ptr %pfx5, align 8, !llfi_index !2051
  %12 = load ptr, ptr %B.addr, align 8, !llfi_index !2052
  call void @doProfiling(i32 32)
  %arrayidx12 = getelementptr inbounds [8 x double], ptr %12, i64 0, !llfi_index !2053
  %arrayidx13 = getelementptr inbounds [8 x double], ptr %arrayidx12, i64 0, i64 6, !llfi_index !2054
  %13 = load double, ptr %arrayidx13, align 8, !llfi_index !2055
  call void @doProfiling(i32 32)
  store double %13, ptr %pfx6, align 8, !llfi_index !2056
  %14 = load ptr, ptr %B.addr, align 8, !llfi_index !2057
  call void @doProfiling(i32 32)
  %arrayidx14 = getelementptr inbounds [8 x double], ptr %14, i64 0, !llfi_index !2058
  %arrayidx15 = getelementptr inbounds [8 x double], ptr %arrayidx14, i64 0, i64 7, !llfi_index !2059
  %15 = load double, ptr %arrayidx15, align 8, !llfi_index !2060
  call void @doProfiling(i32 32)
  store double %15, ptr %pfx7, align 8, !llfi_index !2061
  %16 = load ptr, ptr %B.addr, align 8, !llfi_index !2062
  call void @doProfiling(i32 32)
  %arrayidx16 = getelementptr inbounds [8 x double], ptr %16, i64 1, !llfi_index !2063
  %arrayidx17 = getelementptr inbounds [8 x double], ptr %arrayidx16, i64 0, i64 0, !llfi_index !2064
  %17 = load double, ptr %arrayidx17, align 8, !llfi_index !2065
  call void @doProfiling(i32 32)
  store double %17, ptr %pfy0, align 8, !llfi_index !2066
  %18 = load ptr, ptr %B.addr, align 8, !llfi_index !2067
  call void @doProfiling(i32 32)
  %arrayidx18 = getelementptr inbounds [8 x double], ptr %18, i64 1, !llfi_index !2068
  %arrayidx19 = getelementptr inbounds [8 x double], ptr %arrayidx18, i64 0, i64 1, !llfi_index !2069
  %19 = load double, ptr %arrayidx19, align 8, !llfi_index !2070
  call void @doProfiling(i32 32)
  store double %19, ptr %pfy1, align 8, !llfi_index !2071
  %20 = load ptr, ptr %B.addr, align 8, !llfi_index !2072
  call void @doProfiling(i32 32)
  %arrayidx20 = getelementptr inbounds [8 x double], ptr %20, i64 1, !llfi_index !2073
  %arrayidx21 = getelementptr inbounds [8 x double], ptr %arrayidx20, i64 0, i64 2, !llfi_index !2074
  %21 = load double, ptr %arrayidx21, align 8, !llfi_index !2075
  call void @doProfiling(i32 32)
  store double %21, ptr %pfy2, align 8, !llfi_index !2076
  %22 = load ptr, ptr %B.addr, align 8, !llfi_index !2077
  call void @doProfiling(i32 32)
  %arrayidx22 = getelementptr inbounds [8 x double], ptr %22, i64 1, !llfi_index !2078
  %arrayidx23 = getelementptr inbounds [8 x double], ptr %arrayidx22, i64 0, i64 3, !llfi_index !2079
  %23 = load double, ptr %arrayidx23, align 8, !llfi_index !2080
  call void @doProfiling(i32 32)
  store double %23, ptr %pfy3, align 8, !llfi_index !2081
  %24 = load ptr, ptr %B.addr, align 8, !llfi_index !2082
  call void @doProfiling(i32 32)
  %arrayidx24 = getelementptr inbounds [8 x double], ptr %24, i64 1, !llfi_index !2083
  %arrayidx25 = getelementptr inbounds [8 x double], ptr %arrayidx24, i64 0, i64 4, !llfi_index !2084
  %25 = load double, ptr %arrayidx25, align 8, !llfi_index !2085
  call void @doProfiling(i32 32)
  store double %25, ptr %pfy4, align 8, !llfi_index !2086
  %26 = load ptr, ptr %B.addr, align 8, !llfi_index !2087
  call void @doProfiling(i32 32)
  %arrayidx26 = getelementptr inbounds [8 x double], ptr %26, i64 1, !llfi_index !2088
  %arrayidx27 = getelementptr inbounds [8 x double], ptr %arrayidx26, i64 0, i64 5, !llfi_index !2089
  %27 = load double, ptr %arrayidx27, align 8, !llfi_index !2090
  call void @doProfiling(i32 32)
  store double %27, ptr %pfy5, align 8, !llfi_index !2091
  %28 = load ptr, ptr %B.addr, align 8, !llfi_index !2092
  call void @doProfiling(i32 32)
  %arrayidx28 = getelementptr inbounds [8 x double], ptr %28, i64 1, !llfi_index !2093
  %arrayidx29 = getelementptr inbounds [8 x double], ptr %arrayidx28, i64 0, i64 6, !llfi_index !2094
  %29 = load double, ptr %arrayidx29, align 8, !llfi_index !2095
  call void @doProfiling(i32 32)
  store double %29, ptr %pfy6, align 8, !llfi_index !2096
  %30 = load ptr, ptr %B.addr, align 8, !llfi_index !2097
  call void @doProfiling(i32 32)
  %arrayidx30 = getelementptr inbounds [8 x double], ptr %30, i64 1, !llfi_index !2098
  %arrayidx31 = getelementptr inbounds [8 x double], ptr %arrayidx30, i64 0, i64 7, !llfi_index !2099
  %31 = load double, ptr %arrayidx31, align 8, !llfi_index !2100
  call void @doProfiling(i32 32)
  store double %31, ptr %pfy7, align 8, !llfi_index !2101
  %32 = load ptr, ptr %B.addr, align 8, !llfi_index !2102
  call void @doProfiling(i32 32)
  %arrayidx32 = getelementptr inbounds [8 x double], ptr %32, i64 2, !llfi_index !2103
  %arrayidx33 = getelementptr inbounds [8 x double], ptr %arrayidx32, i64 0, i64 0, !llfi_index !2104
  %33 = load double, ptr %arrayidx33, align 8, !llfi_index !2105
  call void @doProfiling(i32 32)
  store double %33, ptr %pfz0, align 8, !llfi_index !2106
  %34 = load ptr, ptr %B.addr, align 8, !llfi_index !2107
  call void @doProfiling(i32 32)
  %arrayidx34 = getelementptr inbounds [8 x double], ptr %34, i64 2, !llfi_index !2108
  %arrayidx35 = getelementptr inbounds [8 x double], ptr %arrayidx34, i64 0, i64 1, !llfi_index !2109
  %35 = load double, ptr %arrayidx35, align 8, !llfi_index !2110
  call void @doProfiling(i32 32)
  store double %35, ptr %pfz1, align 8, !llfi_index !2111
  %36 = load ptr, ptr %B.addr, align 8, !llfi_index !2112
  call void @doProfiling(i32 32)
  %arrayidx36 = getelementptr inbounds [8 x double], ptr %36, i64 2, !llfi_index !2113
  %arrayidx37 = getelementptr inbounds [8 x double], ptr %arrayidx36, i64 0, i64 2, !llfi_index !2114
  %37 = load double, ptr %arrayidx37, align 8, !llfi_index !2115
  call void @doProfiling(i32 32)
  store double %37, ptr %pfz2, align 8, !llfi_index !2116
  %38 = load ptr, ptr %B.addr, align 8, !llfi_index !2117
  call void @doProfiling(i32 32)
  %arrayidx38 = getelementptr inbounds [8 x double], ptr %38, i64 2, !llfi_index !2118
  %arrayidx39 = getelementptr inbounds [8 x double], ptr %arrayidx38, i64 0, i64 3, !llfi_index !2119
  %39 = load double, ptr %arrayidx39, align 8, !llfi_index !2120
  call void @doProfiling(i32 32)
  store double %39, ptr %pfz3, align 8, !llfi_index !2121
  %40 = load ptr, ptr %B.addr, align 8, !llfi_index !2122
  call void @doProfiling(i32 32)
  %arrayidx40 = getelementptr inbounds [8 x double], ptr %40, i64 2, !llfi_index !2123
  %arrayidx41 = getelementptr inbounds [8 x double], ptr %arrayidx40, i64 0, i64 4, !llfi_index !2124
  %41 = load double, ptr %arrayidx41, align 8, !llfi_index !2125
  call void @doProfiling(i32 32)
  store double %41, ptr %pfz4, align 8, !llfi_index !2126
  %42 = load ptr, ptr %B.addr, align 8, !llfi_index !2127
  call void @doProfiling(i32 32)
  %arrayidx42 = getelementptr inbounds [8 x double], ptr %42, i64 2, !llfi_index !2128
  %arrayidx43 = getelementptr inbounds [8 x double], ptr %arrayidx42, i64 0, i64 5, !llfi_index !2129
  %43 = load double, ptr %arrayidx43, align 8, !llfi_index !2130
  call void @doProfiling(i32 32)
  store double %43, ptr %pfz5, align 8, !llfi_index !2131
  %44 = load ptr, ptr %B.addr, align 8, !llfi_index !2132
  call void @doProfiling(i32 32)
  %arrayidx44 = getelementptr inbounds [8 x double], ptr %44, i64 2, !llfi_index !2133
  %arrayidx45 = getelementptr inbounds [8 x double], ptr %arrayidx44, i64 0, i64 6, !llfi_index !2134
  %45 = load double, ptr %arrayidx45, align 8, !llfi_index !2135
  call void @doProfiling(i32 32)
  store double %45, ptr %pfz6, align 8, !llfi_index !2136
  %46 = load ptr, ptr %B.addr, align 8, !llfi_index !2137
  call void @doProfiling(i32 32)
  %arrayidx46 = getelementptr inbounds [8 x double], ptr %46, i64 2, !llfi_index !2138
  %arrayidx47 = getelementptr inbounds [8 x double], ptr %arrayidx46, i64 0, i64 7, !llfi_index !2139
  %47 = load double, ptr %arrayidx47, align 8, !llfi_index !2140
  call void @doProfiling(i32 32)
  store double %47, ptr %pfz7, align 8, !llfi_index !2141
  %48 = load double, ptr %stress_xx.addr, align 8, !llfi_index !2142
  call void @doProfiling(i32 32)
  %49 = load double, ptr %pfx0, align 8, !llfi_index !2143
  call void @doProfiling(i32 32)
  %mul = fmul double %48, %49, !llfi_index !2144
  call void @doProfiling(i32 18)
  %fneg = fneg double %mul, !llfi_index !2145
  call void @doProfiling(i32 12)
  %50 = load ptr, ptr %fx.addr, align 8, !llfi_index !2146
  call void @doProfiling(i32 32)
  %arrayidx48 = getelementptr inbounds double, ptr %50, i64 0, !llfi_index !2147
  store double %fneg, ptr %arrayidx48, align 8, !llfi_index !2148
  %51 = load double, ptr %stress_xx.addr, align 8, !llfi_index !2149
  call void @doProfiling(i32 32)
  %52 = load double, ptr %pfx1, align 8, !llfi_index !2150
  call void @doProfiling(i32 32)
  %mul49 = fmul double %51, %52, !llfi_index !2151
  call void @doProfiling(i32 18)
  %fneg50 = fneg double %mul49, !llfi_index !2152
  call void @doProfiling(i32 12)
  %53 = load ptr, ptr %fx.addr, align 8, !llfi_index !2153
  call void @doProfiling(i32 32)
  %arrayidx51 = getelementptr inbounds double, ptr %53, i64 1, !llfi_index !2154
  store double %fneg50, ptr %arrayidx51, align 8, !llfi_index !2155
  %54 = load double, ptr %stress_xx.addr, align 8, !llfi_index !2156
  call void @doProfiling(i32 32)
  %55 = load double, ptr %pfx2, align 8, !llfi_index !2157
  call void @doProfiling(i32 32)
  %mul52 = fmul double %54, %55, !llfi_index !2158
  call void @doProfiling(i32 18)
  %fneg53 = fneg double %mul52, !llfi_index !2159
  call void @doProfiling(i32 12)
  %56 = load ptr, ptr %fx.addr, align 8, !llfi_index !2160
  call void @doProfiling(i32 32)
  %arrayidx54 = getelementptr inbounds double, ptr %56, i64 2, !llfi_index !2161
  store double %fneg53, ptr %arrayidx54, align 8, !llfi_index !2162
  %57 = load double, ptr %stress_xx.addr, align 8, !llfi_index !2163
  call void @doProfiling(i32 32)
  %58 = load double, ptr %pfx3, align 8, !llfi_index !2164
  call void @doProfiling(i32 32)
  %mul55 = fmul double %57, %58, !llfi_index !2165
  call void @doProfiling(i32 18)
  %fneg56 = fneg double %mul55, !llfi_index !2166
  call void @doProfiling(i32 12)
  %59 = load ptr, ptr %fx.addr, align 8, !llfi_index !2167
  call void @doProfiling(i32 32)
  %arrayidx57 = getelementptr inbounds double, ptr %59, i64 3, !llfi_index !2168
  store double %fneg56, ptr %arrayidx57, align 8, !llfi_index !2169
  %60 = load double, ptr %stress_xx.addr, align 8, !llfi_index !2170
  call void @doProfiling(i32 32)
  %61 = load double, ptr %pfx4, align 8, !llfi_index !2171
  call void @doProfiling(i32 32)
  %mul58 = fmul double %60, %61, !llfi_index !2172
  call void @doProfiling(i32 18)
  %fneg59 = fneg double %mul58, !llfi_index !2173
  call void @doProfiling(i32 12)
  %62 = load ptr, ptr %fx.addr, align 8, !llfi_index !2174
  call void @doProfiling(i32 32)
  %arrayidx60 = getelementptr inbounds double, ptr %62, i64 4, !llfi_index !2175
  store double %fneg59, ptr %arrayidx60, align 8, !llfi_index !2176
  %63 = load double, ptr %stress_xx.addr, align 8, !llfi_index !2177
  call void @doProfiling(i32 32)
  %64 = load double, ptr %pfx5, align 8, !llfi_index !2178
  call void @doProfiling(i32 32)
  %mul61 = fmul double %63, %64, !llfi_index !2179
  call void @doProfiling(i32 18)
  %fneg62 = fneg double %mul61, !llfi_index !2180
  call void @doProfiling(i32 12)
  %65 = load ptr, ptr %fx.addr, align 8, !llfi_index !2181
  call void @doProfiling(i32 32)
  %arrayidx63 = getelementptr inbounds double, ptr %65, i64 5, !llfi_index !2182
  store double %fneg62, ptr %arrayidx63, align 8, !llfi_index !2183
  %66 = load double, ptr %stress_xx.addr, align 8, !llfi_index !2184
  call void @doProfiling(i32 32)
  %67 = load double, ptr %pfx6, align 8, !llfi_index !2185
  call void @doProfiling(i32 32)
  %mul64 = fmul double %66, %67, !llfi_index !2186
  call void @doProfiling(i32 18)
  %fneg65 = fneg double %mul64, !llfi_index !2187
  call void @doProfiling(i32 12)
  %68 = load ptr, ptr %fx.addr, align 8, !llfi_index !2188
  call void @doProfiling(i32 32)
  %arrayidx66 = getelementptr inbounds double, ptr %68, i64 6, !llfi_index !2189
  store double %fneg65, ptr %arrayidx66, align 8, !llfi_index !2190
  %69 = load double, ptr %stress_xx.addr, align 8, !llfi_index !2191
  call void @doProfiling(i32 32)
  %70 = load double, ptr %pfx7, align 8, !llfi_index !2192
  call void @doProfiling(i32 32)
  %mul67 = fmul double %69, %70, !llfi_index !2193
  call void @doProfiling(i32 18)
  %fneg68 = fneg double %mul67, !llfi_index !2194
  call void @doProfiling(i32 12)
  %71 = load ptr, ptr %fx.addr, align 8, !llfi_index !2195
  call void @doProfiling(i32 32)
  %arrayidx69 = getelementptr inbounds double, ptr %71, i64 7, !llfi_index !2196
  store double %fneg68, ptr %arrayidx69, align 8, !llfi_index !2197
  %72 = load double, ptr %stress_yy.addr, align 8, !llfi_index !2198
  call void @doProfiling(i32 32)
  %73 = load double, ptr %pfy0, align 8, !llfi_index !2199
  call void @doProfiling(i32 32)
  %mul70 = fmul double %72, %73, !llfi_index !2200
  call void @doProfiling(i32 18)
  %fneg71 = fneg double %mul70, !llfi_index !2201
  call void @doProfiling(i32 12)
  %74 = load ptr, ptr %fy.addr, align 8, !llfi_index !2202
  call void @doProfiling(i32 32)
  %arrayidx72 = getelementptr inbounds double, ptr %74, i64 0, !llfi_index !2203
  store double %fneg71, ptr %arrayidx72, align 8, !llfi_index !2204
  %75 = load double, ptr %stress_yy.addr, align 8, !llfi_index !2205
  call void @doProfiling(i32 32)
  %76 = load double, ptr %pfy1, align 8, !llfi_index !2206
  call void @doProfiling(i32 32)
  %mul73 = fmul double %75, %76, !llfi_index !2207
  call void @doProfiling(i32 18)
  %fneg74 = fneg double %mul73, !llfi_index !2208
  call void @doProfiling(i32 12)
  %77 = load ptr, ptr %fy.addr, align 8, !llfi_index !2209
  call void @doProfiling(i32 32)
  %arrayidx75 = getelementptr inbounds double, ptr %77, i64 1, !llfi_index !2210
  store double %fneg74, ptr %arrayidx75, align 8, !llfi_index !2211
  %78 = load double, ptr %stress_yy.addr, align 8, !llfi_index !2212
  call void @doProfiling(i32 32)
  %79 = load double, ptr %pfy2, align 8, !llfi_index !2213
  call void @doProfiling(i32 32)
  %mul76 = fmul double %78, %79, !llfi_index !2214
  call void @doProfiling(i32 18)
  %fneg77 = fneg double %mul76, !llfi_index !2215
  call void @doProfiling(i32 12)
  %80 = load ptr, ptr %fy.addr, align 8, !llfi_index !2216
  call void @doProfiling(i32 32)
  %arrayidx78 = getelementptr inbounds double, ptr %80, i64 2, !llfi_index !2217
  store double %fneg77, ptr %arrayidx78, align 8, !llfi_index !2218
  %81 = load double, ptr %stress_yy.addr, align 8, !llfi_index !2219
  call void @doProfiling(i32 32)
  %82 = load double, ptr %pfy3, align 8, !llfi_index !2220
  call void @doProfiling(i32 32)
  %mul79 = fmul double %81, %82, !llfi_index !2221
  call void @doProfiling(i32 18)
  %fneg80 = fneg double %mul79, !llfi_index !2222
  call void @doProfiling(i32 12)
  %83 = load ptr, ptr %fy.addr, align 8, !llfi_index !2223
  call void @doProfiling(i32 32)
  %arrayidx81 = getelementptr inbounds double, ptr %83, i64 3, !llfi_index !2224
  store double %fneg80, ptr %arrayidx81, align 8, !llfi_index !2225
  %84 = load double, ptr %stress_yy.addr, align 8, !llfi_index !2226
  call void @doProfiling(i32 32)
  %85 = load double, ptr %pfy4, align 8, !llfi_index !2227
  call void @doProfiling(i32 32)
  %mul82 = fmul double %84, %85, !llfi_index !2228
  call void @doProfiling(i32 18)
  %fneg83 = fneg double %mul82, !llfi_index !2229
  call void @doProfiling(i32 12)
  %86 = load ptr, ptr %fy.addr, align 8, !llfi_index !2230
  call void @doProfiling(i32 32)
  %arrayidx84 = getelementptr inbounds double, ptr %86, i64 4, !llfi_index !2231
  store double %fneg83, ptr %arrayidx84, align 8, !llfi_index !2232
  %87 = load double, ptr %stress_yy.addr, align 8, !llfi_index !2233
  call void @doProfiling(i32 32)
  %88 = load double, ptr %pfy5, align 8, !llfi_index !2234
  call void @doProfiling(i32 32)
  %mul85 = fmul double %87, %88, !llfi_index !2235
  call void @doProfiling(i32 18)
  %fneg86 = fneg double %mul85, !llfi_index !2236
  call void @doProfiling(i32 12)
  %89 = load ptr, ptr %fy.addr, align 8, !llfi_index !2237
  call void @doProfiling(i32 32)
  %arrayidx87 = getelementptr inbounds double, ptr %89, i64 5, !llfi_index !2238
  store double %fneg86, ptr %arrayidx87, align 8, !llfi_index !2239
  %90 = load double, ptr %stress_yy.addr, align 8, !llfi_index !2240
  call void @doProfiling(i32 32)
  %91 = load double, ptr %pfy6, align 8, !llfi_index !2241
  call void @doProfiling(i32 32)
  %mul88 = fmul double %90, %91, !llfi_index !2242
  call void @doProfiling(i32 18)
  %fneg89 = fneg double %mul88, !llfi_index !2243
  call void @doProfiling(i32 12)
  %92 = load ptr, ptr %fy.addr, align 8, !llfi_index !2244
  call void @doProfiling(i32 32)
  %arrayidx90 = getelementptr inbounds double, ptr %92, i64 6, !llfi_index !2245
  store double %fneg89, ptr %arrayidx90, align 8, !llfi_index !2246
  %93 = load double, ptr %stress_yy.addr, align 8, !llfi_index !2247
  call void @doProfiling(i32 32)
  %94 = load double, ptr %pfy7, align 8, !llfi_index !2248
  call void @doProfiling(i32 32)
  %mul91 = fmul double %93, %94, !llfi_index !2249
  call void @doProfiling(i32 18)
  %fneg92 = fneg double %mul91, !llfi_index !2250
  call void @doProfiling(i32 12)
  %95 = load ptr, ptr %fy.addr, align 8, !llfi_index !2251
  call void @doProfiling(i32 32)
  %arrayidx93 = getelementptr inbounds double, ptr %95, i64 7, !llfi_index !2252
  store double %fneg92, ptr %arrayidx93, align 8, !llfi_index !2253
  %96 = load double, ptr %stress_zz.addr, align 8, !llfi_index !2254
  call void @doProfiling(i32 32)
  %97 = load double, ptr %pfz0, align 8, !llfi_index !2255
  call void @doProfiling(i32 32)
  %mul94 = fmul double %96, %97, !llfi_index !2256
  call void @doProfiling(i32 18)
  %fneg95 = fneg double %mul94, !llfi_index !2257
  call void @doProfiling(i32 12)
  %98 = load ptr, ptr %fz.addr, align 8, !llfi_index !2258
  call void @doProfiling(i32 32)
  %arrayidx96 = getelementptr inbounds double, ptr %98, i64 0, !llfi_index !2259
  store double %fneg95, ptr %arrayidx96, align 8, !llfi_index !2260
  %99 = load double, ptr %stress_zz.addr, align 8, !llfi_index !2261
  call void @doProfiling(i32 32)
  %100 = load double, ptr %pfz1, align 8, !llfi_index !2262
  call void @doProfiling(i32 32)
  %mul97 = fmul double %99, %100, !llfi_index !2263
  call void @doProfiling(i32 18)
  %fneg98 = fneg double %mul97, !llfi_index !2264
  call void @doProfiling(i32 12)
  %101 = load ptr, ptr %fz.addr, align 8, !llfi_index !2265
  call void @doProfiling(i32 32)
  %arrayidx99 = getelementptr inbounds double, ptr %101, i64 1, !llfi_index !2266
  store double %fneg98, ptr %arrayidx99, align 8, !llfi_index !2267
  %102 = load double, ptr %stress_zz.addr, align 8, !llfi_index !2268
  call void @doProfiling(i32 32)
  %103 = load double, ptr %pfz2, align 8, !llfi_index !2269
  call void @doProfiling(i32 32)
  %mul100 = fmul double %102, %103, !llfi_index !2270
  call void @doProfiling(i32 18)
  %fneg101 = fneg double %mul100, !llfi_index !2271
  call void @doProfiling(i32 12)
  %104 = load ptr, ptr %fz.addr, align 8, !llfi_index !2272
  call void @doProfiling(i32 32)
  %arrayidx102 = getelementptr inbounds double, ptr %104, i64 2, !llfi_index !2273
  store double %fneg101, ptr %arrayidx102, align 8, !llfi_index !2274
  %105 = load double, ptr %stress_zz.addr, align 8, !llfi_index !2275
  call void @doProfiling(i32 32)
  %106 = load double, ptr %pfz3, align 8, !llfi_index !2276
  call void @doProfiling(i32 32)
  %mul103 = fmul double %105, %106, !llfi_index !2277
  call void @doProfiling(i32 18)
  %fneg104 = fneg double %mul103, !llfi_index !2278
  call void @doProfiling(i32 12)
  %107 = load ptr, ptr %fz.addr, align 8, !llfi_index !2279
  call void @doProfiling(i32 32)
  %arrayidx105 = getelementptr inbounds double, ptr %107, i64 3, !llfi_index !2280
  store double %fneg104, ptr %arrayidx105, align 8, !llfi_index !2281
  %108 = load double, ptr %stress_zz.addr, align 8, !llfi_index !2282
  call void @doProfiling(i32 32)
  %109 = load double, ptr %pfz4, align 8, !llfi_index !2283
  call void @doProfiling(i32 32)
  %mul106 = fmul double %108, %109, !llfi_index !2284
  call void @doProfiling(i32 18)
  %fneg107 = fneg double %mul106, !llfi_index !2285
  call void @doProfiling(i32 12)
  %110 = load ptr, ptr %fz.addr, align 8, !llfi_index !2286
  call void @doProfiling(i32 32)
  %arrayidx108 = getelementptr inbounds double, ptr %110, i64 4, !llfi_index !2287
  store double %fneg107, ptr %arrayidx108, align 8, !llfi_index !2288
  %111 = load double, ptr %stress_zz.addr, align 8, !llfi_index !2289
  call void @doProfiling(i32 32)
  %112 = load double, ptr %pfz5, align 8, !llfi_index !2290
  call void @doProfiling(i32 32)
  %mul109 = fmul double %111, %112, !llfi_index !2291
  call void @doProfiling(i32 18)
  %fneg110 = fneg double %mul109, !llfi_index !2292
  call void @doProfiling(i32 12)
  %113 = load ptr, ptr %fz.addr, align 8, !llfi_index !2293
  call void @doProfiling(i32 32)
  %arrayidx111 = getelementptr inbounds double, ptr %113, i64 5, !llfi_index !2294
  store double %fneg110, ptr %arrayidx111, align 8, !llfi_index !2295
  %114 = load double, ptr %stress_zz.addr, align 8, !llfi_index !2296
  call void @doProfiling(i32 32)
  %115 = load double, ptr %pfz6, align 8, !llfi_index !2297
  call void @doProfiling(i32 32)
  %mul112 = fmul double %114, %115, !llfi_index !2298
  call void @doProfiling(i32 18)
  %fneg113 = fneg double %mul112, !llfi_index !2299
  call void @doProfiling(i32 12)
  %116 = load ptr, ptr %fz.addr, align 8, !llfi_index !2300
  call void @doProfiling(i32 32)
  %arrayidx114 = getelementptr inbounds double, ptr %116, i64 6, !llfi_index !2301
  store double %fneg113, ptr %arrayidx114, align 8, !llfi_index !2302
  %117 = load double, ptr %stress_zz.addr, align 8, !llfi_index !2303
  call void @doProfiling(i32 32)
  %118 = load double, ptr %pfz7, align 8, !llfi_index !2304
  call void @doProfiling(i32 32)
  %mul115 = fmul double %117, %118, !llfi_index !2305
  call void @doProfiling(i32 18)
  %fneg116 = fneg double %mul115, !llfi_index !2306
  call void @doProfiling(i32 12)
  %119 = load ptr, ptr %fz.addr, align 8, !llfi_index !2307
  call void @doProfiling(i32 32)
  %arrayidx117 = getelementptr inbounds double, ptr %119, i64 7, !llfi_index !2308
  store double %fneg116, ptr %arrayidx117, align 8, !llfi_index !2309
  ret void, !llfi_index !2310
}

; Function Attrs: mustprogress noinline optnone uwtable
define dso_local void @_Z23IntegrateStressForElemsiPdS_S_S_(i32 noundef %numElem, ptr noundef %sigxx, ptr noundef %sigyy, ptr noundef %sigzz, ptr noundef %determ) #4 {
entry:
  %numElem.addr = alloca i32, align 4, !llfi_index !2311
  call void @doProfiling(i32 31)
  %sigxx.addr = alloca ptr, align 8, !llfi_index !2312
  call void @doProfiling(i32 31)
  %sigyy.addr = alloca ptr, align 8, !llfi_index !2313
  call void @doProfiling(i32 31)
  %sigzz.addr = alloca ptr, align 8, !llfi_index !2314
  call void @doProfiling(i32 31)
  %determ.addr = alloca ptr, align 8, !llfi_index !2315
  call void @doProfiling(i32 31)
  %B = alloca [3 x [8 x double]], align 16, !llfi_index !2316
  call void @doProfiling(i32 31)
  %x_local = alloca [8 x double], align 16, !llfi_index !2317
  call void @doProfiling(i32 31)
  %y_local = alloca [8 x double], align 16, !llfi_index !2318
  call void @doProfiling(i32 31)
  %z_local = alloca [8 x double], align 16, !llfi_index !2319
  call void @doProfiling(i32 31)
  %fx_local = alloca [8 x double], align 16, !llfi_index !2320
  call void @doProfiling(i32 31)
  %fy_local = alloca [8 x double], align 16, !llfi_index !2321
  call void @doProfiling(i32 31)
  %fz_local = alloca [8 x double], align 16, !llfi_index !2322
  call void @doProfiling(i32 31)
  %k = alloca i32, align 4, !llfi_index !2323
  call void @doProfiling(i32 31)
  %elemNodes = alloca ptr, align 8, !llfi_index !2324
  call void @doProfiling(i32 31)
  %lnode = alloca i32, align 4, !llfi_index !2325
  call void @doProfiling(i32 31)
  %gnode = alloca i32, align 4, !llfi_index !2326
  call void @doProfiling(i32 31)
  %lnode37 = alloca i32, align 4, !llfi_index !2327
  call void @doProfiling(i32 31)
  %gnode41 = alloca i32, align 4, !llfi_index !2328
  call void @doProfiling(i32 31)
  store i32 %numElem, ptr %numElem.addr, align 4, !llfi_index !2329
  store ptr %sigxx, ptr %sigxx.addr, align 8, !llfi_index !2330
  store ptr %sigyy, ptr %sigyy.addr, align 8, !llfi_index !2331
  store ptr %sigzz, ptr %sigzz.addr, align 8, !llfi_index !2332
  store ptr %determ, ptr %determ.addr, align 8, !llfi_index !2333
  store i32 0, ptr %k, align 4, !llfi_index !2334
  br label %for.cond, !llfi_index !2335

for.cond:                                         ; preds = %for.inc58, %entry
  %0 = load i32, ptr %k, align 4, !llfi_index !2336
  call void @doProfiling(i32 32)
  %1 = load i32, ptr %numElem.addr, align 4, !llfi_index !2337
  call void @doProfiling(i32 32)
  %cmp = icmp slt i32 %0, %1, !llfi_index !2338
  call void @doProfiling(i32 53)
  br i1 %cmp, label %for.body, label %for.end60, !llfi_index !2339

for.body:                                         ; preds = %for.cond
  %2 = load i32, ptr %k, align 4, !llfi_index !2340
  call void @doProfiling(i32 32)
  %call = call noundef ptr @_ZN4Mesh8nodelistEi(ptr noundef nonnull align 8 dereferenceable(1376) @mesh, i32 noundef %2), !llfi_index !2341
  call void @doProfiling(i32 56)
  store ptr %call, ptr %elemNodes, align 8, !llfi_index !2342
  store i32 0, ptr %lnode, align 4, !llfi_index !2343
  br label %for.cond1, !llfi_index !2344

for.cond1:                                        ; preds = %for.inc, %for.body
  %3 = load i32, ptr %lnode, align 4, !llfi_index !2345
  call void @doProfiling(i32 32)
  %cmp2 = icmp slt i32 %3, 8, !llfi_index !2346
  call void @doProfiling(i32 53)
  br i1 %cmp2, label %for.body3, label %for.end, !llfi_index !2347

for.body3:                                        ; preds = %for.cond1
  %4 = load ptr, ptr %elemNodes, align 8, !llfi_index !2348
  call void @doProfiling(i32 32)
  %5 = load i32, ptr %lnode, align 4, !llfi_index !2349
  call void @doProfiling(i32 32)
  %idxprom = sext i32 %5 to i64, !llfi_index !2350
  call void @doProfiling(i32 40)
  %arrayidx = getelementptr inbounds i32, ptr %4, i64 %idxprom, !llfi_index !2351
  %6 = load i32, ptr %arrayidx, align 4, !llfi_index !2352
  call void @doProfiling(i32 32)
  store i32 %6, ptr %gnode, align 4, !llfi_index !2353
  %7 = load i32, ptr %gnode, align 4, !llfi_index !2354
  call void @doProfiling(i32 32)
  %call4 = call noundef nonnull align 8 dereferenceable(8) ptr @_ZN4Mesh1xEi(ptr noundef nonnull align 8 dereferenceable(1376) @mesh, i32 noundef %7), !llfi_index !2355
  call void @doProfiling(i32 56)
  %8 = load double, ptr %call4, align 8, !llfi_index !2356
  call void @doProfiling(i32 32)
  %9 = load i32, ptr %lnode, align 4, !llfi_index !2357
  call void @doProfiling(i32 32)
  %idxprom5 = sext i32 %9 to i64, !llfi_index !2358
  call void @doProfiling(i32 40)
  %arrayidx6 = getelementptr inbounds [8 x double], ptr %x_local, i64 0, i64 %idxprom5, !llfi_index !2359
  store double %8, ptr %arrayidx6, align 8, !llfi_index !2360
  %10 = load i32, ptr %gnode, align 4, !llfi_index !2361
  call void @doProfiling(i32 32)
  %call7 = call noundef nonnull align 8 dereferenceable(8) ptr @_ZN4Mesh1yEi(ptr noundef nonnull align 8 dereferenceable(1376) @mesh, i32 noundef %10), !llfi_index !2362
  call void @doProfiling(i32 56)
  %11 = load double, ptr %call7, align 8, !llfi_index !2363
  call void @doProfiling(i32 32)
  %12 = load i32, ptr %lnode, align 4, !llfi_index !2364
  call void @doProfiling(i32 32)
  %idxprom8 = sext i32 %12 to i64, !llfi_index !2365
  call void @doProfiling(i32 40)
  %arrayidx9 = getelementptr inbounds [8 x double], ptr %y_local, i64 0, i64 %idxprom8, !llfi_index !2366
  store double %11, ptr %arrayidx9, align 8, !llfi_index !2367
  %13 = load i32, ptr %gnode, align 4, !llfi_index !2368
  call void @doProfiling(i32 32)
  %call10 = call noundef nonnull align 8 dereferenceable(8) ptr @_ZN4Mesh1zEi(ptr noundef nonnull align 8 dereferenceable(1376) @mesh, i32 noundef %13), !llfi_index !2369
  call void @doProfiling(i32 56)
  %14 = load double, ptr %call10, align 8, !llfi_index !2370
  call void @doProfiling(i32 32)
  %15 = load i32, ptr %lnode, align 4, !llfi_index !2371
  call void @doProfiling(i32 32)
  %idxprom11 = sext i32 %15 to i64, !llfi_index !2372
  call void @doProfiling(i32 40)
  %arrayidx12 = getelementptr inbounds [8 x double], ptr %z_local, i64 0, i64 %idxprom11, !llfi_index !2373
  store double %14, ptr %arrayidx12, align 8, !llfi_index !2374
  br label %for.inc, !llfi_index !2375

for.inc:                                          ; preds = %for.body3
  %16 = load i32, ptr %lnode, align 4, !llfi_index !2376
  call void @doProfiling(i32 32)
  %inc = add nsw i32 %16, 1, !llfi_index !2377
  call void @doProfiling(i32 13)
  store i32 %inc, ptr %lnode, align 4, !llfi_index !2378
  br label %for.cond1, !llvm.loop !2379, !llfi_index !2380

for.end:                                          ; preds = %for.cond1
  %arraydecay = getelementptr inbounds [8 x double], ptr %x_local, i64 0, i64 0, !llfi_index !2381
  %arraydecay13 = getelementptr inbounds [8 x double], ptr %y_local, i64 0, i64 0, !llfi_index !2382
  %arraydecay14 = getelementptr inbounds [8 x double], ptr %z_local, i64 0, i64 0, !llfi_index !2383
  %arraydecay15 = getelementptr inbounds [3 x [8 x double]], ptr %B, i64 0, i64 0, !llfi_index !2384
  %17 = load ptr, ptr %determ.addr, align 8, !llfi_index !2385
  call void @doProfiling(i32 32)
  %18 = load i32, ptr %k, align 4, !llfi_index !2386
  call void @doProfiling(i32 32)
  %idxprom16 = sext i32 %18 to i64, !llfi_index !2387
  call void @doProfiling(i32 40)
  %arrayidx17 = getelementptr inbounds double, ptr %17, i64 %idxprom16, !llfi_index !2388
  call void @_Z32CalcElemShapeFunctionDerivativesPKdS0_S0_PA8_dPd(ptr noundef %arraydecay, ptr noundef %arraydecay13, ptr noundef %arraydecay14, ptr noundef %arraydecay15, ptr noundef %arrayidx17), !llfi_index !2389
  %arrayidx18 = getelementptr inbounds [3 x [8 x double]], ptr %B, i64 0, i64 0, !llfi_index !2390
  %arraydecay19 = getelementptr inbounds [8 x double], ptr %arrayidx18, i64 0, i64 0, !llfi_index !2391
  %arrayidx20 = getelementptr inbounds [3 x [8 x double]], ptr %B, i64 0, i64 1, !llfi_index !2392
  %arraydecay21 = getelementptr inbounds [8 x double], ptr %arrayidx20, i64 0, i64 0, !llfi_index !2393
  %arrayidx22 = getelementptr inbounds [3 x [8 x double]], ptr %B, i64 0, i64 2, !llfi_index !2394
  %arraydecay23 = getelementptr inbounds [8 x double], ptr %arrayidx22, i64 0, i64 0, !llfi_index !2395
  %arraydecay24 = getelementptr inbounds [8 x double], ptr %x_local, i64 0, i64 0, !llfi_index !2396
  %arraydecay25 = getelementptr inbounds [8 x double], ptr %y_local, i64 0, i64 0, !llfi_index !2397
  %arraydecay26 = getelementptr inbounds [8 x double], ptr %z_local, i64 0, i64 0, !llfi_index !2398
  call void @_Z19CalcElemNodeNormalsPdS_S_PKdS1_S1_(ptr noundef %arraydecay19, ptr noundef %arraydecay21, ptr noundef %arraydecay23, ptr noundef %arraydecay24, ptr noundef %arraydecay25, ptr noundef %arraydecay26), !llfi_index !2399
  %arraydecay27 = getelementptr inbounds [3 x [8 x double]], ptr %B, i64 0, i64 0, !llfi_index !2400
  %19 = load ptr, ptr %sigxx.addr, align 8, !llfi_index !2401
  call void @doProfiling(i32 32)
  %20 = load i32, ptr %k, align 4, !llfi_index !2402
  call void @doProfiling(i32 32)
  %idxprom28 = sext i32 %20 to i64, !llfi_index !2403
  call void @doProfiling(i32 40)
  %arrayidx29 = getelementptr inbounds double, ptr %19, i64 %idxprom28, !llfi_index !2404
  %21 = load double, ptr %arrayidx29, align 8, !llfi_index !2405
  call void @doProfiling(i32 32)
  %22 = load ptr, ptr %sigyy.addr, align 8, !llfi_index !2406
  call void @doProfiling(i32 32)
  %23 = load i32, ptr %k, align 4, !llfi_index !2407
  call void @doProfiling(i32 32)
  %idxprom30 = sext i32 %23 to i64, !llfi_index !2408
  call void @doProfiling(i32 40)
  %arrayidx31 = getelementptr inbounds double, ptr %22, i64 %idxprom30, !llfi_index !2409
  %24 = load double, ptr %arrayidx31, align 8, !llfi_index !2410
  call void @doProfiling(i32 32)
  %25 = load ptr, ptr %sigzz.addr, align 8, !llfi_index !2411
  call void @doProfiling(i32 32)
  %26 = load i32, ptr %k, align 4, !llfi_index !2412
  call void @doProfiling(i32 32)
  %idxprom32 = sext i32 %26 to i64, !llfi_index !2413
  call void @doProfiling(i32 40)
  %arrayidx33 = getelementptr inbounds double, ptr %25, i64 %idxprom32, !llfi_index !2414
  %27 = load double, ptr %arrayidx33, align 8, !llfi_index !2415
  call void @doProfiling(i32 32)
  %arraydecay34 = getelementptr inbounds [8 x double], ptr %fx_local, i64 0, i64 0, !llfi_index !2416
  %arraydecay35 = getelementptr inbounds [8 x double], ptr %fy_local, i64 0, i64 0, !llfi_index !2417
  %arraydecay36 = getelementptr inbounds [8 x double], ptr %fz_local, i64 0, i64 0, !llfi_index !2418
  call void @_Z27SumElemStressesToNodeForcesPA8_KddddPdS2_S2_(ptr noundef %arraydecay27, double noundef %21, double noundef %24, double noundef %27, ptr noundef %arraydecay34, ptr noundef %arraydecay35, ptr noundef %arraydecay36), !llfi_index !2419
  store i32 0, ptr %lnode37, align 4, !llfi_index !2420
  br label %for.cond38, !llfi_index !2421

for.cond38:                                       ; preds = %for.inc55, %for.end
  %28 = load i32, ptr %lnode37, align 4, !llfi_index !2422
  call void @doProfiling(i32 32)
  %cmp39 = icmp slt i32 %28, 8, !llfi_index !2423
  call void @doProfiling(i32 53)
  br i1 %cmp39, label %for.body40, label %for.end57, !llfi_index !2424

for.body40:                                       ; preds = %for.cond38
  %29 = load ptr, ptr %elemNodes, align 8, !llfi_index !2425
  call void @doProfiling(i32 32)
  %30 = load i32, ptr %lnode37, align 4, !llfi_index !2426
  call void @doProfiling(i32 32)
  %idxprom42 = sext i32 %30 to i64, !llfi_index !2427
  call void @doProfiling(i32 40)
  %arrayidx43 = getelementptr inbounds i32, ptr %29, i64 %idxprom42, !llfi_index !2428
  %31 = load i32, ptr %arrayidx43, align 4, !llfi_index !2429
  call void @doProfiling(i32 32)
  store i32 %31, ptr %gnode41, align 4, !llfi_index !2430
  %32 = load i32, ptr %lnode37, align 4, !llfi_index !2431
  call void @doProfiling(i32 32)
  %idxprom44 = sext i32 %32 to i64, !llfi_index !2432
  call void @doProfiling(i32 40)
  %arrayidx45 = getelementptr inbounds [8 x double], ptr %fx_local, i64 0, i64 %idxprom44, !llfi_index !2433
  %33 = load double, ptr %arrayidx45, align 8, !llfi_index !2434
