; ModuleID = 'LULESH.cc'
source_filename = "LULESH.cc"
target datalayout = "e-m:e-p270:32:32-p271:32:32-p272:64:64-i64:64-f80:128-n8:16:32:64-S128"
target triple = "x86_64-unknown-linux-gnu"

%struct.Mesh = type { %"class.std::vector", %"class.std::vector", %"class.std::vector", %"class.std::vector", %"class.std::vector", %"class.std::vector", %"class.std::vector", %"class.std::vector", %"class.std::vector", %"class.std::vector", %"class.std::vector", %"class.std::vector", %"class.std::vector", %"class.std::vector.0", %"class.std::vector.0", %"class.std::vector.0", %"class.std::vector.0", %"class.std::vector.0", %"class.std::vector.0", %"class.std::vector.0", %"class.std::vector.0", %"class.std::vector.0", %"class.std::vector.0", %"class.std::vector.0", %"class.std::vector.0", %"class.std::vector", %"class.std::vector", %"class.std::vector", %"class.std::vector", %"class.std::vector", %"class.std::vector", %"class.std::vector", %"class.std::vector", %"class.std::vector", %"class.std::vector", %"class.std::vector", %"class.std::vector", %"class.std::vector", %"class.std::vector", %"class.std::vector", %"class.std::vector", %"class.std::vector", %"class.std::vector", %"class.std::vector", %"class.std::vector", %"class.std::vector", %"class.std::vector", double, double, double, double, double, double, double, double, double, double, double, double, double, double, double, double, double, double, double, double, double, double, double, double, double, double, double, double, i32, i32, i32, i32, i32, i32 }
%"class.std::vector.0" = type { %"struct.std::_Vector_base.1" }
%"struct.std::_Vector_base.1" = type { %"struct.std::_Vector_base<int, std::allocator<int>>::_Vector_impl" }
%"struct.std::_Vector_base<int, std::allocator<int>>::_Vector_impl" = type { %"struct.std::_Vector_base<int, std::allocator<int>>::_Vector_impl_data" }
%"struct.std::_Vector_base<int, std::allocator<int>>::_Vector_impl_data" = type { i32*, i32*, i32* }
%"class.std::vector" = type { %"struct.std::_Vector_base" }
%"struct.std::_Vector_base" = type { %"struct.std::_Vector_base<double, std::allocator<double>>::_Vector_impl" }
%"struct.std::_Vector_base<double, std::allocator<double>>::_Vector_impl" = type { %"struct.std::_Vector_base<double, std::allocator<double>>::_Vector_impl_data" }
%"struct.std::_Vector_base<double, std::allocator<double>>::_Vector_impl_data" = type { double*, double*, double* }
%struct.timeval = type { i64, i64 }
%struct._IO_FILE = type { i32, i8*, i8*, i8*, i8*, i8*, i8*, i8*, i8*, i8*, i8*, i8*, %struct._IO_marker*, %struct._IO_FILE*, i32, i32, i64, i16, i8, [1 x i8], i8*, i64, %struct._IO_codecvt*, %struct._IO_wide_data*, %struct._IO_FILE*, i8*, i64, i32, [20 x i8] }
%struct._IO_marker = type opaque
%struct._IO_codecvt = type opaque
%struct._IO_wide_data = type opaque
%"class.std::allocator" = type { i8 }
%"class.__gnu_cxx::new_allocator" = type { i8 }
%"class.std::allocator.2" = type { i8 }
%"class.__gnu_cxx::new_allocator.3" = type { i8 }
%"class.__gnu_cxx::__normal_iterator" = type { double* }
%"struct.std::integral_constant" = type { i8 }
%"struct.std::vector<double>::_Temporary_value" = type { %"class.std::vector"*, %"union.std::aligned_storage<8, 8>::type" }
%"union.std::aligned_storage<8, 8>::type" = type { [8 x i8] }
%"class.std::move_iterator" = type { double* }

$_ZN4MeshC2Ev = comdat any

$_ZN4MeshD2Ev = comdat any

$_ZN4Mesh8stoptimeEv = comdat any

$_ZN4Mesh4timeEv = comdat any

$_ZN4Mesh7dtfixedEv = comdat any

$_ZN4Mesh5cycleEv = comdat any

$_ZN4Mesh9deltatimeEv = comdat any

$_ZN4Mesh9dtcourantEv = comdat any

$_ZN4Mesh7dthydroEv = comdat any

$_ZN4Mesh15deltatimemultlbEv = comdat any

$_ZN4Mesh15deltatimemultubEv = comdat any

$_ZN4Mesh5dtmaxEv = comdat any

$_ZN4Mesh1pEi = comdat any

$_ZN4Mesh1qEi = comdat any

$_ZN4Mesh8nodelistEi = comdat any

$_ZN4Mesh1xEi = comdat any

$_ZN4Mesh1yEi = comdat any

$_ZN4Mesh1zEi = comdat any

$_ZN4Mesh2fxEi = comdat any

$_ZN4Mesh2fyEi = comdat any

$_ZN4Mesh2fzEi = comdat any

$_ZN4Mesh7numElemEv = comdat any

$_ZN4Mesh2ssEi = comdat any

$_ZN4Mesh8elemMassEi = comdat any

$_Z4CBRTd = comdat any

$_ZN4Mesh2xdEi = comdat any

$_ZN4Mesh2ydEi = comdat any

$_ZN4Mesh2zdEi = comdat any

$_Z8AllocateIdEPT_m = comdat any

$_ZN4Mesh4voloEi = comdat any

$_ZN4Mesh1vEi = comdat any

$_Z7ReleaseIdEvPPT_ = comdat any

$_ZN4Mesh6hgcoefEv = comdat any

$_ZN4Mesh7numNodeEv = comdat any

$_ZN4Mesh9nodalMassEi = comdat any

$_ZN4Mesh3xddEi = comdat any

$_ZN4Mesh3yddEi = comdat any

$_ZN4Mesh3zddEi = comdat any

$_ZN4Mesh5sizeXEv = comdat any

$_ZN4Mesh5symmXEi = comdat any

$_ZN4Mesh5symmYEi = comdat any

$_ZN4Mesh5symmZEi = comdat any

$_Z4FABSd = comdat any

$_ZN4Mesh5u_cutEv = comdat any

$_ZSt3maxIdERKT_S2_S2_ = comdat any

$_Z4SQRTd = comdat any

$_ZN4Mesh4vnewEi = comdat any

$_ZN4Mesh4delvEi = comdat any

$_ZN4Mesh6arealgEi = comdat any

$_ZN4Mesh3dxxEi = comdat any

$_ZN4Mesh3dyyEi = comdat any

$_ZN4Mesh3dzzEi = comdat any

$_ZN4Mesh4vdovEi = comdat any

$_ZN4Mesh9delx_zetaEi = comdat any

$_ZN4Mesh9delv_zetaEi = comdat any

$_ZN4Mesh7delx_xiEi = comdat any

$_ZN4Mesh7delv_xiEi = comdat any

$_ZN4Mesh8delx_etaEi = comdat any

$_ZN4Mesh8delv_etaEi = comdat any

$_ZN4Mesh11matElemlistEi = comdat any

$_ZN4Mesh6elemBCEi = comdat any

$_ZN4Mesh4lximEi = comdat any

$_ZN4Mesh4lxipEi = comdat any

$_ZN4Mesh5letamEi = comdat any

$_ZN4Mesh5letapEi = comdat any

$_ZN4Mesh6lzetamEi = comdat any

$_ZN4Mesh6lzetapEi = comdat any

$_ZN4Mesh2qqEi = comdat any

$_ZN4Mesh2qlEi = comdat any

$_ZN4Mesh15monoq_max_slopeEv = comdat any

$_ZN4Mesh18monoq_limiter_multEv = comdat any

$_ZN4Mesh9qlc_monoqEv = comdat any

$_ZN4Mesh9qqc_monoqEv = comdat any

$_ZN4Mesh5qstopEv = comdat any

$_ZN4Mesh5e_cutEv = comdat any

$_ZN4Mesh5p_cutEv = comdat any

$_ZN4Mesh5ss4o3Ev = comdat any

$_ZN4Mesh5q_cutEv = comdat any

$_ZN4Mesh7eosvmaxEv = comdat any

$_ZN4Mesh7eosvminEv = comdat any

$_ZN4Mesh4pminEv = comdat any

$_ZN4Mesh4eminEv = comdat any

$_ZN4Mesh7refdensEv = comdat any

$_ZN4Mesh1eEi = comdat any

$_ZN4Mesh5v_cutEv = comdat any

$_ZN4Mesh3qqcEv = comdat any

$_ZN4Mesh7dvovmaxEv = comdat any

$_ZN4Mesh5sizeYEv = comdat any

$_ZN4Mesh5sizeZEv = comdat any

$_ZN4Mesh22AllocateElemPersistentEm = comdat any

$_ZN4Mesh21AllocateElemTemporaryEm = comdat any

$_ZN4Mesh23AllocateNodalPersistentEm = comdat any

$_ZN4Mesh16AllocateNodesetsEm = comdat any

$_ZNSt6vectorIdSaIdEEC2Ev = comdat any

$_ZNSt6vectorIiSaIiEEC2Ev = comdat any

$_ZNSt12_Vector_baseIdSaIdEEC2Ev = comdat any

$_ZNSt12_Vector_baseIdSaIdEE12_Vector_implC2Ev = comdat any

$_ZNSaIdEC2Ev = comdat any

$_ZNSt12_Vector_baseIdSaIdEE17_Vector_impl_dataC2Ev = comdat any

$_ZN9__gnu_cxx13new_allocatorIdEC2Ev = comdat any

$_ZNSt12_Vector_baseIiSaIiEEC2Ev = comdat any

$_ZNSt12_Vector_baseIiSaIiEE12_Vector_implC2Ev = comdat any

$_ZNSaIiEC2Ev = comdat any

$_ZNSt12_Vector_baseIiSaIiEE17_Vector_impl_dataC2Ev = comdat any

$_ZN9__gnu_cxx13new_allocatorIiEC2Ev = comdat any

$_ZNSt6vectorIdSaIdEED2Ev = comdat any

$_ZNSt6vectorIiSaIiEED2Ev = comdat any

$_ZSt8_DestroyIPddEvT_S1_RSaIT0_E = comdat any

$_ZNSt12_Vector_baseIdSaIdEE19_M_get_Tp_allocatorEv = comdat any

$_ZNSt12_Vector_baseIdSaIdEED2Ev = comdat any

$__clang_call_terminate = comdat any

$_ZSt8_DestroyIPdEvT_S1_ = comdat any

$_ZNSt12_Destroy_auxILb1EE9__destroyIPdEEvT_S3_ = comdat any

$_ZNSt12_Vector_baseIdSaIdEE13_M_deallocateEPdm = comdat any

$_ZNSt12_Vector_baseIdSaIdEE12_Vector_implD2Ev = comdat any

$_ZNSt16allocator_traitsISaIdEE10deallocateERS0_Pdm = comdat any

$_ZN9__gnu_cxx13new_allocatorIdE10deallocateEPdm = comdat any

$_ZNSaIdED2Ev = comdat any

$_ZN9__gnu_cxx13new_allocatorIdED2Ev = comdat any

$_ZSt8_DestroyIPiiEvT_S1_RSaIT0_E = comdat any

$_ZNSt12_Vector_baseIiSaIiEE19_M_get_Tp_allocatorEv = comdat any

$_ZNSt12_Vector_baseIiSaIiEED2Ev = comdat any

$_ZSt8_DestroyIPiEvT_S1_ = comdat any

$_ZNSt12_Destroy_auxILb1EE9__destroyIPiEEvT_S3_ = comdat any

$_ZNSt12_Vector_baseIiSaIiEE13_M_deallocateEPim = comdat any

$_ZNSt12_Vector_baseIiSaIiEE12_Vector_implD2Ev = comdat any

$_ZNSt16allocator_traitsISaIiEE10deallocateERS0_Pim = comdat any

$_ZN9__gnu_cxx13new_allocatorIiE10deallocateEPim = comdat any

$_ZNSaIiED2Ev = comdat any

$_ZN9__gnu_cxx13new_allocatorIiED2Ev = comdat any

$_ZNSt6vectorIdSaIdEEixEm = comdat any

$_ZNSt6vectorIiSaIiEEixEm = comdat any

$_ZNSt6vectorIiSaIiEE6resizeEm = comdat any

$_ZNSt6vectorIdSaIdEE6resizeEmRKd = comdat any

$_ZNSt6vectorIdSaIdEE6resizeEm = comdat any

$_ZNKSt6vectorIiSaIiEE4sizeEv = comdat any

$_ZNSt6vectorIiSaIiEE17_M_default_appendEm = comdat any

$_ZNSt6vectorIiSaIiEE15_M_erase_at_endEPi = comdat any

$_ZNKSt6vectorIiSaIiEE8max_sizeEv = comdat any

$_ZSt27__uninitialized_default_n_aIPimiET_S1_T0_RSaIT1_E = comdat any

$_ZNKSt6vectorIiSaIiEE12_M_check_lenEmPKc = comdat any

$_ZNSt12_Vector_baseIiSaIiEE11_M_allocateEm = comdat any

$_ZNSt6vectorIiSaIiEE11_S_relocateEPiS2_S2_RS0_ = comdat any

$_ZNSt6vectorIiSaIiEE11_S_max_sizeERKS0_ = comdat any

$_ZNKSt12_Vector_baseIiSaIiEE19_M_get_Tp_allocatorEv = comdat any

$_ZNSt16allocator_traitsISaIiEE8max_sizeERKS0_ = comdat any

$_ZSt3minImERKT_S2_S2_ = comdat any

$_ZNK9__gnu_cxx13new_allocatorIiE8max_sizeEv = comdat any

$_ZSt25__uninitialized_default_nIPimET_S1_T0_ = comdat any

$_ZNSt27__uninitialized_default_n_1ILb1EE18__uninit_default_nIPimEET_S3_T0_ = comdat any

$_ZSt6fill_nIPimiET_S1_T0_RKT1_ = comdat any

$_ZSt12__niter_wrapIPiET_RKS1_S1_ = comdat any

$_ZSt10__fill_n_aIPimiEN9__gnu_cxx11__enable_ifIXsr11__is_scalarIT1_EE7__valueET_E6__typeES4_T0_RKS3_ = comdat any

$_ZSt12__niter_baseIPiET_S1_ = comdat any

$_ZSt3maxImERKT_S2_S2_ = comdat any

$_ZNSt16allocator_traitsISaIiEE8allocateERS0_m = comdat any

$_ZN9__gnu_cxx13new_allocatorIiE8allocateEmPKv = comdat any

$_ZNSt6vectorIiSaIiEE14_S_do_relocateEPiS2_S2_RS0_St17integral_constantIbLb1EE = comdat any

$_ZSt12__relocate_aIPiS0_SaIiEET0_T_S3_S2_RT1_ = comdat any

$_ZSt14__relocate_a_1IiiENSt9enable_ifIXsr3std24__is_bitwise_relocatableIT_EE5valueEPS1_E4typeES2_S2_S2_RSaIT0_E = comdat any

$_ZNKSt6vectorIdSaIdEE4sizeEv = comdat any

$_ZNSt6vectorIdSaIdEE14_M_fill_insertEN9__gnu_cxx17__normal_iteratorIPdS1_EEmRKd = comdat any

$_ZNSt6vectorIdSaIdEE3endEv = comdat any

$_ZNSt6vectorIdSaIdEE15_M_erase_at_endEPd = comdat any

$_ZNSt6vectorIdSaIdEE16_Temporary_valueC2IJRKdEEEPS1_DpOT_ = comdat any

$_ZNSt6vectorIdSaIdEE16_Temporary_value6_M_valEv = comdat any

$_ZN9__gnu_cxxmiIPdSt6vectorIdSaIdEEEENS_17__normal_iteratorIT_T0_E15difference_typeERKS8_SB_ = comdat any

$_ZSt22__uninitialized_move_aIPdS0_SaIdEET0_T_S3_S2_RT1_ = comdat any

$_ZSt13move_backwardIPdS0_ET0_T_S2_S1_ = comdat any

$_ZNK9__gnu_cxx17__normal_iteratorIPdSt6vectorIdSaIdEEE4baseEv = comdat any

$_ZSt4fillIPddEvT_S1_RKT0_ = comdat any

$_ZSt24__uninitialized_fill_n_aIPdmddET_S1_T0_RKT1_RSaIT2_E = comdat any

$_ZNSt6vectorIdSaIdEE16_Temporary_valueD2Ev = comdat any

$_ZNKSt6vectorIdSaIdEE12_M_check_lenEmPKc = comdat any

$_ZNSt6vectorIdSaIdEE5beginEv = comdat any

$_ZNSt12_Vector_baseIdSaIdEE11_M_allocateEm = comdat any

$_ZSt34__uninitialized_move_if_noexcept_aIPdS0_SaIdEET0_T_S3_S2_RT1_ = comdat any

$_ZNSt16allocator_traitsISaIdEE9constructIdJRKdEEEvRS0_PT_DpOT0_ = comdat any

$_ZNSt6vectorIdSaIdEE16_Temporary_value6_M_ptrEv = comdat any

$_ZSt7forwardIRKdEOT_RNSt16remove_referenceIS2_E4typeE = comdat any

$_ZN9__gnu_cxx13new_allocatorIdE9constructIdJRKdEEEvPT_DpOT0_ = comdat any

$_ZSt22__uninitialized_copy_aISt13move_iteratorIPdES1_dET0_T_S4_S3_RSaIT1_E = comdat any

$_ZSt18make_move_iteratorIPdESt13move_iteratorIT_ES2_ = comdat any

$_ZSt18uninitialized_copyISt13move_iteratorIPdES1_ET0_T_S4_S3_ = comdat any

$_ZNSt20__uninitialized_copyILb1EE13__uninit_copyISt13move_iteratorIPdES3_EET0_T_S6_S5_ = comdat any

$_ZSt4copyISt13move_iteratorIPdES1_ET0_T_S4_S3_ = comdat any

$_ZSt14__copy_move_a2ILb1EPdS0_ET1_T0_S2_S1_ = comdat any

$_ZSt12__miter_baseIPdEDTcl12__miter_basecldtfp_4baseEEESt13move_iteratorIT_E = comdat any

$_ZSt12__niter_wrapIPdET_RKS1_S1_ = comdat any

$_ZSt13__copy_move_aILb1EPdS0_ET1_T0_S2_S1_ = comdat any

$_ZSt12__niter_baseIPdET_S1_ = comdat any

$_ZNSt11__copy_moveILb1ELb1ESt26random_access_iterator_tagE8__copy_mIdEEPT_PKS3_S6_S4_ = comdat any

$_ZSt12__miter_baseIPdET_S1_ = comdat any

$_ZNKSt13move_iteratorIPdE4baseEv = comdat any

$_ZNSt13move_iteratorIPdEC2ES0_ = comdat any

$_ZSt23__copy_move_backward_a2ILb1EPdS0_ET1_T0_S2_S1_ = comdat any

$_ZSt22__copy_move_backward_aILb1EPdS0_ET1_T0_S2_S1_ = comdat any

$_ZNSt20__copy_move_backwardILb1ELb1ESt26random_access_iterator_tagE13__copy_move_bIdEEPT_PKS3_S6_S4_ = comdat any

$_ZSt8__fill_aIPddEN9__gnu_cxx11__enable_ifIXsr11__is_scalarIT0_EE7__valueEvE6__typeET_S6_RKS3_ = comdat any

$_ZSt20uninitialized_fill_nIPdmdET_S1_T0_RKT1_ = comdat any

$_ZNSt22__uninitialized_fill_nILb1EE15__uninit_fill_nIPdmdEET_S3_T0_RKT1_ = comdat any

$_ZSt6fill_nIPdmdET_S1_T0_RKT1_ = comdat any

$_ZSt10__fill_n_aIPdmdEN9__gnu_cxx11__enable_ifIXsr11__is_scalarIT1_EE7__valueET_E6__typeES4_T0_RKS3_ = comdat any

$_ZNSt16allocator_traitsISaIdEE7destroyIdEEvRS0_PT_ = comdat any

$_ZN9__gnu_cxx13new_allocatorIdE7destroyIdEEvPT_ = comdat any

$_ZNKSt6vectorIdSaIdEE8max_sizeEv = comdat any

$_ZNSt6vectorIdSaIdEE11_S_max_sizeERKS0_ = comdat any

$_ZNKSt12_Vector_baseIdSaIdEE19_M_get_Tp_allocatorEv = comdat any

$_ZNSt16allocator_traitsISaIdEE8max_sizeERKS0_ = comdat any

$_ZNK9__gnu_cxx13new_allocatorIdE8max_sizeEv = comdat any

$_ZN9__gnu_cxx17__normal_iteratorIPdSt6vectorIdSaIdEEEC2ERKS1_ = comdat any

$_ZNSt16allocator_traitsISaIdEE8allocateERS0_m = comdat any

$_ZN9__gnu_cxx13new_allocatorIdE8allocateEmPKv = comdat any

$_ZSt32__make_move_if_noexcept_iteratorIdSt13move_iteratorIPdEET0_PT_ = comdat any

$_ZNSt6vectorIdSaIdEE17_M_default_appendEm = comdat any

$_ZSt27__uninitialized_default_n_aIPdmdET_S1_T0_RSaIT1_E = comdat any

$_ZNSt6vectorIdSaIdEE11_S_relocateEPdS2_S2_RS0_ = comdat any

$_ZSt25__uninitialized_default_nIPdmET_S1_T0_ = comdat any

$_ZNSt27__uninitialized_default_n_1ILb1EE18__uninit_default_nIPdmEET_S3_T0_ = comdat any

$_ZNSt6vectorIdSaIdEE14_S_do_relocateEPdS2_S2_RS0_St17integral_constantIbLb1EE = comdat any

$_ZSt12__relocate_aIPdS0_SaIdEET0_T_S3_S2_RT1_ = comdat any

$_ZSt14__relocate_a_1IddENSt9enable_ifIXsr3std24__is_bitwise_relocatableIT_EE5valueEPS1_E4typeES2_S2_S2_RSaIT0_E = comdat any

@mesh = dso_local global %struct.Mesh zeroinitializer, align 8
@.str = private unnamed_addr constant [12 x i8] c"element.dat\00", align 1
@.str.1 = private unnamed_addr constant [2 x i8] c"w\00", align 1
@.str.2 = private unnamed_addr constant [5 x i8] c"%f \0A\00", align 1
@.str.3 = private unnamed_addr constant [26 x i8] c"vector::_M_default_append\00", align 1
@.str.4 = private unnamed_addr constant [23 x i8] c"vector::_M_fill_insert\00", align 1
@llvm.global_ctors = appending global [1 x { i32, void ()*, i8* }] [{ i32, void ()*, i8* } { i32 65535, void ()* @_GLOBAL__sub_I_LULESH.cc, i8* null }]

; Function Attrs: noinline uwtable
define internal void @__cxx_global_var_init() #0 section ".text.startup" {
  call void @_ZN4MeshC2Ev(%struct.Mesh* nonnull align 8 dereferenceable(1376) @mesh) #2
  %1 = call i32 @atexit(void ()* @__dtor_mesh) #2
  ret void
}

; Function Attrs: noinline nounwind uwtable
define linkonce_odr dso_local void @_ZN4MeshC2Ev(%struct.Mesh* nonnull align 8 dereferenceable(1376) %0) unnamed_addr #1 comdat align 2 {
  %2 = alloca %struct.Mesh*, align 8
  store %struct.Mesh* %0, %struct.Mesh** %2, align 8
  %3 = load %struct.Mesh*, %struct.Mesh** %2, align 8
  %4 = getelementptr inbounds %struct.Mesh, %struct.Mesh* %3, i32 0, i32 0
  call void @_ZNSt6vectorIdSaIdEEC2Ev(%"class.std::vector"* nonnull align 8 dereferenceable(24) %4) #2
  %5 = getelementptr inbounds %struct.Mesh, %struct.Mesh* %3, i32 0, i32 1
  call void @_ZNSt6vectorIdSaIdEEC2Ev(%"class.std::vector"* nonnull align 8 dereferenceable(24) %5) #2
  %6 = getelementptr inbounds %struct.Mesh, %struct.Mesh* %3, i32 0, i32 2
  call void @_ZNSt6vectorIdSaIdEEC2Ev(%"class.std::vector"* nonnull align 8 dereferenceable(24) %6) #2
  %7 = getelementptr inbounds %struct.Mesh, %struct.Mesh* %3, i32 0, i32 3
  call void @_ZNSt6vectorIdSaIdEEC2Ev(%"class.std::vector"* nonnull align 8 dereferenceable(24) %7) #2
  %8 = getelementptr inbounds %struct.Mesh, %struct.Mesh* %3, i32 0, i32 4
  call void @_ZNSt6vectorIdSaIdEEC2Ev(%"class.std::vector"* nonnull align 8 dereferenceable(24) %8) #2
  %9 = getelementptr inbounds %struct.Mesh, %struct.Mesh* %3, i32 0, i32 5
  call void @_ZNSt6vectorIdSaIdEEC2Ev(%"class.std::vector"* nonnull align 8 dereferenceable(24) %9) #2
  %10 = getelementptr inbounds %struct.Mesh, %struct.Mesh* %3, i32 0, i32 6
  call void @_ZNSt6vectorIdSaIdEEC2Ev(%"class.std::vector"* nonnull align 8 dereferenceable(24) %10) #2
  %11 = getelementptr inbounds %struct.Mesh, %struct.Mesh* %3, i32 0, i32 7
  call void @_ZNSt6vectorIdSaIdEEC2Ev(%"class.std::vector"* nonnull align 8 dereferenceable(24) %11) #2
  %12 = getelementptr inbounds %struct.Mesh, %struct.Mesh* %3, i32 0, i32 8
  call void @_ZNSt6vectorIdSaIdEEC2Ev(%"class.std::vector"* nonnull align 8 dereferenceable(24) %12) #2
  %13 = getelementptr inbounds %struct.Mesh, %struct.Mesh* %3, i32 0, i32 9
  call void @_ZNSt6vectorIdSaIdEEC2Ev(%"class.std::vector"* nonnull align 8 dereferenceable(24) %13) #2
  %14 = getelementptr inbounds %struct.Mesh, %struct.Mesh* %3, i32 0, i32 10
  call void @_ZNSt6vectorIdSaIdEEC2Ev(%"class.std::vector"* nonnull align 8 dereferenceable(24) %14) #2
  %15 = getelementptr inbounds %struct.Mesh, %struct.Mesh* %3, i32 0, i32 11
  call void @_ZNSt6vectorIdSaIdEEC2Ev(%"class.std::vector"* nonnull align 8 dereferenceable(24) %15) #2
  %16 = getelementptr inbounds %struct.Mesh, %struct.Mesh* %3, i32 0, i32 12
  call void @_ZNSt6vectorIdSaIdEEC2Ev(%"class.std::vector"* nonnull align 8 dereferenceable(24) %16) #2
  %17 = getelementptr inbounds %struct.Mesh, %struct.Mesh* %3, i32 0, i32 13
  call void @_ZNSt6vectorIiSaIiEEC2Ev(%"class.std::vector.0"* nonnull align 8 dereferenceable(24) %17) #2
  %18 = getelementptr inbounds %struct.Mesh, %struct.Mesh* %3, i32 0, i32 14
  call void @_ZNSt6vectorIiSaIiEEC2Ev(%"class.std::vector.0"* nonnull align 8 dereferenceable(24) %18) #2
  %19 = getelementptr inbounds %struct.Mesh, %struct.Mesh* %3, i32 0, i32 15
  call void @_ZNSt6vectorIiSaIiEEC2Ev(%"class.std::vector.0"* nonnull align 8 dereferenceable(24) %19) #2
  %20 = getelementptr inbounds %struct.Mesh, %struct.Mesh* %3, i32 0, i32 16
  call void @_ZNSt6vectorIiSaIiEEC2Ev(%"class.std::vector.0"* nonnull align 8 dereferenceable(24) %20) #2
  %21 = getelementptr inbounds %struct.Mesh, %struct.Mesh* %3, i32 0, i32 17
  call void @_ZNSt6vectorIiSaIiEEC2Ev(%"class.std::vector.0"* nonnull align 8 dereferenceable(24) %21) #2
  %22 = getelementptr inbounds %struct.Mesh, %struct.Mesh* %3, i32 0, i32 18
  call void @_ZNSt6vectorIiSaIiEEC2Ev(%"class.std::vector.0"* nonnull align 8 dereferenceable(24) %22) #2
  %23 = getelementptr inbounds %struct.Mesh, %struct.Mesh* %3, i32 0, i32 19
  call void @_ZNSt6vectorIiSaIiEEC2Ev(%"class.std::vector.0"* nonnull align 8 dereferenceable(24) %23) #2
  %24 = getelementptr inbounds %struct.Mesh, %struct.Mesh* %3, i32 0, i32 20
  call void @_ZNSt6vectorIiSaIiEEC2Ev(%"class.std::vector.0"* nonnull align 8 dereferenceable(24) %24) #2
  %25 = getelementptr inbounds %struct.Mesh, %struct.Mesh* %3, i32 0, i32 21
  call void @_ZNSt6vectorIiSaIiEEC2Ev(%"class.std::vector.0"* nonnull align 8 dereferenceable(24) %25) #2
  %26 = getelementptr inbounds %struct.Mesh, %struct.Mesh* %3, i32 0, i32 22
  call void @_ZNSt6vectorIiSaIiEEC2Ev(%"class.std::vector.0"* nonnull align 8 dereferenceable(24) %26) #2
  %27 = getelementptr inbounds %struct.Mesh, %struct.Mesh* %3, i32 0, i32 23
  call void @_ZNSt6vectorIiSaIiEEC2Ev(%"class.std::vector.0"* nonnull align 8 dereferenceable(24) %27) #2
  %28 = getelementptr inbounds %struct.Mesh, %struct.Mesh* %3, i32 0, i32 24
  call void @_ZNSt6vectorIiSaIiEEC2Ev(%"class.std::vector.0"* nonnull align 8 dereferenceable(24) %28) #2
  %29 = getelementptr inbounds %struct.Mesh, %struct.Mesh* %3, i32 0, i32 25
  call void @_ZNSt6vectorIdSaIdEEC2Ev(%"class.std::vector"* nonnull align 8 dereferenceable(24) %29) #2
  %30 = getelementptr inbounds %struct.Mesh, %struct.Mesh* %3, i32 0, i32 26
  call void @_ZNSt6vectorIdSaIdEEC2Ev(%"class.std::vector"* nonnull align 8 dereferenceable(24) %30) #2
  %31 = getelementptr inbounds %struct.Mesh, %struct.Mesh* %3, i32 0, i32 27
  call void @_ZNSt6vectorIdSaIdEEC2Ev(%"class.std::vector"* nonnull align 8 dereferenceable(24) %31) #2
  %32 = getelementptr inbounds %struct.Mesh, %struct.Mesh* %3, i32 0, i32 28
  call void @_ZNSt6vectorIdSaIdEEC2Ev(%"class.std::vector"* nonnull align 8 dereferenceable(24) %32) #2
  %33 = getelementptr inbounds %struct.Mesh, %struct.Mesh* %3, i32 0, i32 29
  call void @_ZNSt6vectorIdSaIdEEC2Ev(%"class.std::vector"* nonnull align 8 dereferenceable(24) %33) #2
  %34 = getelementptr inbounds %struct.Mesh, %struct.Mesh* %3, i32 0, i32 30
  call void @_ZNSt6vectorIdSaIdEEC2Ev(%"class.std::vector"* nonnull align 8 dereferenceable(24) %34) #2
  %35 = getelementptr inbounds %struct.Mesh, %struct.Mesh* %3, i32 0, i32 31
  call void @_ZNSt6vectorIdSaIdEEC2Ev(%"class.std::vector"* nonnull align 8 dereferenceable(24) %35) #2
  %36 = getelementptr inbounds %struct.Mesh, %struct.Mesh* %3, i32 0, i32 32
  call void @_ZNSt6vectorIdSaIdEEC2Ev(%"class.std::vector"* nonnull align 8 dereferenceable(24) %36) #2
  %37 = getelementptr inbounds %struct.Mesh, %struct.Mesh* %3, i32 0, i32 33
  call void @_ZNSt6vectorIdSaIdEEC2Ev(%"class.std::vector"* nonnull align 8 dereferenceable(24) %37) #2
  %38 = getelementptr inbounds %struct.Mesh, %struct.Mesh* %3, i32 0, i32 34
  call void @_ZNSt6vectorIdSaIdEEC2Ev(%"class.std::vector"* nonnull align 8 dereferenceable(24) %38) #2
  %39 = getelementptr inbounds %struct.Mesh, %struct.Mesh* %3, i32 0, i32 35
  call void @_ZNSt6vectorIdSaIdEEC2Ev(%"class.std::vector"* nonnull align 8 dereferenceable(24) %39) #2
  %40 = getelementptr inbounds %struct.Mesh, %struct.Mesh* %3, i32 0, i32 36
  call void @_ZNSt6vectorIdSaIdEEC2Ev(%"class.std::vector"* nonnull align 8 dereferenceable(24) %40) #2
  %41 = getelementptr inbounds %struct.Mesh, %struct.Mesh* %3, i32 0, i32 37
  call void @_ZNSt6vectorIdSaIdEEC2Ev(%"class.std::vector"* nonnull align 8 dereferenceable(24) %41) #2
  %42 = getelementptr inbounds %struct.Mesh, %struct.Mesh* %3, i32 0, i32 38
  call void @_ZNSt6vectorIdSaIdEEC2Ev(%"class.std::vector"* nonnull align 8 dereferenceable(24) %42) #2
  %43 = getelementptr inbounds %struct.Mesh, %struct.Mesh* %3, i32 0, i32 39
  call void @_ZNSt6vectorIdSaIdEEC2Ev(%"class.std::vector"* nonnull align 8 dereferenceable(24) %43) #2
  %44 = getelementptr inbounds %struct.Mesh, %struct.Mesh* %3, i32 0, i32 40
  call void @_ZNSt6vectorIdSaIdEEC2Ev(%"class.std::vector"* nonnull align 8 dereferenceable(24) %44) #2
  %45 = getelementptr inbounds %struct.Mesh, %struct.Mesh* %3, i32 0, i32 41
  call void @_ZNSt6vectorIdSaIdEEC2Ev(%"class.std::vector"* nonnull align 8 dereferenceable(24) %45) #2
  %46 = getelementptr inbounds %struct.Mesh, %struct.Mesh* %3, i32 0, i32 42
  call void @_ZNSt6vectorIdSaIdEEC2Ev(%"class.std::vector"* nonnull align 8 dereferenceable(24) %46) #2
  %47 = getelementptr inbounds %struct.Mesh, %struct.Mesh* %3, i32 0, i32 43
  call void @_ZNSt6vectorIdSaIdEEC2Ev(%"class.std::vector"* nonnull align 8 dereferenceable(24) %47) #2
  %48 = getelementptr inbounds %struct.Mesh, %struct.Mesh* %3, i32 0, i32 44
  call void @_ZNSt6vectorIdSaIdEEC2Ev(%"class.std::vector"* nonnull align 8 dereferenceable(24) %48) #2
  %49 = getelementptr inbounds %struct.Mesh, %struct.Mesh* %3, i32 0, i32 45
  call void @_ZNSt6vectorIdSaIdEEC2Ev(%"class.std::vector"* nonnull align 8 dereferenceable(24) %49) #2
  %50 = getelementptr inbounds %struct.Mesh, %struct.Mesh* %3, i32 0, i32 46
  call void @_ZNSt6vectorIdSaIdEEC2Ev(%"class.std::vector"* nonnull align 8 dereferenceable(24) %50) #2
  ret void
}

; Function Attrs: noinline nounwind uwtable
define linkonce_odr dso_local void @_ZN4MeshD2Ev(%struct.Mesh* nonnull align 8 dereferenceable(1376) %0) unnamed_addr #1 comdat align 2 {
  %2 = alloca %struct.Mesh*, align 8
  store %struct.Mesh* %0, %struct.Mesh** %2, align 8
  %3 = load %struct.Mesh*, %struct.Mesh** %2, align 8
  %4 = getelementptr inbounds %struct.Mesh, %struct.Mesh* %3, i32 0, i32 46
  call void @_ZNSt6vectorIdSaIdEED2Ev(%"class.std::vector"* nonnull align 8 dereferenceable(24) %4) #2
  %5 = getelementptr inbounds %struct.Mesh, %struct.Mesh* %3, i32 0, i32 45
  call void @_ZNSt6vectorIdSaIdEED2Ev(%"class.std::vector"* nonnull align 8 dereferenceable(24) %5) #2
  %6 = getelementptr inbounds %struct.Mesh, %struct.Mesh* %3, i32 0, i32 44
  call void @_ZNSt6vectorIdSaIdEED2Ev(%"class.std::vector"* nonnull align 8 dereferenceable(24) %6) #2
  %7 = getelementptr inbounds %struct.Mesh, %struct.Mesh* %3, i32 0, i32 43
  call void @_ZNSt6vectorIdSaIdEED2Ev(%"class.std::vector"* nonnull align 8 dereferenceable(24) %7) #2
  %8 = getelementptr inbounds %struct.Mesh, %struct.Mesh* %3, i32 0, i32 42
  call void @_ZNSt6vectorIdSaIdEED2Ev(%"class.std::vector"* nonnull align 8 dereferenceable(24) %8) #2
  %9 = getelementptr inbounds %struct.Mesh, %struct.Mesh* %3, i32 0, i32 41
  call void @_ZNSt6vectorIdSaIdEED2Ev(%"class.std::vector"* nonnull align 8 dereferenceable(24) %9) #2
  %10 = getelementptr inbounds %struct.Mesh, %struct.Mesh* %3, i32 0, i32 40
  call void @_ZNSt6vectorIdSaIdEED2Ev(%"class.std::vector"* nonnull align 8 dereferenceable(24) %10) #2
  %11 = getelementptr inbounds %struct.Mesh, %struct.Mesh* %3, i32 0, i32 39
  call void @_ZNSt6vectorIdSaIdEED2Ev(%"class.std::vector"* nonnull align 8 dereferenceable(24) %11) #2
  %12 = getelementptr inbounds %struct.Mesh, %struct.Mesh* %3, i32 0, i32 38
  call void @_ZNSt6vectorIdSaIdEED2Ev(%"class.std::vector"* nonnull align 8 dereferenceable(24) %12) #2
  %13 = getelementptr inbounds %struct.Mesh, %struct.Mesh* %3, i32 0, i32 37
  call void @_ZNSt6vectorIdSaIdEED2Ev(%"class.std::vector"* nonnull align 8 dereferenceable(24) %13) #2
  %14 = getelementptr inbounds %struct.Mesh, %struct.Mesh* %3, i32 0, i32 36
  call void @_ZNSt6vectorIdSaIdEED2Ev(%"class.std::vector"* nonnull align 8 dereferenceable(24) %14) #2
  %15 = getelementptr inbounds %struct.Mesh, %struct.Mesh* %3, i32 0, i32 35
  call void @_ZNSt6vectorIdSaIdEED2Ev(%"class.std::vector"* nonnull align 8 dereferenceable(24) %15) #2
  %16 = getelementptr inbounds %struct.Mesh, %struct.Mesh* %3, i32 0, i32 34
  call void @_ZNSt6vectorIdSaIdEED2Ev(%"class.std::vector"* nonnull align 8 dereferenceable(24) %16) #2
  %17 = getelementptr inbounds %struct.Mesh, %struct.Mesh* %3, i32 0, i32 33
  call void @_ZNSt6vectorIdSaIdEED2Ev(%"class.std::vector"* nonnull align 8 dereferenceable(24) %17) #2
  %18 = getelementptr inbounds %struct.Mesh, %struct.Mesh* %3, i32 0, i32 32
  call void @_ZNSt6vectorIdSaIdEED2Ev(%"class.std::vector"* nonnull align 8 dereferenceable(24) %18) #2
  %19 = getelementptr inbounds %struct.Mesh, %struct.Mesh* %3, i32 0, i32 31
  call void @_ZNSt6vectorIdSaIdEED2Ev(%"class.std::vector"* nonnull align 8 dereferenceable(24) %19) #2
  %20 = getelementptr inbounds %struct.Mesh, %struct.Mesh* %3, i32 0, i32 30
  call void @_ZNSt6vectorIdSaIdEED2Ev(%"class.std::vector"* nonnull align 8 dereferenceable(24) %20) #2
  %21 = getelementptr inbounds %struct.Mesh, %struct.Mesh* %3, i32 0, i32 29
  call void @_ZNSt6vectorIdSaIdEED2Ev(%"class.std::vector"* nonnull align 8 dereferenceable(24) %21) #2
  %22 = getelementptr inbounds %struct.Mesh, %struct.Mesh* %3, i32 0, i32 28
  call void @_ZNSt6vectorIdSaIdEED2Ev(%"class.std::vector"* nonnull align 8 dereferenceable(24) %22) #2
  %23 = getelementptr inbounds %struct.Mesh, %struct.Mesh* %3, i32 0, i32 27
  call void @_ZNSt6vectorIdSaIdEED2Ev(%"class.std::vector"* nonnull align 8 dereferenceable(24) %23) #2
  %24 = getelementptr inbounds %struct.Mesh, %struct.Mesh* %3, i32 0, i32 26
  call void @_ZNSt6vectorIdSaIdEED2Ev(%"class.std::vector"* nonnull align 8 dereferenceable(24) %24) #2
  %25 = getelementptr inbounds %struct.Mesh, %struct.Mesh* %3, i32 0, i32 25
  call void @_ZNSt6vectorIdSaIdEED2Ev(%"class.std::vector"* nonnull align 8 dereferenceable(24) %25) #2
  %26 = getelementptr inbounds %struct.Mesh, %struct.Mesh* %3, i32 0, i32 24
  call void @_ZNSt6vectorIiSaIiEED2Ev(%"class.std::vector.0"* nonnull align 8 dereferenceable(24) %26) #2
  %27 = getelementptr inbounds %struct.Mesh, %struct.Mesh* %3, i32 0, i32 23
  call void @_ZNSt6vectorIiSaIiEED2Ev(%"class.std::vector.0"* nonnull align 8 dereferenceable(24) %27) #2
  %28 = getelementptr inbounds %struct.Mesh, %struct.Mesh* %3, i32 0, i32 22
  call void @_ZNSt6vectorIiSaIiEED2Ev(%"class.std::vector.0"* nonnull align 8 dereferenceable(24) %28) #2
  %29 = getelementptr inbounds %struct.Mesh, %struct.Mesh* %3, i32 0, i32 21
  call void @_ZNSt6vectorIiSaIiEED2Ev(%"class.std::vector.0"* nonnull align 8 dereferenceable(24) %29) #2
  %30 = getelementptr inbounds %struct.Mesh, %struct.Mesh* %3, i32 0, i32 20
  call void @_ZNSt6vectorIiSaIiEED2Ev(%"class.std::vector.0"* nonnull align 8 dereferenceable(24) %30) #2
  %31 = getelementptr inbounds %struct.Mesh, %struct.Mesh* %3, i32 0, i32 19
  call void @_ZNSt6vectorIiSaIiEED2Ev(%"class.std::vector.0"* nonnull align 8 dereferenceable(24) %31) #2
  %32 = getelementptr inbounds %struct.Mesh, %struct.Mesh* %3, i32 0, i32 18
  call void @_ZNSt6vectorIiSaIiEED2Ev(%"class.std::vector.0"* nonnull align 8 dereferenceable(24) %32) #2
  %33 = getelementptr inbounds %struct.Mesh, %struct.Mesh* %3, i32 0, i32 17
  call void @_ZNSt6vectorIiSaIiEED2Ev(%"class.std::vector.0"* nonnull align 8 dereferenceable(24) %33) #2
  %34 = getelementptr inbounds %struct.Mesh, %struct.Mesh* %3, i32 0, i32 16
  call void @_ZNSt6vectorIiSaIiEED2Ev(%"class.std::vector.0"* nonnull align 8 dereferenceable(24) %34) #2
  %35 = getelementptr inbounds %struct.Mesh, %struct.Mesh* %3, i32 0, i32 15
  call void @_ZNSt6vectorIiSaIiEED2Ev(%"class.std::vector.0"* nonnull align 8 dereferenceable(24) %35) #2
  %36 = getelementptr inbounds %struct.Mesh, %struct.Mesh* %3, i32 0, i32 14
  call void @_ZNSt6vectorIiSaIiEED2Ev(%"class.std::vector.0"* nonnull align 8 dereferenceable(24) %36) #2
  %37 = getelementptr inbounds %struct.Mesh, %struct.Mesh* %3, i32 0, i32 13
  call void @_ZNSt6vectorIiSaIiEED2Ev(%"class.std::vector.0"* nonnull align 8 dereferenceable(24) %37) #2
  %38 = getelementptr inbounds %struct.Mesh, %struct.Mesh* %3, i32 0, i32 12
  call void @_ZNSt6vectorIdSaIdEED2Ev(%"class.std::vector"* nonnull align 8 dereferenceable(24) %38) #2
  %39 = getelementptr inbounds %struct.Mesh, %struct.Mesh* %3, i32 0, i32 11
  call void @_ZNSt6vectorIdSaIdEED2Ev(%"class.std::vector"* nonnull align 8 dereferenceable(24) %39) #2
  %40 = getelementptr inbounds %struct.Mesh, %struct.Mesh* %3, i32 0, i32 10
  call void @_ZNSt6vectorIdSaIdEED2Ev(%"class.std::vector"* nonnull align 8 dereferenceable(24) %40) #2
  %41 = getelementptr inbounds %struct.Mesh, %struct.Mesh* %3, i32 0, i32 9
  call void @_ZNSt6vectorIdSaIdEED2Ev(%"class.std::vector"* nonnull align 8 dereferenceable(24) %41) #2
  %42 = getelementptr inbounds %struct.Mesh, %struct.Mesh* %3, i32 0, i32 8
  call void @_ZNSt6vectorIdSaIdEED2Ev(%"class.std::vector"* nonnull align 8 dereferenceable(24) %42) #2
  %43 = getelementptr inbounds %struct.Mesh, %struct.Mesh* %3, i32 0, i32 7
  call void @_ZNSt6vectorIdSaIdEED2Ev(%"class.std::vector"* nonnull align 8 dereferenceable(24) %43) #2
  %44 = getelementptr inbounds %struct.Mesh, %struct.Mesh* %3, i32 0, i32 6
  call void @_ZNSt6vectorIdSaIdEED2Ev(%"class.std::vector"* nonnull align 8 dereferenceable(24) %44) #2
  %45 = getelementptr inbounds %struct.Mesh, %struct.Mesh* %3, i32 0, i32 5
  call void @_ZNSt6vectorIdSaIdEED2Ev(%"class.std::vector"* nonnull align 8 dereferenceable(24) %45) #2
  %46 = getelementptr inbounds %struct.Mesh, %struct.Mesh* %3, i32 0, i32 4
  call void @_ZNSt6vectorIdSaIdEED2Ev(%"class.std::vector"* nonnull align 8 dereferenceable(24) %46) #2
  %47 = getelementptr inbounds %struct.Mesh, %struct.Mesh* %3, i32 0, i32 3
  call void @_ZNSt6vectorIdSaIdEED2Ev(%"class.std::vector"* nonnull align 8 dereferenceable(24) %47) #2
  %48 = getelementptr inbounds %struct.Mesh, %struct.Mesh* %3, i32 0, i32 2
  call void @_ZNSt6vectorIdSaIdEED2Ev(%"class.std::vector"* nonnull align 8 dereferenceable(24) %48) #2
  %49 = getelementptr inbounds %struct.Mesh, %struct.Mesh* %3, i32 0, i32 1
  call void @_ZNSt6vectorIdSaIdEED2Ev(%"class.std::vector"* nonnull align 8 dereferenceable(24) %49) #2
  %50 = getelementptr inbounds %struct.Mesh, %struct.Mesh* %3, i32 0, i32 0
  call void @_ZNSt6vectorIdSaIdEED2Ev(%"class.std::vector"* nonnull align 8 dereferenceable(24) %50) #2
  ret void
}

; Function Attrs: noinline uwtable
define internal void @__dtor_mesh() #0 section ".text.startup" {
  call void @_ZN4MeshD2Ev(%struct.Mesh* @mesh)
  ret void
}

; Function Attrs: nounwind
declare dso_local i32 @atexit(void ()*) #2

; Function Attrs: mustprogress noinline uwtable
define dso_local void @_Z13TimeIncrementv() #3 {
  %1 = alloca double, align 8
  %2 = alloca double, align 8
  %3 = alloca double, align 8
  %4 = alloca double, align 8
  %5 = call nonnull align 8 dereferenceable(8) double* @_ZN4Mesh8stoptimeEv(%struct.Mesh* nonnull align 8 dereferenceable(1376) @mesh)
  %6 = load double, double* %5, align 8
  %7 = call nonnull align 8 dereferenceable(8) double* @_ZN4Mesh4timeEv(%struct.Mesh* nonnull align 8 dereferenceable(1376) @mesh)
  %8 = load double, double* %7, align 8
  %9 = fsub double %6, %8
  store double %9, double* %1, align 8
  %10 = call nonnull align 8 dereferenceable(8) double* @_ZN4Mesh7dtfixedEv(%struct.Mesh* nonnull align 8 dereferenceable(1376) @mesh)
  %11 = load double, double* %10, align 8
  %12 = fcmp ole double %11, 0.000000e+00
  br i1 %12, label %13, label %74

13:                                               ; preds = %0
  %14 = call nonnull align 4 dereferenceable(4) i32* @_ZN4Mesh5cycleEv(%struct.Mesh* nonnull align 8 dereferenceable(1376) @mesh)
  %15 = load i32, i32* %14, align 4
  %16 = icmp ne i32 %15, 0
  br i1 %16, label %17, label %74

17:                                               ; preds = %13
  %18 = call nonnull align 8 dereferenceable(8) double* @_ZN4Mesh9deltatimeEv(%struct.Mesh* nonnull align 8 dereferenceable(1376) @mesh)
  %19 = load double, double* %18, align 8
  store double %19, double* %3, align 8
  store double 1.000000e+20, double* %4, align 8
  %20 = call nonnull align 8 dereferenceable(8) double* @_ZN4Mesh9dtcourantEv(%struct.Mesh* nonnull align 8 dereferenceable(1376) @mesh)
  %21 = load double, double* %20, align 8
  %22 = load double, double* %4, align 8
  %23 = fcmp olt double %21, %22
  br i1 %23, label %24, label %28

24:                                               ; preds = %17
  %25 = call nonnull align 8 dereferenceable(8) double* @_ZN4Mesh9dtcourantEv(%struct.Mesh* nonnull align 8 dereferenceable(1376) @mesh)
  %26 = load double, double* %25, align 8
  %27 = fdiv double %26, 2.000000e+00
  store double %27, double* %4, align 8
  br label %28

28:                                               ; preds = %24, %17
  %29 = call nonnull align 8 dereferenceable(8) double* @_ZN4Mesh7dthydroEv(%struct.Mesh* nonnull align 8 dereferenceable(1376) @mesh)
  %30 = load double, double* %29, align 8
  %31 = load double, double* %4, align 8
  %32 = fcmp olt double %30, %31
  br i1 %32, label %33, label %38

33:                                               ; preds = %28
  %34 = call nonnull align 8 dereferenceable(8) double* @_ZN4Mesh7dthydroEv(%struct.Mesh* nonnull align 8 dereferenceable(1376) @mesh)
  %35 = load double, double* %34, align 8
  %36 = fmul double %35, 2.000000e+00
  %37 = fdiv double %36, 3.000000e+00
  store double %37, double* %4, align 8
  br label %38

38:                                               ; preds = %33, %28
  %39 = load double, double* %4, align 8
  %40 = load double, double* %3, align 8
  %41 = fdiv double %39, %40
  store double %41, double* %2, align 8
  %42 = load double, double* %2, align 8
  %43 = fcmp oge double %42, 1.000000e+00
  br i1 %43, label %44, label %63

44:                                               ; preds = %38
  %45 = load double, double* %2, align 8
  %46 = call nonnull align 8 dereferenceable(8) double* @_ZN4Mesh15deltatimemultlbEv(%struct.Mesh* nonnull align 8 dereferenceable(1376) @mesh)
  %47 = load double, double* %46, align 8
  %48 = fcmp olt double %45, %47
  br i1 %48, label %49, label %51

49:                                               ; preds = %44
  %50 = load double, double* %3, align 8
  store double %50, double* %4, align 8
  br label %62

51:                                               ; preds = %44
  %52 = load double, double* %2, align 8
  %53 = call nonnull align 8 dereferenceable(8) double* @_ZN4Mesh15deltatimemultubEv(%struct.Mesh* nonnull align 8 dereferenceable(1376) @mesh)
  %54 = load double, double* %53, align 8
  %55 = fcmp ogt double %52, %54
  br i1 %55, label %56, label %61

56:                                               ; preds = %51
  %57 = load double, double* %3, align 8
  %58 = call nonnull align 8 dereferenceable(8) double* @_ZN4Mesh15deltatimemultubEv(%struct.Mesh* nonnull align 8 dereferenceable(1376) @mesh)
  %59 = load double, double* %58, align 8
  %60 = fmul double %57, %59
  store double %60, double* %4, align 8
  br label %61

61:                                               ; preds = %56, %51
  br label %62

62:                                               ; preds = %61, %49
  br label %63

63:                                               ; preds = %62, %38
  %64 = load double, double* %4, align 8
  %65 = call nonnull align 8 dereferenceable(8) double* @_ZN4Mesh5dtmaxEv(%struct.Mesh* nonnull align 8 dereferenceable(1376) @mesh)
  %66 = load double, double* %65, align 8
  %67 = fcmp ogt double %64, %66
  br i1 %67, label %68, label %71

68:                                               ; preds = %63
  %69 = call nonnull align 8 dereferenceable(8) double* @_ZN4Mesh5dtmaxEv(%struct.Mesh* nonnull align 8 dereferenceable(1376) @mesh)
  %70 = load double, double* %69, align 8
  store double %70, double* %4, align 8
  br label %71

71:                                               ; preds = %68, %63
  %72 = load double, double* %4, align 8
  %73 = call nonnull align 8 dereferenceable(8) double* @_ZN4Mesh9deltatimeEv(%struct.Mesh* nonnull align 8 dereferenceable(1376) @mesh)
  store double %72, double* %73, align 8
  br label %74

74:                                               ; preds = %71, %13, %0
  %75 = load double, double* %1, align 8
  %76 = call nonnull align 8 dereferenceable(8) double* @_ZN4Mesh9deltatimeEv(%struct.Mesh* nonnull align 8 dereferenceable(1376) @mesh)
  %77 = load double, double* %76, align 8
  %78 = fcmp ogt double %75, %77
  br i1 %78, label %79, label %91

79:                                               ; preds = %74
  %80 = load double, double* %1, align 8
  %81 = call nonnull align 8 dereferenceable(8) double* @_ZN4Mesh9deltatimeEv(%struct.Mesh* nonnull align 8 dereferenceable(1376) @mesh)
  %82 = load double, double* %81, align 8
  %83 = fmul double 4.000000e+00, %82
  %84 = fdiv double %83, 3.000000e+00
  %85 = fcmp olt double %80, %84
  br i1 %85, label %86, label %91

86:                                               ; preds = %79
  %87 = call nonnull align 8 dereferenceable(8) double* @_ZN4Mesh9deltatimeEv(%struct.Mesh* nonnull align 8 dereferenceable(1376) @mesh)
  %88 = load double, double* %87, align 8
  %89 = fmul double 2.000000e+00, %88
  %90 = fdiv double %89, 3.000000e+00
  store double %90, double* %1, align 8
  br label %91

91:                                               ; preds = %86, %79, %74
  %92 = load double, double* %1, align 8
  %93 = call nonnull align 8 dereferenceable(8) double* @_ZN4Mesh9deltatimeEv(%struct.Mesh* nonnull align 8 dereferenceable(1376) @mesh)
  %94 = load double, double* %93, align 8
  %95 = fcmp olt double %92, %94
  br i1 %95, label %96, label %99

96:                                               ; preds = %91
  %97 = load double, double* %1, align 8
  %98 = call nonnull align 8 dereferenceable(8) double* @_ZN4Mesh9deltatimeEv(%struct.Mesh* nonnull align 8 dereferenceable(1376) @mesh)
  store double %97, double* %98, align 8
  br label %99

99:                                               ; preds = %96, %91
  %100 = call nonnull align 8 dereferenceable(8) double* @_ZN4Mesh9deltatimeEv(%struct.Mesh* nonnull align 8 dereferenceable(1376) @mesh)
  %101 = load double, double* %100, align 8
  %102 = call nonnull align 8 dereferenceable(8) double* @_ZN4Mesh4timeEv(%struct.Mesh* nonnull align 8 dereferenceable(1376) @mesh)
  %103 = load double, double* %102, align 8
  %104 = fadd double %103, %101
  store double %104, double* %102, align 8
  %105 = call nonnull align 4 dereferenceable(4) i32* @_ZN4Mesh5cycleEv(%struct.Mesh* nonnull align 8 dereferenceable(1376) @mesh)
  %106 = load i32, i32* %105, align 4
  %107 = add nsw i32 %106, 1
  store i32 %107, i32* %105, align 4
  ret void
}

; Function Attrs: mustprogress noinline nounwind uwtable
define linkonce_odr dso_local nonnull align 8 dereferenceable(8) double* @_ZN4Mesh8stoptimeEv(%struct.Mesh* nonnull align 8 dereferenceable(1376) %0) #4 comdat align 2 {
  %2 = alloca %struct.Mesh*, align 8
  store %struct.Mesh* %0, %struct.Mesh** %2, align 8
  %3 = load %struct.Mesh*, %struct.Mesh** %2, align 8
  %4 = getelementptr inbounds %struct.Mesh, %struct.Mesh* %3, i32 0, i32 52
  ret double* %4
}

; Function Attrs: mustprogress noinline nounwind uwtable
define linkonce_odr dso_local nonnull align 8 dereferenceable(8) double* @_ZN4Mesh4timeEv(%struct.Mesh* nonnull align 8 dereferenceable(1376) %0) #4 comdat align 2 {
  %2 = alloca %struct.Mesh*, align 8
  store %struct.Mesh* %0, %struct.Mesh** %2, align 8
  %3 = load %struct.Mesh*, %struct.Mesh** %2, align 8
  %4 = getelementptr inbounds %struct.Mesh, %struct.Mesh* %3, i32 0, i32 48
  ret double* %4
}

; Function Attrs: mustprogress noinline nounwind uwtable
define linkonce_odr dso_local nonnull align 8 dereferenceable(8) double* @_ZN4Mesh7dtfixedEv(%struct.Mesh* nonnull align 8 dereferenceable(1376) %0) #4 comdat align 2 {
  %2 = alloca %struct.Mesh*, align 8
  store %struct.Mesh* %0, %struct.Mesh** %2, align 8
  %3 = load %struct.Mesh*, %struct.Mesh** %2, align 8
  %4 = getelementptr inbounds %struct.Mesh, %struct.Mesh* %3, i32 0, i32 47
  ret double* %4
}

; Function Attrs: mustprogress noinline nounwind uwtable
define linkonce_odr dso_local nonnull align 4 dereferenceable(4) i32* @_ZN4Mesh5cycleEv(%struct.Mesh* nonnull align 8 dereferenceable(1376) %0) #4 comdat align 2 {
  %2 = alloca %struct.Mesh*, align 8
  store %struct.Mesh* %0, %struct.Mesh** %2, align 8
  %3 = load %struct.Mesh*, %struct.Mesh** %2, align 8
  %4 = getelementptr inbounds %struct.Mesh, %struct.Mesh* %3, i32 0, i32 75
  ret i32* %4
}

; Function Attrs: mustprogress noinline nounwind uwtable
define linkonce_odr dso_local nonnull align 8 dereferenceable(8) double* @_ZN4Mesh9deltatimeEv(%struct.Mesh* nonnull align 8 dereferenceable(1376) %0) #4 comdat align 2 {
  %2 = alloca %struct.Mesh*, align 8
  store %struct.Mesh* %0, %struct.Mesh** %2, align 8
  %3 = load %struct.Mesh*, %struct.Mesh** %2, align 8
  %4 = getelementptr inbounds %struct.Mesh, %struct.Mesh* %3, i32 0, i32 49
  ret double* %4
}

; Function Attrs: mustprogress noinline nounwind uwtable
define linkonce_odr dso_local nonnull align 8 dereferenceable(8) double* @_ZN4Mesh9dtcourantEv(%struct.Mesh* nonnull align 8 dereferenceable(1376) %0) #4 comdat align 2 {
  %2 = alloca %struct.Mesh*, align 8
  store %struct.Mesh* %0, %struct.Mesh** %2, align 8
  %3 = load %struct.Mesh*, %struct.Mesh** %2, align 8
  %4 = getelementptr inbounds %struct.Mesh, %struct.Mesh* %3, i32 0, i32 72
  ret double* %4
}

; Function Attrs: mustprogress noinline nounwind uwtable
define linkonce_odr dso_local nonnull align 8 dereferenceable(8) double* @_ZN4Mesh7dthydroEv(%struct.Mesh* nonnull align 8 dereferenceable(1376) %0) #4 comdat align 2 {
  %2 = alloca %struct.Mesh*, align 8
  store %struct.Mesh* %0, %struct.Mesh** %2, align 8
  %3 = load %struct.Mesh*, %struct.Mesh** %2, align 8
  %4 = getelementptr inbounds %struct.Mesh, %struct.Mesh* %3, i32 0, i32 73
  ret double* %4
}

; Function Attrs: mustprogress noinline nounwind uwtable
define linkonce_odr dso_local nonnull align 8 dereferenceable(8) double* @_ZN4Mesh15deltatimemultlbEv(%struct.Mesh* nonnull align 8 dereferenceable(1376) %0) #4 comdat align 2 {
  %2 = alloca %struct.Mesh*, align 8
  store %struct.Mesh* %0, %struct.Mesh** %2, align 8
  %3 = load %struct.Mesh*, %struct.Mesh** %2, align 8
  %4 = getelementptr inbounds %struct.Mesh, %struct.Mesh* %3, i32 0, i32 50
  ret double* %4
}

; Function Attrs: mustprogress noinline nounwind uwtable
define linkonce_odr dso_local nonnull align 8 dereferenceable(8) double* @_ZN4Mesh15deltatimemultubEv(%struct.Mesh* nonnull align 8 dereferenceable(1376) %0) #4 comdat align 2 {
  %2 = alloca %struct.Mesh*, align 8
  store %struct.Mesh* %0, %struct.Mesh** %2, align 8
  %3 = load %struct.Mesh*, %struct.Mesh** %2, align 8
  %4 = getelementptr inbounds %struct.Mesh, %struct.Mesh* %3, i32 0, i32 51
  ret double* %4
}

; Function Attrs: mustprogress noinline nounwind uwtable
define linkonce_odr dso_local nonnull align 8 dereferenceable(8) double* @_ZN4Mesh5dtmaxEv(%struct.Mesh* nonnull align 8 dereferenceable(1376) %0) #4 comdat align 2 {
  %2 = alloca %struct.Mesh*, align 8
  store %struct.Mesh* %0, %struct.Mesh** %2, align 8
  %3 = load %struct.Mesh*, %struct.Mesh** %2, align 8
  %4 = getelementptr inbounds %struct.Mesh, %struct.Mesh* %3, i32 0, i32 74
  ret double* %4
}

; Function Attrs: mustprogress noinline uwtable
define dso_local void @_Z23InitStressTermsForElemsiPdS_S_(i32 %0, double* %1, double* %2, double* %3) #3 {
  %5 = alloca i32, align 4
  %6 = alloca double*, align 8
  %7 = alloca double*, align 8
  %8 = alloca double*, align 8
  %9 = alloca i32, align 4
  store i32 %0, i32* %5, align 4
  store double* %1, double** %6, align 8
  store double* %2, double** %7, align 8
  store double* %3, double** %8, align 8
  store i32 0, i32* %9, align 4
  br label %10

10:                                               ; preds = %35, %4
  %11 = load i32, i32* %9, align 4
  %12 = load i32, i32* %5, align 4
  %13 = icmp slt i32 %11, %12
  br i1 %13, label %14, label %38

14:                                               ; preds = %10
  %15 = load i32, i32* %9, align 4
  %16 = call nonnull align 8 dereferenceable(8) double* @_ZN4Mesh1pEi(%struct.Mesh* nonnull align 8 dereferenceable(1376) @mesh, i32 %15)
  %17 = load double, double* %16, align 8
  %18 = fneg double %17
  %19 = load i32, i32* %9, align 4
  %20 = call nonnull align 8 dereferenceable(8) double* @_ZN4Mesh1qEi(%struct.Mesh* nonnull align 8 dereferenceable(1376) @mesh, i32 %19)
  %21 = load double, double* %20, align 8
  %22 = fsub double %18, %21
  %23 = load double*, double** %8, align 8
  %24 = load i32, i32* %9, align 4
  %25 = sext i32 %24 to i64
  %26 = getelementptr inbounds double, double* %23, i64 %25
  store double %22, double* %26, align 8
  %27 = load double*, double** %7, align 8
  %28 = load i32, i32* %9, align 4
  %29 = sext i32 %28 to i64
  %30 = getelementptr inbounds double, double* %27, i64 %29
  store double %22, double* %30, align 8
  %31 = load double*, double** %6, align 8
  %32 = load i32, i32* %9, align 4
  %33 = sext i32 %32 to i64
  %34 = getelementptr inbounds double, double* %31, i64 %33
  store double %22, double* %34, align 8
  br label %35

35:                                               ; preds = %14
  %36 = load i32, i32* %9, align 4
  %37 = add nsw i32 %36, 1
  store i32 %37, i32* %9, align 4
  br label %10, !llvm.loop !4

38:                                               ; preds = %10
  ret void
}

; Function Attrs: mustprogress noinline nounwind uwtable
define linkonce_odr dso_local nonnull align 8 dereferenceable(8) double* @_ZN4Mesh1pEi(%struct.Mesh* nonnull align 8 dereferenceable(1376) %0, i32 %1) #4 comdat align 2 {
  %3 = alloca %struct.Mesh*, align 8
  %4 = alloca i32, align 4
  store %struct.Mesh* %0, %struct.Mesh** %3, align 8
  store i32 %1, i32* %4, align 4
  %5 = load %struct.Mesh*, %struct.Mesh** %3, align 8
  %6 = getelementptr inbounds %struct.Mesh, %struct.Mesh* %5, i32 0, i32 35
  %7 = load i32, i32* %4, align 4
  %8 = sext i32 %7 to i64
  %9 = call nonnull align 8 dereferenceable(8) double* @_ZNSt6vectorIdSaIdEEixEm(%"class.std::vector"* nonnull align 8 dereferenceable(24) %6, i64 %8) #2
  ret double* %9
}

; Function Attrs: mustprogress noinline nounwind uwtable
define linkonce_odr dso_local nonnull align 8 dereferenceable(8) double* @_ZN4Mesh1qEi(%struct.Mesh* nonnull align 8 dereferenceable(1376) %0, i32 %1) #4 comdat align 2 {
  %3 = alloca %struct.Mesh*, align 8
  %4 = alloca i32, align 4
  store %struct.Mesh* %0, %struct.Mesh** %3, align 8
  store i32 %1, i32* %4, align 4
  %5 = load %struct.Mesh*, %struct.Mesh** %3, align 8
  %6 = getelementptr inbounds %struct.Mesh, %struct.Mesh* %5, i32 0, i32 36
  %7 = load i32, i32* %4, align 4
  %8 = sext i32 %7 to i64
  %9 = call nonnull align 8 dereferenceable(8) double* @_ZNSt6vectorIdSaIdEEixEm(%"class.std::vector"* nonnull align 8 dereferenceable(24) %6, i64 %8) #2
  ret double* %9
}

; Function Attrs: mustprogress noinline nounwind uwtable
define dso_local void @_Z32CalcElemShapeFunctionDerivativesPKdS0_S0_PA8_dPd(double* %0, double* %1, double* %2, [8 x double]* %3, double* %4) #4 {
  %6 = alloca double*, align 8
  %7 = alloca double*, align 8
  %8 = alloca double*, align 8
  %9 = alloca [8 x double]*, align 8
  %10 = alloca double*, align 8
  %11 = alloca double, align 8
  %12 = alloca double, align 8
  %13 = alloca double, align 8
  %14 = alloca double, align 8
  %15 = alloca double, align 8
  %16 = alloca double, align 8
  %17 = alloca double, align 8
  %18 = alloca double, align 8
  %19 = alloca double, align 8
  %20 = alloca double, align 8
  %21 = alloca double, align 8
  %22 = alloca double, align 8
  %23 = alloca double, align 8
  %24 = alloca double, align 8
  %25 = alloca double, align 8
  %26 = alloca double, align 8
  %27 = alloca double, align 8
  %28 = alloca double, align 8
  %29 = alloca double, align 8
  %30 = alloca double, align 8
  %31 = alloca double, align 8
  %32 = alloca double, align 8
  %33 = alloca double, align 8
  %34 = alloca double, align 8
  %35 = alloca double, align 8
  %36 = alloca double, align 8
  %37 = alloca double, align 8
  %38 = alloca double, align 8
  %39 = alloca double, align 8
  %40 = alloca double, align 8
  %41 = alloca double, align 8
  %42 = alloca double, align 8
  %43 = alloca double, align 8
  %44 = alloca double, align 8
  %45 = alloca double, align 8
  %46 = alloca double, align 8
  %47 = alloca double, align 8
  %48 = alloca double, align 8
  %49 = alloca double, align 8
  %50 = alloca double, align 8
  %51 = alloca double, align 8
  %52 = alloca double, align 8
  store double* %0, double** %6, align 8
  store double* %1, double** %7, align 8
  store double* %2, double** %8, align 8
  store [8 x double]* %3, [8 x double]** %9, align 8
  store double* %4, double** %10, align 8
  %53 = load double*, double** %6, align 8
  %54 = getelementptr inbounds double, double* %53, i64 0
  %55 = load double, double* %54, align 8
  store double %55, double* %11, align 8
  %56 = load double*, double** %6, align 8
  %57 = getelementptr inbounds double, double* %56, i64 1
  %58 = load double, double* %57, align 8
  store double %58, double* %12, align 8
  %59 = load double*, double** %6, align 8
  %60 = getelementptr inbounds double, double* %59, i64 2
  %61 = load double, double* %60, align 8
  store double %61, double* %13, align 8
  %62 = load double*, double** %6, align 8
  %63 = getelementptr inbounds double, double* %62, i64 3
  %64 = load double, double* %63, align 8
  store double %64, double* %14, align 8
  %65 = load double*, double** %6, align 8
  %66 = getelementptr inbounds double, double* %65, i64 4
  %67 = load double, double* %66, align 8
  store double %67, double* %15, align 8
  %68 = load double*, double** %6, align 8
  %69 = getelementptr inbounds double, double* %68, i64 5
  %70 = load double, double* %69, align 8
  store double %70, double* %16, align 8
  %71 = load double*, double** %6, align 8
  %72 = getelementptr inbounds double, double* %71, i64 6
  %73 = load double, double* %72, align 8
  store double %73, double* %17, align 8
  %74 = load double*, double** %6, align 8
  %75 = getelementptr inbounds double, double* %74, i64 7
  %76 = load double, double* %75, align 8
  store double %76, double* %18, align 8
  %77 = load double*, double** %7, align 8
  %78 = getelementptr inbounds double, double* %77, i64 0
  %79 = load double, double* %78, align 8
  store double %79, double* %19, align 8
  %80 = load double*, double** %7, align 8
  %81 = getelementptr inbounds double, double* %80, i64 1
  %82 = load double, double* %81, align 8
  store double %82, double* %20, align 8
  %83 = load double*, double** %7, align 8
  %84 = getelementptr inbounds double, double* %83, i64 2
  %85 = load double, double* %84, align 8
  store double %85, double* %21, align 8
  %86 = load double*, double** %7, align 8
  %87 = getelementptr inbounds double, double* %86, i64 3
  %88 = load double, double* %87, align 8
  store double %88, double* %22, align 8
  %89 = load double*, double** %7, align 8
  %90 = getelementptr inbounds double, double* %89, i64 4
  %91 = load double, double* %90, align 8
  store double %91, double* %23, align 8
  %92 = load double*, double** %7, align 8
  %93 = getelementptr inbounds double, double* %92, i64 5
  %94 = load double, double* %93, align 8
  store double %94, double* %24, align 8
  %95 = load double*, double** %7, align 8
  %96 = getelementptr inbounds double, double* %95, i64 6
  %97 = load double, double* %96, align 8
  store double %97, double* %25, align 8
  %98 = load double*, double** %7, align 8
  %99 = getelementptr inbounds double, double* %98, i64 7
  %100 = load double, double* %99, align 8
  store double %100, double* %26, align 8
  %101 = load double*, double** %8, align 8
  %102 = getelementptr inbounds double, double* %101, i64 0
  %103 = load double, double* %102, align 8
  store double %103, double* %27, align 8
  %104 = load double*, double** %8, align 8
  %105 = getelementptr inbounds double, double* %104, i64 1
  %106 = load double, double* %105, align 8
  store double %106, double* %28, align 8
  %107 = load double*, double** %8, align 8
  %108 = getelementptr inbounds double, double* %107, i64 2
  %109 = load double, double* %108, align 8
  store double %109, double* %29, align 8
  %110 = load double*, double** %8, align 8
  %111 = getelementptr inbounds double, double* %110, i64 3
  %112 = load double, double* %111, align 8
  store double %112, double* %30, align 8
  %113 = load double*, double** %8, align 8
  %114 = getelementptr inbounds double, double* %113, i64 4
  %115 = load double, double* %114, align 8
  store double %115, double* %31, align 8
  %116 = load double*, double** %8, align 8
  %117 = getelementptr inbounds double, double* %116, i64 5
  %118 = load double, double* %117, align 8
  store double %118, double* %32, align 8
  %119 = load double*, double** %8, align 8
  %120 = getelementptr inbounds double, double* %119, i64 6
  %121 = load double, double* %120, align 8
  store double %121, double* %33, align 8
  %122 = load double*, double** %8, align 8
  %123 = getelementptr inbounds double, double* %122, i64 7
  %124 = load double, double* %123, align 8
  store double %124, double* %34, align 8
  %125 = load double, double* %17, align 8
  %126 = load double, double* %11, align 8
  %127 = fsub double %125, %126
  %128 = load double, double* %16, align 8
  %129 = load double, double* %14, align 8
  %130 = fsub double %128, %129
  %131 = fadd double %127, %130
  %132 = load double, double* %18, align 8
  %133 = load double, double* %12, align 8
  %134 = fsub double %132, %133
  %135 = fsub double %131, %134
  %136 = load double, double* %15, align 8
  %137 = load double, double* %13, align 8
  %138 = fsub double %136, %137
  %139 = fsub double %135, %138
  %140 = fmul double 1.250000e-01, %139
  store double %140, double* %35, align 8
  %141 = load double, double* %17, align 8
  %142 = load double, double* %11, align 8
  %143 = fsub double %141, %142
  %144 = load double, double* %16, align 8
  %145 = load double, double* %14, align 8
  %146 = fsub double %144, %145
  %147 = fsub double %143, %146
  %148 = load double, double* %18, align 8
  %149 = load double, double* %12, align 8
  %150 = fsub double %148, %149
  %151 = fadd double %147, %150
  %152 = load double, double* %15, align 8
  %153 = load double, double* %13, align 8
  %154 = fsub double %152, %153
  %155 = fsub double %151, %154
  %156 = fmul double 1.250000e-01, %155
  store double %156, double* %36, align 8
  %157 = load double, double* %17, align 8
  %158 = load double, double* %11, align 8
  %159 = fsub double %157, %158
  %160 = load double, double* %16, align 8
  %161 = load double, double* %14, align 8
  %162 = fsub double %160, %161
  %163 = fadd double %159, %162
  %164 = load double, double* %18, align 8
  %165 = load double, double* %12, align 8
  %166 = fsub double %164, %165
  %167 = fadd double %163, %166
  %168 = load double, double* %15, align 8
  %169 = load double, double* %13, align 8
  %170 = fsub double %168, %169
  %171 = fadd double %167, %170
  %172 = fmul double 1.250000e-01, %171
  store double %172, double* %37, align 8
  %173 = load double, double* %25, align 8
  %174 = load double, double* %19, align 8
  %175 = fsub double %173, %174
  %176 = load double, double* %24, align 8
  %177 = load double, double* %22, align 8
  %178 = fsub double %176, %177
  %179 = fadd double %175, %178
  %180 = load double, double* %26, align 8
  %181 = load double, double* %20, align 8
  %182 = fsub double %180, %181
  %183 = fsub double %179, %182
  %184 = load double, double* %23, align 8
  %185 = load double, double* %21, align 8
  %186 = fsub double %184, %185
  %187 = fsub double %183, %186
  %188 = fmul double 1.250000e-01, %187
  store double %188, double* %38, align 8
  %189 = load double, double* %25, align 8
  %190 = load double, double* %19, align 8
  %191 = fsub double %189, %190
  %192 = load double, double* %24, align 8
  %193 = load double, double* %22, align 8
  %194 = fsub double %192, %193
  %195 = fsub double %191, %194
  %196 = load double, double* %26, align 8
  %197 = load double, double* %20, align 8
  %198 = fsub double %196, %197
  %199 = fadd double %195, %198
  %200 = load double, double* %23, align 8
  %201 = load double, double* %21, align 8
  %202 = fsub double %200, %201
  %203 = fsub double %199, %202
  %204 = fmul double 1.250000e-01, %203
  store double %204, double* %39, align 8
  %205 = load double, double* %25, align 8
  %206 = load double, double* %19, align 8
  %207 = fsub double %205, %206
  %208 = load double, double* %24, align 8
  %209 = load double, double* %22, align 8
  %210 = fsub double %208, %209
  %211 = fadd double %207, %210
  %212 = load double, double* %26, align 8
  %213 = load double, double* %20, align 8
  %214 = fsub double %212, %213
  %215 = fadd double %211, %214
  %216 = load double, double* %23, align 8
  %217 = load double, double* %21, align 8
  %218 = fsub double %216, %217
  %219 = fadd double %215, %218
  %220 = fmul double 1.250000e-01, %219
  store double %220, double* %40, align 8
  %221 = load double, double* %33, align 8
  %222 = load double, double* %27, align 8
  %223 = fsub double %221, %222
  %224 = load double, double* %32, align 8
  %225 = load double, double* %30, align 8
  %226 = fsub double %224, %225
  %227 = fadd double %223, %226
  %228 = load double, double* %34, align 8
  %229 = load double, double* %28, align 8
  %230 = fsub double %228, %229
  %231 = fsub double %227, %230
  %232 = load double, double* %31, align 8
  %233 = load double, double* %29, align 8
  %234 = fsub double %232, %233
  %235 = fsub double %231, %234
  %236 = fmul double 1.250000e-01, %235
  store double %236, double* %41, align 8
  %237 = load double, double* %33, align 8
  %238 = load double, double* %27, align 8
  %239 = fsub double %237, %238
  %240 = load double, double* %32, align 8
  %241 = load double, double* %30, align 8
  %242 = fsub double %240, %241
  %243 = fsub double %239, %242
  %244 = load double, double* %34, align 8
  %245 = load double, double* %28, align 8
  %246 = fsub double %244, %245
  %247 = fadd double %243, %246
  %248 = load double, double* %31, align 8
  %249 = load double, double* %29, align 8
  %250 = fsub double %248, %249
  %251 = fsub double %247, %250
  %252 = fmul double 1.250000e-01, %251
  store double %252, double* %42, align 8
  %253 = load double, double* %33, align 8
  %254 = load double, double* %27, align 8
  %255 = fsub double %253, %254
  %256 = load double, double* %32, align 8
  %257 = load double, double* %30, align 8
  %258 = fsub double %256, %257
  %259 = fadd double %255, %258
  %260 = load double, double* %34, align 8
  %261 = load double, double* %28, align 8
  %262 = fsub double %260, %261
  %263 = fadd double %259, %262
  %264 = load double, double* %31, align 8
  %265 = load double, double* %29, align 8
  %266 = fsub double %264, %265
  %267 = fadd double %263, %266
  %268 = fmul double 1.250000e-01, %267
  store double %268, double* %43, align 8
  %269 = load double, double* %39, align 8
  %270 = load double, double* %43, align 8
  %271 = fmul double %269, %270
  %272 = load double, double* %42, align 8
  %273 = load double, double* %40, align 8
  %274 = fmul double %272, %273
  %275 = fsub double %271, %274
  store double %275, double* %44, align 8
  %276 = load double, double* %38, align 8
  %277 = load double, double* %43, align 8
  %278 = fmul double %276, %277
  %279 = fneg double %278
  %280 = load double, double* %41, align 8
  %281 = load double, double* %40, align 8
  %282 = fmul double %280, %281
  %283 = fadd double %279, %282
  store double %283, double* %45, align 8
  %284 = load double, double* %38, align 8
  %285 = load double, double* %42, align 8
  %286 = fmul double %284, %285
  %287 = load double, double* %41, align 8
  %288 = load double, double* %39, align 8
  %289 = fmul double %287, %288
  %290 = fsub double %286, %289
  store double %290, double* %46, align 8
  %291 = load double, double* %36, align 8
  %292 = load double, double* %43, align 8
  %293 = fmul double %291, %292
  %294 = fneg double %293
  %295 = load double, double* %42, align 8
  %296 = load double, double* %37, align 8
  %297 = fmul double %295, %296
  %298 = fadd double %294, %297
  store double %298, double* %47, align 8
  %299 = load double, double* %35, align 8
  %300 = load double, double* %43, align 8
  %301 = fmul double %299, %300
  %302 = load double, double* %41, align 8
  %303 = load double, double* %37, align 8
  %304 = fmul double %302, %303
  %305 = fsub double %301, %304
  store double %305, double* %48, align 8
  %306 = load double, double* %35, align 8
  %307 = load double, double* %42, align 8
  %308 = fmul double %306, %307
  %309 = fneg double %308
  %310 = load double, double* %41, align 8
  %311 = load double, double* %36, align 8
  %312 = fmul double %310, %311
  %313 = fadd double %309, %312
  store double %313, double* %49, align 8
  %314 = load double, double* %36, align 8
  %315 = load double, double* %40, align 8
  %316 = fmul double %314, %315
  %317 = load double, double* %39, align 8
  %318 = load double, double* %37, align 8
  %319 = fmul double %317, %318
  %320 = fsub double %316, %319
  store double %320, double* %50, align 8
  %321 = load double, double* %35, align 8
  %322 = load double, double* %40, align 8
  %323 = fmul double %321, %322
  %324 = fneg double %323
  %325 = load double, double* %38, align 8
  %326 = load double, double* %37, align 8
  %327 = fmul double %325, %326
  %328 = fadd double %324, %327
  store double %328, double* %51, align 8
  %329 = load double, double* %35, align 8
  %330 = load double, double* %39, align 8
  %331 = fmul double %329, %330
  %332 = load double, double* %38, align 8
  %333 = load double, double* %36, align 8
  %334 = fmul double %332, %333
  %335 = fsub double %331, %334
  store double %335, double* %52, align 8
  %336 = load double, double* %44, align 8
  %337 = fneg double %336
  %338 = load double, double* %45, align 8
  %339 = fsub double %337, %338
  %340 = load double, double* %46, align 8
  %341 = fsub double %339, %340
  %342 = load [8 x double]*, [8 x double]** %9, align 8
  %343 = getelementptr inbounds [8 x double], [8 x double]* %342, i64 0
  %344 = getelementptr inbounds [8 x double], [8 x double]* %343, i64 0, i64 0
  store double %341, double* %344, align 8
  %345 = load double, double* %44, align 8
  %346 = load double, double* %45, align 8
  %347 = fsub double %345, %346
  %348 = load double, double* %46, align 8
  %349 = fsub double %347, %348
  %350 = load [8 x double]*, [8 x double]** %9, align 8
  %351 = getelementptr inbounds [8 x double], [8 x double]* %350, i64 0
  %352 = getelementptr inbounds [8 x double], [8 x double]* %351, i64 0, i64 1
  store double %349, double* %352, align 8
  %353 = load double, double* %44, align 8
  %354 = load double, double* %45, align 8
  %355 = fadd double %353, %354
  %356 = load double, double* %46, align 8
  %357 = fsub double %355, %356
  %358 = load [8 x double]*, [8 x double]** %9, align 8
  %359 = getelementptr inbounds [8 x double], [8 x double]* %358, i64 0
  %360 = getelementptr inbounds [8 x double], [8 x double]* %359, i64 0, i64 2
  store double %357, double* %360, align 8
  %361 = load double, double* %44, align 8
  %362 = fneg double %361
  %363 = load double, double* %45, align 8
  %364 = fadd double %362, %363
  %365 = load double, double* %46, align 8
  %366 = fsub double %364, %365
  %367 = load [8 x double]*, [8 x double]** %9, align 8
  %368 = getelementptr inbounds [8 x double], [8 x double]* %367, i64 0
  %369 = getelementptr inbounds [8 x double], [8 x double]* %368, i64 0, i64 3
  store double %366, double* %369, align 8
  %370 = load [8 x double]*, [8 x double]** %9, align 8
  %371 = getelementptr inbounds [8 x double], [8 x double]* %370, i64 0
  %372 = getelementptr inbounds [8 x double], [8 x double]* %371, i64 0, i64 2
  %373 = load double, double* %372, align 8
  %374 = fneg double %373
  %375 = load [8 x double]*, [8 x double]** %9, align 8
  %376 = getelementptr inbounds [8 x double], [8 x double]* %375, i64 0
  %377 = getelementptr inbounds [8 x double], [8 x double]* %376, i64 0, i64 4
  store double %374, double* %377, align 8
  %378 = load [8 x double]*, [8 x double]** %9, align 8
  %379 = getelementptr inbounds [8 x double], [8 x double]* %378, i64 0
  %380 = getelementptr inbounds [8 x double], [8 x double]* %379, i64 0, i64 3
  %381 = load double, double* %380, align 8
  %382 = fneg double %381
  %383 = load [8 x double]*, [8 x double]** %9, align 8
  %384 = getelementptr inbounds [8 x double], [8 x double]* %383, i64 0
  %385 = getelementptr inbounds [8 x double], [8 x double]* %384, i64 0, i64 5
  store double %382, double* %385, align 8
  %386 = load [8 x double]*, [8 x double]** %9, align 8
  %387 = getelementptr inbounds [8 x double], [8 x double]* %386, i64 0
  %388 = getelementptr inbounds [8 x double], [8 x double]* %387, i64 0, i64 0
  %389 = load double, double* %388, align 8
  %390 = fneg double %389
  %391 = load [8 x double]*, [8 x double]** %9, align 8
  %392 = getelementptr inbounds [8 x double], [8 x double]* %391, i64 0
  %393 = getelementptr inbounds [8 x double], [8 x double]* %392, i64 0, i64 6
  store double %390, double* %393, align 8
  %394 = load [8 x double]*, [8 x double]** %9, align 8
  %395 = getelementptr inbounds [8 x double], [8 x double]* %394, i64 0
  %396 = getelementptr inbounds [8 x double], [8 x double]* %395, i64 0, i64 1
  %397 = load double, double* %396, align 8
  %398 = fneg double %397
  %399 = load [8 x double]*, [8 x double]** %9, align 8
  %400 = getelementptr inbounds [8 x double], [8 x double]* %399, i64 0
  %401 = getelementptr inbounds [8 x double], [8 x double]* %400, i64 0, i64 7
  store double %398, double* %401, align 8
  %402 = load double, double* %47, align 8
  %403 = fneg double %402
  %404 = load double, double* %48, align 8
  %405 = fsub double %403, %404
  %406 = load double, double* %49, align 8
  %407 = fsub double %405, %406
  %408 = load [8 x double]*, [8 x double]** %9, align 8
  %409 = getelementptr inbounds [8 x double], [8 x double]* %408, i64 1
  %410 = getelementptr inbounds [8 x double], [8 x double]* %409, i64 0, i64 0
  store double %407, double* %410, align 8
  %411 = load double, double* %47, align 8
  %412 = load double, double* %48, align 8
  %413 = fsub double %411, %412
  %414 = load double, double* %49, align 8
  %415 = fsub double %413, %414
  %416 = load [8 x double]*, [8 x double]** %9, align 8
  %417 = getelementptr inbounds [8 x double], [8 x double]* %416, i64 1
  %418 = getelementptr inbounds [8 x double], [8 x double]* %417, i64 0, i64 1
  store double %415, double* %418, align 8
  %419 = load double, double* %47, align 8
  %420 = load double, double* %48, align 8
  %421 = fadd double %419, %420
  %422 = load double, double* %49, align 8
  %423 = fsub double %421, %422
  %424 = load [8 x double]*, [8 x double]** %9, align 8
  %425 = getelementptr inbounds [8 x double], [8 x double]* %424, i64 1
  %426 = getelementptr inbounds [8 x double], [8 x double]* %425, i64 0, i64 2
  store double %423, double* %426, align 8
  %427 = load double, double* %47, align 8
  %428 = fneg double %427
  %429 = load double, double* %48, align 8
  %430 = fadd double %428, %429
  %431 = load double, double* %49, align 8
  %432 = fsub double %430, %431
  %433 = load [8 x double]*, [8 x double]** %9, align 8
  %434 = getelementptr inbounds [8 x double], [8 x double]* %433, i64 1
  %435 = getelementptr inbounds [8 x double], [8 x double]* %434, i64 0, i64 3
  store double %432, double* %435, align 8
  %436 = load [8 x double]*, [8 x double]** %9, align 8
  %437 = getelementptr inbounds [8 x double], [8 x double]* %436, i64 1
  %438 = getelementptr inbounds [8 x double], [8 x double]* %437, i64 0, i64 2
  %439 = load double, double* %438, align 8
  %440 = fneg double %439
  %441 = load [8 x double]*, [8 x double]** %9, align 8
  %442 = getelementptr inbounds [8 x double], [8 x double]* %441, i64 1
  %443 = getelementptr inbounds [8 x double], [8 x double]* %442, i64 0, i64 4
  store double %440, double* %443, align 8
  %444 = load [8 x double]*, [8 x double]** %9, align 8
  %445 = getelementptr inbounds [8 x double], [8 x double]* %444, i64 1
  %446 = getelementptr inbounds [8 x double], [8 x double]* %445, i64 0, i64 3
  %447 = load double, double* %446, align 8
  %448 = fneg double %447
  %449 = load [8 x double]*, [8 x double]** %9, align 8
  %450 = getelementptr inbounds [8 x double], [8 x double]* %449, i64 1
  %451 = getelementptr inbounds [8 x double], [8 x double]* %450, i64 0, i64 5
  store double %448, double* %451, align 8
  %452 = load [8 x double]*, [8 x double]** %9, align 8
  %453 = getelementptr inbounds [8 x double], [8 x double]* %452, i64 1
  %454 = getelementptr inbounds [8 x double], [8 x double]* %453, i64 0, i64 0
  %455 = load double, double* %454, align 8
  %456 = fneg double %455
  %457 = load [8 x double]*, [8 x double]** %9, align 8
  %458 = getelementptr inbounds [8 x double], [8 x double]* %457, i64 1
  %459 = getelementptr inbounds [8 x double], [8 x double]* %458, i64 0, i64 6
  store double %456, double* %459, align 8
  %460 = load [8 x double]*, [8 x double]** %9, align 8
  %461 = getelementptr inbounds [8 x double], [8 x double]* %460, i64 1
  %462 = getelementptr inbounds [8 x double], [8 x double]* %461, i64 0, i64 1
  %463 = load double, double* %462, align 8
  %464 = fneg double %463
  %465 = load [8 x double]*, [8 x double]** %9, align 8
  %466 = getelementptr inbounds [8 x double], [8 x double]* %465, i64 1
  %467 = getelementptr inbounds [8 x double], [8 x double]* %466, i64 0, i64 7
  store double %464, double* %467, align 8
  %468 = load double, double* %50, align 8
  %469 = fneg double %468
  %470 = load double, double* %51, align 8
  %471 = fsub double %469, %470
  %472 = load double, double* %52, align 8
  %473 = fsub double %471, %472
  %474 = load [8 x double]*, [8 x double]** %9, align 8
  %475 = getelementptr inbounds [8 x double], [8 x double]* %474, i64 2
  %476 = getelementptr inbounds [8 x double], [8 x double]* %475, i64 0, i64 0
  store double %473, double* %476, align 8
  %477 = load double, double* %50, align 8
  %478 = load double, double* %51, align 8
  %479 = fsub double %477, %478
  %480 = load double, double* %52, align 8
  %481 = fsub double %479, %480
  %482 = load [8 x double]*, [8 x double]** %9, align 8
  %483 = getelementptr inbounds [8 x double], [8 x double]* %482, i64 2
  %484 = getelementptr inbounds [8 x double], [8 x double]* %483, i64 0, i64 1
  store double %481, double* %484, align 8
  %485 = load double, double* %50, align 8
  %486 = load double, double* %51, align 8
  %487 = fadd double %485, %486
  %488 = load double, double* %52, align 8
  %489 = fsub double %487, %488
  %490 = load [8 x double]*, [8 x double]** %9, align 8
  %491 = getelementptr inbounds [8 x double], [8 x double]* %490, i64 2
  %492 = getelementptr inbounds [8 x double], [8 x double]* %491, i64 0, i64 2
  store double %489, double* %492, align 8
  %493 = load double, double* %50, align 8
  %494 = fneg double %493
  %495 = load double, double* %51, align 8
  %496 = fadd double %494, %495
  %497 = load double, double* %52, align 8
  %498 = fsub double %496, %497
  %499 = load [8 x double]*, [8 x double]** %9, align 8
  %500 = getelementptr inbounds [8 x double], [8 x double]* %499, i64 2
  %501 = getelementptr inbounds [8 x double], [8 x double]* %500, i64 0, i64 3
  store double %498, double* %501, align 8
  %502 = load [8 x double]*, [8 x double]** %9, align 8
  %503 = getelementptr inbounds [8 x double], [8 x double]* %502, i64 2
  %504 = getelementptr inbounds [8 x double], [8 x double]* %503, i64 0, i64 2
  %505 = load double, double* %504, align 8
  %506 = fneg double %505
  %507 = load [8 x double]*, [8 x double]** %9, align 8
  %508 = getelementptr inbounds [8 x double], [8 x double]* %507, i64 2
  %509 = getelementptr inbounds [8 x double], [8 x double]* %508, i64 0, i64 4
  store double %506, double* %509, align 8
  %510 = load [8 x double]*, [8 x double]** %9, align 8
  %511 = getelementptr inbounds [8 x double], [8 x double]* %510, i64 2
  %512 = getelementptr inbounds [8 x double], [8 x double]* %511, i64 0, i64 3
  %513 = load double, double* %512, align 8
  %514 = fneg double %513
  %515 = load [8 x double]*, [8 x double]** %9, align 8
  %516 = getelementptr inbounds [8 x double], [8 x double]* %515, i64 2
  %517 = getelementptr inbounds [8 x double], [8 x double]* %516, i64 0, i64 5
  store double %514, double* %517, align 8
  %518 = load [8 x double]*, [8 x double]** %9, align 8
  %519 = getelementptr inbounds [8 x double], [8 x double]* %518, i64 2
  %520 = getelementptr inbounds [8 x double], [8 x double]* %519, i64 0, i64 0
  %521 = load double, double* %520, align 8
  %522 = fneg double %521
  %523 = load [8 x double]*, [8 x double]** %9, align 8
  %524 = getelementptr inbounds [8 x double], [8 x double]* %523, i64 2
  %525 = getelementptr inbounds [8 x double], [8 x double]* %524, i64 0, i64 6
  store double %522, double* %525, align 8
  %526 = load [8 x double]*, [8 x double]** %9, align 8
  %527 = getelementptr inbounds [8 x double], [8 x double]* %526, i64 2
  %528 = getelementptr inbounds [8 x double], [8 x double]* %527, i64 0, i64 1
  %529 = load double, double* %528, align 8
  %530 = fneg double %529
  %531 = load [8 x double]*, [8 x double]** %9, align 8
  %532 = getelementptr inbounds [8 x double], [8 x double]* %531, i64 2
  %533 = getelementptr inbounds [8 x double], [8 x double]* %532, i64 0, i64 7
  store double %530, double* %533, align 8
  %534 = load double, double* %36, align 8
  %535 = load double, double* %45, align 8
  %536 = fmul double %534, %535
  %537 = load double, double* %39, align 8
  %538 = load double, double* %48, align 8
  %539 = fmul double %537, %538
  %540 = fadd double %536, %539
  %541 = load double, double* %42, align 8
  %542 = load double, double* %51, align 8
  %543 = fmul double %541, %542
  %544 = fadd double %540, %543
  %545 = fmul double 8.000000e+00, %544
  %546 = load double*, double** %10, align 8
  store double %545, double* %546, align 8
  ret void
}

; Function Attrs: mustprogress noinline nounwind uwtable
define dso_local void @_Z17SumElemFaceNormalPdS_S_S_S_S_S_S_S_S_S_S_dddddddddddd(double* %0, double* %1, double* %2, double* %3, double* %4, double* %5, double* %6, double* %7, double* %8, double* %9, double* %10, double* %11, double %12, double %13, double %14, double %15, double %16, double %17, double %18, double %19, double %20, double %21, double %22, double %23) #4 {
  %25 = alloca double*, align 8
  %26 = alloca double*, align 8
  %27 = alloca double*, align 8
  %28 = alloca double*, align 8
  %29 = alloca double*, align 8
  %30 = alloca double*, align 8
  %31 = alloca double*, align 8
  %32 = alloca double*, align 8
  %33 = alloca double*, align 8
  %34 = alloca double*, align 8
  %35 = alloca double*, align 8
  %36 = alloca double*, align 8
  %37 = alloca double, align 8
  %38 = alloca double, align 8
  %39 = alloca double, align 8
  %40 = alloca double, align 8
  %41 = alloca double, align 8
  %42 = alloca double, align 8
  %43 = alloca double, align 8
  %44 = alloca double, align 8
  %45 = alloca double, align 8
  %46 = alloca double, align 8
  %47 = alloca double, align 8
  %48 = alloca double, align 8
  %49 = alloca double, align 8
  %50 = alloca double, align 8
  %51 = alloca double, align 8
  %52 = alloca double, align 8
  %53 = alloca double, align 8
  %54 = alloca double, align 8
  %55 = alloca double, align 8
  %56 = alloca double, align 8
  %57 = alloca double, align 8
  store double* %0, double** %25, align 8
  store double* %1, double** %26, align 8
  store double* %2, double** %27, align 8
  store double* %3, double** %28, align 8
  store double* %4, double** %29, align 8
  store double* %5, double** %30, align 8
  store double* %6, double** %31, align 8
  store double* %7, double** %32, align 8
  store double* %8, double** %33, align 8
  store double* %9, double** %34, align 8
  store double* %10, double** %35, align 8
  store double* %11, double** %36, align 8
  store double %12, double* %37, align 8
  store double %13, double* %38, align 8
  store double %14, double* %39, align 8
  store double %15, double* %40, align 8
  store double %16, double* %41, align 8
  store double %17, double* %42, align 8
  store double %18, double* %43, align 8
  store double %19, double* %44, align 8
  store double %20, double* %45, align 8
  store double %21, double* %46, align 8
  store double %22, double* %47, align 8
  store double %23, double* %48, align 8
  %58 = load double, double* %46, align 8
  %59 = load double, double* %43, align 8
  %60 = fadd double %58, %59
  %61 = load double, double* %40, align 8
  %62 = fsub double %60, %61
  %63 = load double, double* %37, align 8
  %64 = fsub double %62, %63
  %65 = fmul double 5.000000e-01, %64
  store double %65, double* %49, align 8
  %66 = load double, double* %47, align 8
  %67 = load double, double* %44, align 8
  %68 = fadd double %66, %67
  %69 = load double, double* %41, align 8
  %70 = fsub double %68, %69
  %71 = load double, double* %38, align 8
  %72 = fsub double %70, %71
  %73 = fmul double 5.000000e-01, %72
  store double %73, double* %50, align 8
  %74 = load double, double* %48, align 8
  %75 = load double, double* %45, align 8
  %76 = fadd double %74, %75
  %77 = load double, double* %42, align 8
  %78 = fsub double %76, %77
  %79 = load double, double* %39, align 8
  %80 = fsub double %78, %79
  %81 = fmul double 5.000000e-01, %80
  store double %81, double* %51, align 8
  %82 = load double, double* %43, align 8
  %83 = load double, double* %40, align 8
  %84 = fadd double %82, %83
  %85 = load double, double* %46, align 8
  %86 = fsub double %84, %85
  %87 = load double, double* %37, align 8
  %88 = fsub double %86, %87
  %89 = fmul double 5.000000e-01, %88
  store double %89, double* %52, align 8
  %90 = load double, double* %44, align 8
  %91 = load double, double* %41, align 8
  %92 = fadd double %90, %91
  %93 = load double, double* %47, align 8
  %94 = fsub double %92, %93
  %95 = load double, double* %38, align 8
  %96 = fsub double %94, %95
  %97 = fmul double 5.000000e-01, %96
  store double %97, double* %53, align 8
  %98 = load double, double* %45, align 8
  %99 = load double, double* %42, align 8
  %100 = fadd double %98, %99
  %101 = load double, double* %48, align 8
  %102 = fsub double %100, %101
  %103 = load double, double* %39, align 8
  %104 = fsub double %102, %103
  %105 = fmul double 5.000000e-01, %104
  store double %105, double* %54, align 8
  %106 = load double, double* %50, align 8
  %107 = load double, double* %54, align 8
  %108 = fmul double %106, %107
  %109 = load double, double* %51, align 8
  %110 = load double, double* %53, align 8
  %111 = fmul double %109, %110
  %112 = fsub double %108, %111
  %113 = fmul double 2.500000e-01, %112
  store double %113, double* %55, align 8
  %114 = load double, double* %51, align 8
  %115 = load double, double* %52, align 8
  %116 = fmul double %114, %115
  %117 = load double, double* %49, align 8
  %118 = load double, double* %54, align 8
  %119 = fmul double %117, %118
  %120 = fsub double %116, %119
  %121 = fmul double 2.500000e-01, %120
  store double %121, double* %56, align 8
  %122 = load double, double* %49, align 8
  %123 = load double, double* %53, align 8
  %124 = fmul double %122, %123
  %125 = load double, double* %50, align 8
  %126 = load double, double* %52, align 8
  %127 = fmul double %125, %126
  %128 = fsub double %124, %127
  %129 = fmul double 2.500000e-01, %128
  store double %129, double* %57, align 8
  %130 = load double, double* %55, align 8
  %131 = load double*, double** %25, align 8
  %132 = load double, double* %131, align 8
  %133 = fadd double %132, %130
  store double %133, double* %131, align 8
  %134 = load double, double* %55, align 8
  %135 = load double*, double** %28, align 8
  %136 = load double, double* %135, align 8
  %137 = fadd double %136, %134
  store double %137, double* %135, align 8
  %138 = load double, double* %55, align 8
  %139 = load double*, double** %31, align 8
  %140 = load double, double* %139, align 8
  %141 = fadd double %140, %138
  store double %141, double* %139, align 8
  %142 = load double, double* %55, align 8
  %143 = load double*, double** %34, align 8
  %144 = load double, double* %143, align 8
  %145 = fadd double %144, %142
  store double %145, double* %143, align 8
  %146 = load double, double* %56, align 8
  %147 = load double*, double** %26, align 8
  %148 = load double, double* %147, align 8
  %149 = fadd double %148, %146
  store double %149, double* %147, align 8
  %150 = load double, double* %56, align 8
  %151 = load double*, double** %29, align 8
  %152 = load double, double* %151, align 8
  %153 = fadd double %152, %150
  store double %153, double* %151, align 8
  %154 = load double, double* %56, align 8
  %155 = load double*, double** %32, align 8
  %156 = load double, double* %155, align 8
  %157 = fadd double %156, %154
  store double %157, double* %155, align 8
  %158 = load double, double* %56, align 8
  %159 = load double*, double** %35, align 8
  %160 = load double, double* %159, align 8
  %161 = fadd double %160, %158
  store double %161, double* %159, align 8
  %162 = load double, double* %57, align 8
  %163 = load double*, double** %27, align 8
  %164 = load double, double* %163, align 8
  %165 = fadd double %164, %162
  store double %165, double* %163, align 8
  %166 = load double, double* %57, align 8
  %167 = load double*, double** %30, align 8
  %168 = load double, double* %167, align 8
  %169 = fadd double %168, %166
  store double %169, double* %167, align 8
  %170 = load double, double* %57, align 8
  %171 = load double*, double** %33, align 8
  %172 = load double, double* %171, align 8
  %173 = fadd double %172, %170
  store double %173, double* %171, align 8
  %174 = load double, double* %57, align 8
  %175 = load double*, double** %36, align 8
  %176 = load double, double* %175, align 8
  %177 = fadd double %176, %174
  store double %177, double* %175, align 8
  ret void
}

; Function Attrs: mustprogress noinline nounwind uwtable
define dso_local void @_Z19CalcElemNodeNormalsPdS_S_PKdS1_S1_(double* %0, double* %1, double* %2, double* %3, double* %4, double* %5) #4 {
  %7 = alloca double*, align 8
  %8 = alloca double*, align 8
  %9 = alloca double*, align 8
  %10 = alloca double*, align 8
  %11 = alloca double*, align 8
  %12 = alloca double*, align 8
  %13 = alloca i32, align 4
  store double* %0, double** %7, align 8
  store double* %1, double** %8, align 8
  store double* %2, double** %9, align 8
  store double* %3, double** %10, align 8
  store double* %4, double** %11, align 8
  store double* %5, double** %12, align 8
  store i32 0, i32* %13, align 4
  br label %14

14:                                               ; preds = %30, %6
  %15 = load i32, i32* %13, align 4
  %16 = icmp slt i32 %15, 8
  br i1 %16, label %17, label %33

17:                                               ; preds = %14
  %18 = load double*, double** %7, align 8
  %19 = load i32, i32* %13, align 4
  %20 = sext i32 %19 to i64
  %21 = getelementptr inbounds double, double* %18, i64 %20
  store double 0.000000e+00, double* %21, align 8
  %22 = load double*, double** %8, align 8
  %23 = load i32, i32* %13, align 4
  %24 = sext i32 %23 to i64
  %25 = getelementptr inbounds double, double* %22, i64 %24
  store double 0.000000e+00, double* %25, align 8
  %26 = load double*, double** %9, align 8
  %27 = load i32, i32* %13, align 4
  %28 = sext i32 %27 to i64
  %29 = getelementptr inbounds double, double* %26, i64 %28
  store double 0.000000e+00, double* %29, align 8
  br label %30

30:                                               ; preds = %17
  %31 = load i32, i32* %13, align 4
  %32 = add nsw i32 %31, 1
  store i32 %32, i32* %13, align 4
  br label %14, !llvm.loop !6

33:                                               ; preds = %14
  %34 = load double*, double** %7, align 8
  %35 = getelementptr inbounds double, double* %34, i64 0
  %36 = load double*, double** %8, align 8
  %37 = getelementptr inbounds double, double* %36, i64 0
  %38 = load double*, double** %9, align 8
  %39 = getelementptr inbounds double, double* %38, i64 0
  %40 = load double*, double** %7, align 8
  %41 = getelementptr inbounds double, double* %40, i64 1
  %42 = load double*, double** %8, align 8
  %43 = getelementptr inbounds double, double* %42, i64 1
  %44 = load double*, double** %9, align 8
  %45 = getelementptr inbounds double, double* %44, i64 1
  %46 = load double*, double** %7, align 8
  %47 = getelementptr inbounds double, double* %46, i64 2
  %48 = load double*, double** %8, align 8
  %49 = getelementptr inbounds double, double* %48, i64 2
  %50 = load double*, double** %9, align 8
  %51 = getelementptr inbounds double, double* %50, i64 2
  %52 = load double*, double** %7, align 8
  %53 = getelementptr inbounds double, double* %52, i64 3
  %54 = load double*, double** %8, align 8
  %55 = getelementptr inbounds double, double* %54, i64 3
  %56 = load double*, double** %9, align 8
  %57 = getelementptr inbounds double, double* %56, i64 3
  %58 = load double*, double** %10, align 8
  %59 = getelementptr inbounds double, double* %58, i64 0
  %60 = load double, double* %59, align 8
  %61 = load double*, double** %11, align 8
  %62 = getelementptr inbounds double, double* %61, i64 0
  %63 = load double, double* %62, align 8
  %64 = load double*, double** %12, align 8
  %65 = getelementptr inbounds double, double* %64, i64 0
  %66 = load double, double* %65, align 8
  %67 = load double*, double** %10, align 8
  %68 = getelementptr inbounds double, double* %67, i64 1
  %69 = load double, double* %68, align 8
  %70 = load double*, double** %11, align 8
  %71 = getelementptr inbounds double, double* %70, i64 1
  %72 = load double, double* %71, align 8
  %73 = load double*, double** %12, align 8
  %74 = getelementptr inbounds double, double* %73, i64 1
  %75 = load double, double* %74, align 8
  %76 = load double*, double** %10, align 8
  %77 = getelementptr inbounds double, double* %76, i64 2
  %78 = load double, double* %77, align 8
  %79 = load double*, double** %11, align 8
  %80 = getelementptr inbounds double, double* %79, i64 2
  %81 = load double, double* %80, align 8
  %82 = load double*, double** %12, align 8
  %83 = getelementptr inbounds double, double* %82, i64 2
  %84 = load double, double* %83, align 8
  %85 = load double*, double** %10, align 8
  %86 = getelementptr inbounds double, double* %85, i64 3
  %87 = load double, double* %86, align 8
  %88 = load double*, double** %11, align 8
  %89 = getelementptr inbounds double, double* %88, i64 3
  %90 = load double, double* %89, align 8
  %91 = load double*, double** %12, align 8
  %92 = getelementptr inbounds double, double* %91, i64 3
  %93 = load double, double* %92, align 8
  call void @_Z17SumElemFaceNormalPdS_S_S_S_S_S_S_S_S_S_S_dddddddddddd(double* %35, double* %37, double* %39, double* %41, double* %43, double* %45, double* %47, double* %49, double* %51, double* %53, double* %55, double* %57, double %60, double %63, double %66, double %69, double %72, double %75, double %78, double %81, double %84, double %87, double %90, double %93)
  %94 = load double*, double** %7, align 8
  %95 = getelementptr inbounds double, double* %94, i64 0
  %96 = load double*, double** %8, align 8
  %97 = getelementptr inbounds double, double* %96, i64 0
  %98 = load double*, double** %9, align 8
  %99 = getelementptr inbounds double, double* %98, i64 0
  %100 = load double*, double** %7, align 8
  %101 = getelementptr inbounds double, double* %100, i64 4
  %102 = load double*, double** %8, align 8
  %103 = getelementptr inbounds double, double* %102, i64 4
  %104 = load double*, double** %9, align 8
  %105 = getelementptr inbounds double, double* %104, i64 4
  %106 = load double*, double** %7, align 8
  %107 = getelementptr inbounds double, double* %106, i64 5
  %108 = load double*, double** %8, align 8
  %109 = getelementptr inbounds double, double* %108, i64 5
  %110 = load double*, double** %9, align 8
  %111 = getelementptr inbounds double, double* %110, i64 5
  %112 = load double*, double** %7, align 8
  %113 = getelementptr inbounds double, double* %112, i64 1
  %114 = load double*, double** %8, align 8
  %115 = getelementptr inbounds double, double* %114, i64 1
  %116 = load double*, double** %9, align 8
  %117 = getelementptr inbounds double, double* %116, i64 1
  %118 = load double*, double** %10, align 8
  %119 = getelementptr inbounds double, double* %118, i64 0
  %120 = load double, double* %119, align 8
  %121 = load double*, double** %11, align 8
  %122 = getelementptr inbounds double, double* %121, i64 0
  %123 = load double, double* %122, align 8
  %124 = load double*, double** %12, align 8
  %125 = getelementptr inbounds double, double* %124, i64 0
  %126 = load double, double* %125, align 8
  %127 = load double*, double** %10, align 8
  %128 = getelementptr inbounds double, double* %127, i64 4
  %129 = load double, double* %128, align 8
  %130 = load double*, double** %11, align 8
  %131 = getelementptr inbounds double, double* %130, i64 4
  %132 = load double, double* %131, align 8
  %133 = load double*, double** %12, align 8
  %134 = getelementptr inbounds double, double* %133, i64 4
  %135 = load double, double* %134, align 8
  %136 = load double*, double** %10, align 8
  %137 = getelementptr inbounds double, double* %136, i64 5
  %138 = load double, double* %137, align 8
  %139 = load double*, double** %11, align 8
  %140 = getelementptr inbounds double, double* %139, i64 5
  %141 = load double, double* %140, align 8
  %142 = load double*, double** %12, align 8
  %143 = getelementptr inbounds double, double* %142, i64 5
  %144 = load double, double* %143, align 8
  %145 = load double*, double** %10, align 8
  %146 = getelementptr inbounds double, double* %145, i64 1
  %147 = load double, double* %146, align 8
  %148 = load double*, double** %11, align 8
  %149 = getelementptr inbounds double, double* %148, i64 1
  %150 = load double, double* %149, align 8
  %151 = load double*, double** %12, align 8
  %152 = getelementptr inbounds double, double* %151, i64 1
  %153 = load double, double* %152, align 8
  call void @_Z17SumElemFaceNormalPdS_S_S_S_S_S_S_S_S_S_S_dddddddddddd(double* %95, double* %97, double* %99, double* %101, double* %103, double* %105, double* %107, double* %109, double* %111, double* %113, double* %115, double* %117, double %120, double %123, double %126, double %129, double %132, double %135, double %138, double %141, double %144, double %147, double %150, double %153)
  %154 = load double*, double** %7, align 8
  %155 = getelementptr inbounds double, double* %154, i64 1
  %156 = load double*, double** %8, align 8
  %157 = getelementptr inbounds double, double* %156, i64 1
  %158 = load double*, double** %9, align 8
  %159 = getelementptr inbounds double, double* %158, i64 1
  %160 = load double*, double** %7, align 8
  %161 = getelementptr inbounds double, double* %160, i64 5
  %162 = load double*, double** %8, align 8
  %163 = getelementptr inbounds double, double* %162, i64 5
  %164 = load double*, double** %9, align 8
  %165 = getelementptr inbounds double, double* %164, i64 5
  %166 = load double*, double** %7, align 8
  %167 = getelementptr inbounds double, double* %166, i64 6
  %168 = load double*, double** %8, align 8
  %169 = getelementptr inbounds double, double* %168, i64 6
  %170 = load double*, double** %9, align 8
  %171 = getelementptr inbounds double, double* %170, i64 6
  %172 = load double*, double** %7, align 8
  %173 = getelementptr inbounds double, double* %172, i64 2
  %174 = load double*, double** %8, align 8
  %175 = getelementptr inbounds double, double* %174, i64 2
  %176 = load double*, double** %9, align 8
  %177 = getelementptr inbounds double, double* %176, i64 2
  %178 = load double*, double** %10, align 8
  %179 = getelementptr inbounds double, double* %178, i64 1
  %180 = load double, double* %179, align 8
  %181 = load double*, double** %11, align 8
  %182 = getelementptr inbounds double, double* %181, i64 1
  %183 = load double, double* %182, align 8
  %184 = load double*, double** %12, align 8
  %185 = getelementptr inbounds double, double* %184, i64 1
  %186 = load double, double* %185, align 8
  %187 = load double*, double** %10, align 8
  %188 = getelementptr inbounds double, double* %187, i64 5
  %189 = load double, double* %188, align 8
  %190 = load double*, double** %11, align 8
  %191 = getelementptr inbounds double, double* %190, i64 5
  %192 = load double, double* %191, align 8
  %193 = load double*, double** %12, align 8
  %194 = getelementptr inbounds double, double* %193, i64 5
  %195 = load double, double* %194, align 8
  %196 = load double*, double** %10, align 8
  %197 = getelementptr inbounds double, double* %196, i64 6
  %198 = load double, double* %197, align 8
  %199 = load double*, double** %11, align 8
  %200 = getelementptr inbounds double, double* %199, i64 6
  %201 = load double, double* %200, align 8
  %202 = load double*, double** %12, align 8
  %203 = getelementptr inbounds double, double* %202, i64 6
  %204 = load double, double* %203, align 8
  %205 = load double*, double** %10, align 8
  %206 = getelementptr inbounds double, double* %205, i64 2
  %207 = load double, double* %206, align 8
  %208 = load double*, double** %11, align 8
  %209 = getelementptr inbounds double, double* %208, i64 2
  %210 = load double, double* %209, align 8
  %211 = load double*, double** %12, align 8
  %212 = getelementptr inbounds double, double* %211, i64 2
  %213 = load double, double* %212, align 8
  call void @_Z17SumElemFaceNormalPdS_S_S_S_S_S_S_S_S_S_S_dddddddddddd(double* %155, double* %157, double* %159, double* %161, double* %163, double* %165, double* %167, double* %169, double* %171, double* %173, double* %175, double* %177, double %180, double %183, double %186, double %189, double %192, double %195, double %198, double %201, double %204, double %207, double %210, double %213)
  %214 = load double*, double** %7, align 8
  %215 = getelementptr inbounds double, double* %214, i64 2
  %216 = load double*, double** %8, align 8
  %217 = getelementptr inbounds double, double* %216, i64 2
  %218 = load double*, double** %9, align 8
  %219 = getelementptr inbounds double, double* %218, i64 2
  %220 = load double*, double** %7, align 8
  %221 = getelementptr inbounds double, double* %220, i64 6
  %222 = load double*, double** %8, align 8
  %223 = getelementptr inbounds double, double* %222, i64 6
  %224 = load double*, double** %9, align 8
  %225 = getelementptr inbounds double, double* %224, i64 6
  %226 = load double*, double** %7, align 8
  %227 = getelementptr inbounds double, double* %226, i64 7
  %228 = load double*, double** %8, align 8
  %229 = getelementptr inbounds double, double* %228, i64 7
  %230 = load double*, double** %9, align 8
  %231 = getelementptr inbounds double, double* %230, i64 7
  %232 = load double*, double** %7, align 8
  %233 = getelementptr inbounds double, double* %232, i64 3
  %234 = load double*, double** %8, align 8
  %235 = getelementptr inbounds double, double* %234, i64 3
  %236 = load double*, double** %9, align 8
  %237 = getelementptr inbounds double, double* %236, i64 3
  %238 = load double*, double** %10, align 8
  %239 = getelementptr inbounds double, double* %238, i64 2
  %240 = load double, double* %239, align 8
  %241 = load double*, double** %11, align 8
  %242 = getelementptr inbounds double, double* %241, i64 2
  %243 = load double, double* %242, align 8
  %244 = load double*, double** %12, align 8
  %245 = getelementptr inbounds double, double* %244, i64 2
  %246 = load double, double* %245, align 8
  %247 = load double*, double** %10, align 8
  %248 = getelementptr inbounds double, double* %247, i64 6
  %249 = load double, double* %248, align 8
  %250 = load double*, double** %11, align 8
  %251 = getelementptr inbounds double, double* %250, i64 6
  %252 = load double, double* %251, align 8
  %253 = load double*, double** %12, align 8
  %254 = getelementptr inbounds double, double* %253, i64 6
  %255 = load double, double* %254, align 8
  %256 = load double*, double** %10, align 8
  %257 = getelementptr inbounds double, double* %256, i64 7
  %258 = load double, double* %257, align 8
  %259 = load double*, double** %11, align 8
  %260 = getelementptr inbounds double, double* %259, i64 7
  %261 = load double, double* %260, align 8
  %262 = load double*, double** %12, align 8
  %263 = getelementptr inbounds double, double* %262, i64 7
  %264 = load double, double* %263, align 8
  %265 = load double*, double** %10, align 8
  %266 = getelementptr inbounds double, double* %265, i64 3
  %267 = load double, double* %266, align 8
  %268 = load double*, double** %11, align 8
  %269 = getelementptr inbounds double, double* %268, i64 3
  %270 = load double, double* %269, align 8
  %271 = load double*, double** %12, align 8
  %272 = getelementptr inbounds double, double* %271, i64 3
  %273 = load double, double* %272, align 8
  call void @_Z17SumElemFaceNormalPdS_S_S_S_S_S_S_S_S_S_S_dddddddddddd(double* %215, double* %217, double* %219, double* %221, double* %223, double* %225, double* %227, double* %229, double* %231, double* %233, double* %235, double* %237, double %240, double %243, double %246, double %249, double %252, double %255, double %258, double %261, double %264, double %267, double %270, double %273)
  %274 = load double*, double** %7, align 8
  %275 = getelementptr inbounds double, double* %274, i64 3
  %276 = load double*, double** %8, align 8
  %277 = getelementptr inbounds double, double* %276, i64 3
  %278 = load double*, double** %9, align 8
  %279 = getelementptr inbounds double, double* %278, i64 3
  %280 = load double*, double** %7, align 8
  %281 = getelementptr inbounds double, double* %280, i64 7
  %282 = load double*, double** %8, align 8
  %283 = getelementptr inbounds double, double* %282, i64 7
  %284 = load double*, double** %9, align 8
  %285 = getelementptr inbounds double, double* %284, i64 7
  %286 = load double*, double** %7, align 8
  %287 = getelementptr inbounds double, double* %286, i64 4
  %288 = load double*, double** %8, align 8
  %289 = getelementptr inbounds double, double* %288, i64 4
  %290 = load double*, double** %9, align 8
  %291 = getelementptr inbounds double, double* %290, i64 4
  %292 = load double*, double** %7, align 8
  %293 = getelementptr inbounds double, double* %292, i64 0
  %294 = load double*, double** %8, align 8
  %295 = getelementptr inbounds double, double* %294, i64 0
  %296 = load double*, double** %9, align 8
  %297 = getelementptr inbounds double, double* %296, i64 0
  %298 = load double*, double** %10, align 8
  %299 = getelementptr inbounds double, double* %298, i64 3
  %300 = load double, double* %299, align 8
  %301 = load double*, double** %11, align 8
  %302 = getelementptr inbounds double, double* %301, i64 3
  %303 = load double, double* %302, align 8
  %304 = load double*, double** %12, align 8
  %305 = getelementptr inbounds double, double* %304, i64 3
  %306 = load double, double* %305, align 8
  %307 = load double*, double** %10, align 8
  %308 = getelementptr inbounds double, double* %307, i64 7
  %309 = load double, double* %308, align 8
  %310 = load double*, double** %11, align 8
  %311 = getelementptr inbounds double, double* %310, i64 7
  %312 = load double, double* %311, align 8
  %313 = load double*, double** %12, align 8
  %314 = getelementptr inbounds double, double* %313, i64 7
  %315 = load double, double* %314, align 8
  %316 = load double*, double** %10, align 8
  %317 = getelementptr inbounds double, double* %316, i64 4
  %318 = load double, double* %317, align 8
  %319 = load double*, double** %11, align 8
  %320 = getelementptr inbounds double, double* %319, i64 4
  %321 = load double, double* %320, align 8
  %322 = load double*, double** %12, align 8
  %323 = getelementptr inbounds double, double* %322, i64 4
  %324 = load double, double* %323, align 8
  %325 = load double*, double** %10, align 8
  %326 = getelementptr inbounds double, double* %325, i64 0
  %327 = load double, double* %326, align 8
  %328 = load double*, double** %11, align 8
  %329 = getelementptr inbounds double, double* %328, i64 0
  %330 = load double, double* %329, align 8
  %331 = load double*, double** %12, align 8
  %332 = getelementptr inbounds double, double* %331, i64 0
  %333 = load double, double* %332, align 8
  call void @_Z17SumElemFaceNormalPdS_S_S_S_S_S_S_S_S_S_S_dddddddddddd(double* %275, double* %277, double* %279, double* %281, double* %283, double* %285, double* %287, double* %289, double* %291, double* %293, double* %295, double* %297, double %300, double %303, double %306, double %309, double %312, double %315, double %318, double %321, double %324, double %327, double %330, double %333)
  %334 = load double*, double** %7, align 8
  %335 = getelementptr inbounds double, double* %334, i64 4
  %336 = load double*, double** %8, align 8
  %337 = getelementptr inbounds double, double* %336, i64 4
  %338 = load double*, double** %9, align 8
  %339 = getelementptr inbounds double, double* %338, i64 4
  %340 = load double*, double** %7, align 8
  %341 = getelementptr inbounds double, double* %340, i64 7
  %342 = load double*, double** %8, align 8
  %343 = getelementptr inbounds double, double* %342, i64 7
  %344 = load double*, double** %9, align 8
  %345 = getelementptr inbounds double, double* %344, i64 7
  %346 = load double*, double** %7, align 8
  %347 = getelementptr inbounds double, double* %346, i64 6
  %348 = load double*, double** %8, align 8
  %349 = getelementptr inbounds double, double* %348, i64 6
  %350 = load double*, double** %9, align 8
  %351 = getelementptr inbounds double, double* %350, i64 6
  %352 = load double*, double** %7, align 8
  %353 = getelementptr inbounds double, double* %352, i64 5
  %354 = load double*, double** %8, align 8
  %355 = getelementptr inbounds double, double* %354, i64 5
  %356 = load double*, double** %9, align 8
  %357 = getelementptr inbounds double, double* %356, i64 5
  %358 = load double*, double** %10, align 8
  %359 = getelementptr inbounds double, double* %358, i64 4
  %360 = load double, double* %359, align 8
  %361 = load double*, double** %11, align 8
  %362 = getelementptr inbounds double, double* %361, i64 4
  %363 = load double, double* %362, align 8
  %364 = load double*, double** %12, align 8
  %365 = getelementptr inbounds double, double* %364, i64 4
  %366 = load double, double* %365, align 8
  %367 = load double*, double** %10, align 8
  %368 = getelementptr inbounds double, double* %367, i64 7
  %369 = load double, double* %368, align 8
  %370 = load double*, double** %11, align 8
  %371 = getelementptr inbounds double, double* %370, i64 7
  %372 = load double, double* %371, align 8
  %373 = load double*, double** %12, align 8
  %374 = getelementptr inbounds double, double* %373, i64 7
  %375 = load double, double* %374, align 8
  %376 = load double*, double** %10, align 8
  %377 = getelementptr inbounds double, double* %376, i64 6
  %378 = load double, double* %377, align 8
  %379 = load double*, double** %11, align 8
  %380 = getelementptr inbounds double, double* %379, i64 6
  %381 = load double, double* %380, align 8
  %382 = load double*, double** %12, align 8
  %383 = getelementptr inbounds double, double* %382, i64 6
  %384 = load double, double* %383, align 8
  %385 = load double*, double** %10, align 8
  %386 = getelementptr inbounds double, double* %385, i64 5
  %387 = load double, double* %386, align 8
  %388 = load double*, double** %11, align 8
  %389 = getelementptr inbounds double, double* %388, i64 5
  %390 = load double, double* %389, align 8
  %391 = load double*, double** %12, align 8
  %392 = getelementptr inbounds double, double* %391, i64 5
  %393 = load double, double* %392, align 8
  call void @_Z17SumElemFaceNormalPdS_S_S_S_S_S_S_S_S_S_S_dddddddddddd(double* %335, double* %337, double* %339, double* %341, double* %343, double* %345, double* %347, double* %349, double* %351, double* %353, double* %355, double* %357, double %360, double %363, double %366, double %369, double %372, double %375, double %378, double %381, double %384, double %387, double %390, double %393)
  ret void
}

; Function Attrs: mustprogress noinline nounwind uwtable
define dso_local void @_Z27SumElemStressesToNodeForcesPA8_KddddPdS2_S2_([8 x double]* %0, double %1, double %2, double %3, double* %4, double* %5, double* %6) #4 {
  %8 = alloca [8 x double]*, align 8
  %9 = alloca double, align 8
  %10 = alloca double, align 8
  %11 = alloca double, align 8
  %12 = alloca double*, align 8
  %13 = alloca double*, align 8
  %14 = alloca double*, align 8
  %15 = alloca double, align 8
  %16 = alloca double, align 8
  %17 = alloca double, align 8
  %18 = alloca double, align 8
  %19 = alloca double, align 8
  %20 = alloca double, align 8
  %21 = alloca double, align 8
  %22 = alloca double, align 8
  %23 = alloca double, align 8
  %24 = alloca double, align 8
  %25 = alloca double, align 8
  %26 = alloca double, align 8
  %27 = alloca double, align 8
  %28 = alloca double, align 8
  %29 = alloca double, align 8
  %30 = alloca double, align 8
  %31 = alloca double, align 8
  %32 = alloca double, align 8
  %33 = alloca double, align 8
  %34 = alloca double, align 8
  %35 = alloca double, align 8
  %36 = alloca double, align 8
  %37 = alloca double, align 8
  %38 = alloca double, align 8
  store [8 x double]* %0, [8 x double]** %8, align 8
  store double %1, double* %9, align 8
  store double %2, double* %10, align 8
  store double %3, double* %11, align 8
  store double* %4, double** %12, align 8
  store double* %5, double** %13, align 8
  store double* %6, double** %14, align 8
  %39 = load [8 x double]*, [8 x double]** %8, align 8
  %40 = getelementptr inbounds [8 x double], [8 x double]* %39, i64 0
  %41 = getelementptr inbounds [8 x double], [8 x double]* %40, i64 0, i64 0
  %42 = load double, double* %41, align 8
  store double %42, double* %15, align 8
  %43 = load [8 x double]*, [8 x double]** %8, align 8
  %44 = getelementptr inbounds [8 x double], [8 x double]* %43, i64 0
  %45 = getelementptr inbounds [8 x double], [8 x double]* %44, i64 0, i64 1
  %46 = load double, double* %45, align 8
  store double %46, double* %16, align 8
  %47 = load [8 x double]*, [8 x double]** %8, align 8
  %48 = getelementptr inbounds [8 x double], [8 x double]* %47, i64 0
  %49 = getelementptr inbounds [8 x double], [8 x double]* %48, i64 0, i64 2
  %50 = load double, double* %49, align 8
  store double %50, double* %17, align 8
  %51 = load [8 x double]*, [8 x double]** %8, align 8
  %52 = getelementptr inbounds [8 x double], [8 x double]* %51, i64 0
  %53 = getelementptr inbounds [8 x double], [8 x double]* %52, i64 0, i64 3
  %54 = load double, double* %53, align 8
  store double %54, double* %18, align 8
  %55 = load [8 x double]*, [8 x double]** %8, align 8
  %56 = getelementptr inbounds [8 x double], [8 x double]* %55, i64 0
  %57 = getelementptr inbounds [8 x double], [8 x double]* %56, i64 0, i64 4
  %58 = load double, double* %57, align 8
  store double %58, double* %19, align 8
  %59 = load [8 x double]*, [8 x double]** %8, align 8
  %60 = getelementptr inbounds [8 x double], [8 x double]* %59, i64 0
  %61 = getelementptr inbounds [8 x double], [8 x double]* %60, i64 0, i64 5
  %62 = load double, double* %61, align 8
  store double %62, double* %20, align 8
  %63 = load [8 x double]*, [8 x double]** %8, align 8
  %64 = getelementptr inbounds [8 x double], [8 x double]* %63, i64 0
  %65 = getelementptr inbounds [8 x double], [8 x double]* %64, i64 0, i64 6
  %66 = load double, double* %65, align 8
  store double %66, double* %21, align 8
  %67 = load [8 x double]*, [8 x double]** %8, align 8
  %68 = getelementptr inbounds [8 x double], [8 x double]* %67, i64 0
  %69 = getelementptr inbounds [8 x double], [8 x double]* %68, i64 0, i64 7
  %70 = load double, double* %69, align 8
  store double %70, double* %22, align 8
  %71 = load [8 x double]*, [8 x double]** %8, align 8
  %72 = getelementptr inbounds [8 x double], [8 x double]* %71, i64 1
  %73 = getelementptr inbounds [8 x double], [8 x double]* %72, i64 0, i64 0
  %74 = load double, double* %73, align 8
  store double %74, double* %23, align 8
  %75 = load [8 x double]*, [8 x double]** %8, align 8
  %76 = getelementptr inbounds [8 x double], [8 x double]* %75, i64 1
  %77 = getelementptr inbounds [8 x double], [8 x double]* %76, i64 0, i64 1
  %78 = load double, double* %77, align 8
  store double %78, double* %24, align 8
  %79 = load [8 x double]*, [8 x double]** %8, align 8
  %80 = getelementptr inbounds [8 x double], [8 x double]* %79, i64 1
  %81 = getelementptr inbounds [8 x double], [8 x double]* %80, i64 0, i64 2
  %82 = load double, double* %81, align 8
  store double %82, double* %25, align 8
  %83 = load [8 x double]*, [8 x double]** %8, align 8
  %84 = getelementptr inbounds [8 x double], [8 x double]* %83, i64 1
  %85 = getelementptr inbounds [8 x double], [8 x double]* %84, i64 0, i64 3
  %86 = load double, double* %85, align 8
  store double %86, double* %26, align 8
  %87 = load [8 x double]*, [8 x double]** %8, align 8
  %88 = getelementptr inbounds [8 x double], [8 x double]* %87, i64 1
  %89 = getelementptr inbounds [8 x double], [8 x double]* %88, i64 0, i64 4
  %90 = load double, double* %89, align 8
  store double %90, double* %27, align 8
  %91 = load [8 x double]*, [8 x double]** %8, align 8
  %92 = getelementptr inbounds [8 x double], [8 x double]* %91, i64 1
  %93 = getelementptr inbounds [8 x double], [8 x double]* %92, i64 0, i64 5
  %94 = load double, double* %93, align 8
  store double %94, double* %28, align 8
  %95 = load [8 x double]*, [8 x double]** %8, align 8
  %96 = getelementptr inbounds [8 x double], [8 x double]* %95, i64 1
  %97 = getelementptr inbounds [8 x double], [8 x double]* %96, i64 0, i64 6
  %98 = load double, double* %97, align 8
  store double %98, double* %29, align 8
  %99 = load [8 x double]*, [8 x double]** %8, align 8
  %100 = getelementptr inbounds [8 x double], [8 x double]* %99, i64 1
  %101 = getelementptr inbounds [8 x double], [8 x double]* %100, i64 0, i64 7
  %102 = load double, double* %101, align 8
  store double %102, double* %30, align 8
  %103 = load [8 x double]*, [8 x double]** %8, align 8
  %104 = getelementptr inbounds [8 x double], [8 x double]* %103, i64 2
  %105 = getelementptr inbounds [8 x double], [8 x double]* %104, i64 0, i64 0
  %106 = load double, double* %105, align 8
  store double %106, double* %31, align 8
  %107 = load [8 x double]*, [8 x double]** %8, align 8
  %108 = getelementptr inbounds [8 x double], [8 x double]* %107, i64 2
  %109 = getelementptr inbounds [8 x double], [8 x double]* %108, i64 0, i64 1
  %110 = load double, double* %109, align 8
  store double %110, double* %32, align 8
  %111 = load [8 x double]*, [8 x double]** %8, align 8
  %112 = getelementptr inbounds [8 x double], [8 x double]* %111, i64 2
  %113 = getelementptr inbounds [8 x double], [8 x double]* %112, i64 0, i64 2
  %114 = load double, double* %113, align 8
  store double %114, double* %33, align 8
  %115 = load [8 x double]*, [8 x double]** %8, align 8
  %116 = getelementptr inbounds [8 x double], [8 x double]* %115, i64 2
  %117 = getelementptr inbounds [8 x double], [8 x double]* %116, i64 0, i64 3
  %118 = load double, double* %117, align 8
  store double %118, double* %34, align 8
  %119 = load [8 x double]*, [8 x double]** %8, align 8
  %120 = getelementptr inbounds [8 x double], [8 x double]* %119, i64 2
  %121 = getelementptr inbounds [8 x double], [8 x double]* %120, i64 0, i64 4
  %122 = load double, double* %121, align 8
  store double %122, double* %35, align 8
  %123 = load [8 x double]*, [8 x double]** %8, align 8
  %124 = getelementptr inbounds [8 x double], [8 x double]* %123, i64 2
  %125 = getelementptr inbounds [8 x double], [8 x double]* %124, i64 0, i64 5
  %126 = load double, double* %125, align 8
  store double %126, double* %36, align 8
  %127 = load [8 x double]*, [8 x double]** %8, align 8
  %128 = getelementptr inbounds [8 x double], [8 x double]* %127, i64 2
  %129 = getelementptr inbounds [8 x double], [8 x double]* %128, i64 0, i64 6
  %130 = load double, double* %129, align 8
  store double %130, double* %37, align 8
  %131 = load [8 x double]*, [8 x double]** %8, align 8
  %132 = getelementptr inbounds [8 x double], [8 x double]* %131, i64 2
  %133 = getelementptr inbounds [8 x double], [8 x double]* %132, i64 0, i64 7
  %134 = load double, double* %133, align 8
  store double %134, double* %38, align 8
  %135 = load double, double* %9, align 8
  %136 = load double, double* %15, align 8
  %137 = fmul double %135, %136
  %138 = fneg double %137
  %139 = load double*, double** %12, align 8
  %140 = getelementptr inbounds double, double* %139, i64 0
  store double %138, double* %140, align 8
  %141 = load double, double* %9, align 8
  %142 = load double, double* %16, align 8
  %143 = fmul double %141, %142
  %144 = fneg double %143
  %145 = load double*, double** %12, align 8
  %146 = getelementptr inbounds double, double* %145, i64 1
  store double %144, double* %146, align 8
  %147 = load double, double* %9, align 8
  %148 = load double, double* %17, align 8
  %149 = fmul double %147, %148
  %150 = fneg double %149
  %151 = load double*, double** %12, align 8
  %152 = getelementptr inbounds double, double* %151, i64 2
  store double %150, double* %152, align 8
  %153 = load double, double* %9, align 8
  %154 = load double, double* %18, align 8
  %155 = fmul double %153, %154
  %156 = fneg double %155
  %157 = load double*, double** %12, align 8
  %158 = getelementptr inbounds double, double* %157, i64 3
  store double %156, double* %158, align 8
  %159 = load double, double* %9, align 8
  %160 = load double, double* %19, align 8
  %161 = fmul double %159, %160
  %162 = fneg double %161
  %163 = load double*, double** %12, align 8
  %164 = getelementptr inbounds double, double* %163, i64 4
  store double %162, double* %164, align 8
  %165 = load double, double* %9, align 8
  %166 = load double, double* %20, align 8
  %167 = fmul double %165, %166
  %168 = fneg double %167
  %169 = load double*, double** %12, align 8
  %170 = getelementptr inbounds double, double* %169, i64 5
  store double %168, double* %170, align 8
  %171 = load double, double* %9, align 8
  %172 = load double, double* %21, align 8
  %173 = fmul double %171, %172
  %174 = fneg double %173
  %175 = load double*, double** %12, align 8
  %176 = getelementptr inbounds double, double* %175, i64 6
  store double %174, double* %176, align 8
  %177 = load double, double* %9, align 8
  %178 = load double, double* %22, align 8
  %179 = fmul double %177, %178
  %180 = fneg double %179
  %181 = load double*, double** %12, align 8
  %182 = getelementptr inbounds double, double* %181, i64 7
  store double %180, double* %182, align 8
  %183 = load double, double* %10, align 8
  %184 = load double, double* %23, align 8
  %185 = fmul double %183, %184
  %186 = fneg double %185
  %187 = load double*, double** %13, align 8
  %188 = getelementptr inbounds double, double* %187, i64 0
  store double %186, double* %188, align 8
  %189 = load double, double* %10, align 8
  %190 = load double, double* %24, align 8
  %191 = fmul double %189, %190
  %192 = fneg double %191
  %193 = load double*, double** %13, align 8
  %194 = getelementptr inbounds double, double* %193, i64 1
  store double %192, double* %194, align 8
  %195 = load double, double* %10, align 8
  %196 = load double, double* %25, align 8
  %197 = fmul double %195, %196
  %198 = fneg double %197
  %199 = load double*, double** %13, align 8
  %200 = getelementptr inbounds double, double* %199, i64 2
  store double %198, double* %200, align 8
  %201 = load double, double* %10, align 8
  %202 = load double, double* %26, align 8
  %203 = fmul double %201, %202
  %204 = fneg double %203
  %205 = load double*, double** %13, align 8
  %206 = getelementptr inbounds double, double* %205, i64 3
  store double %204, double* %206, align 8
  %207 = load double, double* %10, align 8
  %208 = load double, double* %27, align 8
  %209 = fmul double %207, %208
  %210 = fneg double %209
  %211 = load double*, double** %13, align 8
  %212 = getelementptr inbounds double, double* %211, i64 4
  store double %210, double* %212, align 8
  %213 = load double, double* %10, align 8
  %214 = load double, double* %28, align 8
  %215 = fmul double %213, %214
  %216 = fneg double %215
  %217 = load double*, double** %13, align 8
  %218 = getelementptr inbounds double, double* %217, i64 5
  store double %216, double* %218, align 8
  %219 = load double, double* %10, align 8
  %220 = load double, double* %29, align 8
  %221 = fmul double %219, %220
  %222 = fneg double %221
  %223 = load double*, double** %13, align 8
  %224 = getelementptr inbounds double, double* %223, i64 6
  store double %222, double* %224, align 8
  %225 = load double, double* %10, align 8
  %226 = load double, double* %30, align 8
  %227 = fmul double %225, %226
  %228 = fneg double %227
  %229 = load double*, double** %13, align 8
  %230 = getelementptr inbounds double, double* %229, i64 7
  store double %228, double* %230, align 8
  %231 = load double, double* %11, align 8
  %232 = load double, double* %31, align 8
  %233 = fmul double %231, %232
  %234 = fneg double %233
  %235 = load double*, double** %14, align 8
  %236 = getelementptr inbounds double, double* %235, i64 0
  store double %234, double* %236, align 8
  %237 = load double, double* %11, align 8
  %238 = load double, double* %32, align 8
  %239 = fmul double %237, %238
  %240 = fneg double %239
  %241 = load double*, double** %14, align 8
  %242 = getelementptr inbounds double, double* %241, i64 1
  store double %240, double* %242, align 8
  %243 = load double, double* %11, align 8
  %244 = load double, double* %33, align 8
  %245 = fmul double %243, %244
  %246 = fneg double %245
  %247 = load double*, double** %14, align 8
  %248 = getelementptr inbounds double, double* %247, i64 2
  store double %246, double* %248, align 8
  %249 = load double, double* %11, align 8
  %250 = load double, double* %34, align 8
  %251 = fmul double %249, %250
  %252 = fneg double %251
  %253 = load double*, double** %14, align 8
  %254 = getelementptr inbounds double, double* %253, i64 3
  store double %252, double* %254, align 8
  %255 = load double, double* %11, align 8
  %256 = load double, double* %35, align 8
  %257 = fmul double %255, %256
  %258 = fneg double %257
  %259 = load double*, double** %14, align 8
  %260 = getelementptr inbounds double, double* %259, i64 4
  store double %258, double* %260, align 8
  %261 = load double, double* %11, align 8
  %262 = load double, double* %36, align 8
  %263 = fmul double %261, %262
  %264 = fneg double %263
  %265 = load double*, double** %14, align 8
  %266 = getelementptr inbounds double, double* %265, i64 5
  store double %264, double* %266, align 8
  %267 = load double, double* %11, align 8
  %268 = load double, double* %37, align 8
  %269 = fmul double %267, %268
  %270 = fneg double %269
  %271 = load double*, double** %14, align 8
  %272 = getelementptr inbounds double, double* %271, i64 6
  store double %270, double* %272, align 8
  %273 = load double, double* %11, align 8
  %274 = load double, double* %38, align 8
  %275 = fmul double %273, %274
  %276 = fneg double %275
  %277 = load double*, double** %14, align 8
  %278 = getelementptr inbounds double, double* %277, i64 7
  store double %276, double* %278, align 8
  ret void
}

; Function Attrs: mustprogress noinline uwtable
define dso_local void @_Z23IntegrateStressForElemsiPdS_S_S_(i32 %0, double* %1, double* %2, double* %3, double* %4) #3 {
  %6 = alloca i32, align 4
  %7 = alloca double*, align 8
  %8 = alloca double*, align 8
  %9 = alloca double*, align 8
  %10 = alloca double*, align 8
  %11 = alloca [3 x [8 x double]], align 16
  %12 = alloca [8 x double], align 16
  %13 = alloca [8 x double], align 16
  %14 = alloca [8 x double], align 16
  %15 = alloca [8 x double], align 16
  %16 = alloca [8 x double], align 16
  %17 = alloca [8 x double], align 16
  %18 = alloca i32, align 4
  %19 = alloca i32*, align 8
  %20 = alloca i32, align 4
  %21 = alloca i32, align 4
  %22 = alloca i32, align 4
  %23 = alloca i32, align 4
  store i32 %0, i32* %6, align 4
  store double* %1, double** %7, align 8
  store double* %2, double** %8, align 8
  store double* %3, double** %9, align 8
  store double* %4, double** %10, align 8
  store i32 0, i32* %18, align 4
  br label %24

24:                                               ; preds = %135, %5
  %25 = load i32, i32* %18, align 4
  %26 = load i32, i32* %6, align 4
  %27 = icmp slt i32 %25, %26
  br i1 %27, label %28, label %138

28:                                               ; preds = %24
  %29 = load i32, i32* %18, align 4
  %30 = call i32* @_ZN4Mesh8nodelistEi(%struct.Mesh* nonnull align 8 dereferenceable(1376) @mesh, i32 %29)
  store i32* %30, i32** %19, align 8
  store i32 0, i32* %20, align 4
  br label %31

31:                                               ; preds = %58, %28
  %32 = load i32, i32* %20, align 4
  %33 = icmp slt i32 %32, 8
  br i1 %33, label %34, label %61

34:                                               ; preds = %31
  %35 = load i32*, i32** %19, align 8
  %36 = load i32, i32* %20, align 4
  %37 = sext i32 %36 to i64
  %38 = getelementptr inbounds i32, i32* %35, i64 %37
  %39 = load i32, i32* %38, align 4
  store i32 %39, i32* %21, align 4
  %40 = load i32, i32* %21, align 4
  %41 = call nonnull align 8 dereferenceable(8) double* @_ZN4Mesh1xEi(%struct.Mesh* nonnull align 8 dereferenceable(1376) @mesh, i32 %40)
  %42 = load double, double* %41, align 8
  %43 = load i32, i32* %20, align 4
  %44 = sext i32 %43 to i64
  %45 = getelementptr inbounds [8 x double], [8 x double]* %12, i64 0, i64 %44
  store double %42, double* %45, align 8
  %46 = load i32, i32* %21, align 4
  %47 = call nonnull align 8 dereferenceable(8) double* @_ZN4Mesh1yEi(%struct.Mesh* nonnull align 8 dereferenceable(1376) @mesh, i32 %46)
  %48 = load double, double* %47, align 8
  %49 = load i32, i32* %20, align 4
  %50 = sext i32 %49 to i64
  %51 = getelementptr inbounds [8 x double], [8 x double]* %13, i64 0, i64 %50
  store double %48, double* %51, align 8
  %52 = load i32, i32* %21, align 4
  %53 = call nonnull align 8 dereferenceable(8) double* @_ZN4Mesh1zEi(%struct.Mesh* nonnull align 8 dereferenceable(1376) @mesh, i32 %52)
  %54 = load double, double* %53, align 8
  %55 = load i32, i32* %20, align 4
  %56 = sext i32 %55 to i64
  %57 = getelementptr inbounds [8 x double], [8 x double]* %14, i64 0, i64 %56
  store double %54, double* %57, align 8
  br label %58

58:                                               ; preds = %34
  %59 = load i32, i32* %20, align 4
  %60 = add nsw i32 %59, 1
  store i32 %60, i32* %20, align 4
  br label %31, !llvm.loop !7

61:                                               ; preds = %31
  %62 = getelementptr inbounds [8 x double], [8 x double]* %12, i64 0, i64 0
  %63 = getelementptr inbounds [8 x double], [8 x double]* %13, i64 0, i64 0
  %64 = getelementptr inbounds [8 x double], [8 x double]* %14, i64 0, i64 0
  %65 = getelementptr inbounds [3 x [8 x double]], [3 x [8 x double]]* %11, i64 0, i64 0
  %66 = load double*, double** %10, align 8
  %67 = load i32, i32* %18, align 4
  %68 = sext i32 %67 to i64
  %69 = getelementptr inbounds double, double* %66, i64 %68
  call void @_Z32CalcElemShapeFunctionDerivativesPKdS0_S0_PA8_dPd(double* %62, double* %63, double* %64, [8 x double]* %65, double* %69)
  %70 = getelementptr inbounds [3 x [8 x double]], [3 x [8 x double]]* %11, i64 0, i64 0
  %71 = getelementptr inbounds [8 x double], [8 x double]* %70, i64 0, i64 0
  %72 = getelementptr inbounds [3 x [8 x double]], [3 x [8 x double]]* %11, i64 0, i64 1
  %73 = getelementptr inbounds [8 x double], [8 x double]* %72, i64 0, i64 0
  %74 = getelementptr inbounds [3 x [8 x double]], [3 x [8 x double]]* %11, i64 0, i64 2
  %75 = getelementptr inbounds [8 x double], [8 x double]* %74, i64 0, i64 0
  %76 = getelementptr inbounds [8 x double], [8 x double]* %12, i64 0, i64 0
  %77 = getelementptr inbounds [8 x double], [8 x double]* %13, i64 0, i64 0
  %78 = getelementptr inbounds [8 x double], [8 x double]* %14, i64 0, i64 0
  call void @_Z19CalcElemNodeNormalsPdS_S_PKdS1_S1_(double* %71, double* %73, double* %75, double* %76, double* %77, double* %78)
  %79 = getelementptr inbounds [3 x [8 x double]], [3 x [8 x double]]* %11, i64 0, i64 0
  %80 = load double*, double** %7, align 8
  %81 = load i32, i32* %18, align 4
  %82 = sext i32 %81 to i64
  %83 = getelementptr inbounds double, double* %80, i64 %82
  %84 = load double, double* %83, align 8
  %85 = load double*, double** %8, align 8
  %86 = load i32, i32* %18, align 4
  %87 = sext i32 %86 to i64
  %88 = getelementptr inbounds double, double* %85, i64 %87
  %89 = load double, double* %88, align 8
  %90 = load double*, double** %9, align 8
  %91 = load i32, i32* %18, align 4
  %92 = sext i32 %91 to i64
  %93 = getelementptr inbounds double, double* %90, i64 %92
  %94 = load double, double* %93, align 8
  %95 = getelementptr inbounds [8 x double], [8 x double]* %15, i64 0, i64 0
  %96 = getelementptr inbounds [8 x double], [8 x double]* %16, i64 0, i64 0
  %97 = getelementptr inbounds [8 x double], [8 x double]* %17, i64 0, i64 0
  call void @_Z27SumElemStressesToNodeForcesPA8_KddddPdS2_S2_([8 x double]* %79, double %84, double %89, double %94, double* %95, double* %96, double* %97)
  store i32 0, i32* %22, align 4
  br label %98

98:                                               ; preds = %131, %61
  %99 = load i32, i32* %22, align 4
  %100 = icmp slt i32 %99, 8
  br i1 %100, label %101, label %134

101:                                              ; preds = %98
  %102 = load i32*, i32** %19, align 8
  %103 = load i32, i32* %22, align 4
  %104 = sext i32 %103 to i64
  %105 = getelementptr inbounds i32, i32* %102, i64 %104
  %106 = load i32, i32* %105, align 4
  store i32 %106, i32* %23, align 4
  %107 = load i32, i32* %22, align 4
  %108 = sext i32 %107 to i64
  %109 = getelementptr inbounds [8 x double], [8 x double]* %15, i64 0, i64 %108
  %110 = load double, double* %109, align 8
  %111 = load i32, i32* %23, align 4
  %112 = call nonnull align 8 dereferenceable(8) double* @_ZN4Mesh2fxEi(%struct.Mesh* nonnull align 8 dereferenceable(1376) @mesh, i32 %111)
  %113 = load double, double* %112, align 8
  %114 = fadd double %113, %110
  store double %114, double* %112, align 8
  %115 = load i32, i32* %22, align 4
  %116 = sext i32 %115 to i64
  %117 = getelementptr inbounds [8 x double], [8 x double]* %16, i64 0, i64 %116
  %118 = load double, double* %117, align 8
  %119 = load i32, i32* %23, align 4
  %120 = call nonnull align 8 dereferenceable(8) double* @_ZN4Mesh2fyEi(%struct.Mesh* nonnull align 8 dereferenceable(1376) @mesh, i32 %119)
  %121 = load double, double* %120, align 8
  %122 = fadd double %121, %118
  store double %122, double* %120, align 8
  %123 = load i32, i32* %22, align 4
  %124 = sext i32 %123 to i64
  %125 = getelementptr inbounds [8 x double], [8 x double]* %17, i64 0, i64 %124
  %126 = load double, double* %125, align 8
  %127 = load i32, i32* %23, align 4
  %128 = call nonnull align 8 dereferenceable(8) double* @_ZN4Mesh2fzEi(%struct.Mesh* nonnull align 8 dereferenceable(1376) @mesh, i32 %127)
  %129 = load double, double* %128, align 8
  %130 = fadd double %129, %126
  store double %130, double* %128, align 8
  br label %131

131:                                              ; preds = %101
  %132 = load i32, i32* %22, align 4
  %133 = add nsw i32 %132, 1
  store i32 %133, i32* %22, align 4
  br label %98, !llvm.loop !8

134:                                              ; preds = %98
  br label %135

135:                                              ; preds = %134
  %136 = load i32, i32* %18, align 4
  %137 = add nsw i32 %136, 1
  store i32 %137, i32* %18, align 4
  br label %24, !llvm.loop !9

138:                                              ; preds = %24
  ret void
}

; Function Attrs: mustprogress noinline nounwind uwtable
define linkonce_odr dso_local i32* @_ZN4Mesh8nodelistEi(%struct.Mesh* nonnull align 8 dereferenceable(1376) %0, i32 %1) #4 comdat align 2 {
  %3 = alloca %struct.Mesh*, align 8
  %4 = alloca i32, align 4
  store %struct.Mesh* %0, %struct.Mesh** %3, align 8
  store i32 %1, i32* %4, align 4
  %5 = load %struct.Mesh*, %struct.Mesh** %3, align 8
  %6 = getelementptr inbounds %struct.Mesh, %struct.Mesh* %5, i32 0, i32 17
  %7 = load i32, i32* %4, align 4
  %8 = mul nsw i32 8, %7
  %9 = sext i32 %8 to i64
  %10 = call nonnull align 4 dereferenceable(4) i32* @_ZNSt6vectorIiSaIiEEixEm(%"class.std::vector.0"* nonnull align 8 dereferenceable(24) %6, i64 %9) #2
  ret i32* %10
}

; Function Attrs: mustprogress noinline nounwind uwtable
define linkonce_odr dso_local nonnull align 8 dereferenceable(8) double* @_ZN4Mesh1xEi(%struct.Mesh* nonnull align 8 dereferenceable(1376) %0, i32 %1) #4 comdat align 2 {
  %3 = alloca %struct.Mesh*, align 8
  %4 = alloca i32, align 4
  store %struct.Mesh* %0, %struct.Mesh** %3, align 8
  store i32 %1, i32* %4, align 4
  %5 = load %struct.Mesh*, %struct.Mesh** %3, align 8
  %6 = getelementptr inbounds %struct.Mesh, %struct.Mesh* %5, i32 0, i32 0
  %7 = load i32, i32* %4, align 4
  %8 = sext i32 %7 to i64
  %9 = call nonnull align 8 dereferenceable(8) double* @_ZNSt6vectorIdSaIdEEixEm(%"class.std::vector"* nonnull align 8 dereferenceable(24) %6, i64 %8) #2
  ret double* %9
}

; Function Attrs: mustprogress noinline nounwind uwtable
define linkonce_odr dso_local nonnull align 8 dereferenceable(8) double* @_ZN4Mesh1yEi(%struct.Mesh* nonnull align 8 dereferenceable(1376) %0, i32 %1) #4 comdat align 2 {
  %3 = alloca %struct.Mesh*, align 8
  %4 = alloca i32, align 4
  store %struct.Mesh* %0, %struct.Mesh** %3, align 8
  store i32 %1, i32* %4, align 4
  %5 = load %struct.Mesh*, %struct.Mesh** %3, align 8
  %6 = getelementptr inbounds %struct.Mesh, %struct.Mesh* %5, i32 0, i32 1
  %7 = load i32, i32* %4, align 4
  %8 = sext i32 %7 to i64
  %9 = call nonnull align 8 dereferenceable(8) double* @_ZNSt6vectorIdSaIdEEixEm(%"class.std::vector"* nonnull align 8 dereferenceable(24) %6, i64 %8) #2
  ret double* %9
}

; Function Attrs: mustprogress noinline nounwind uwtable
define linkonce_odr dso_local nonnull align 8 dereferenceable(8) double* @_ZN4Mesh1zEi(%struct.Mesh* nonnull align 8 dereferenceable(1376) %0, i32 %1) #4 comdat align 2 {
  %3 = alloca %struct.Mesh*, align 8
  %4 = alloca i32, align 4
  store %struct.Mesh* %0, %struct.Mesh** %3, align 8
  store i32 %1, i32* %4, align 4
  %5 = load %struct.Mesh*, %struct.Mesh** %3, align 8
  %6 = getelementptr inbounds %struct.Mesh, %struct.Mesh* %5, i32 0, i32 2
  %7 = load i32, i32* %4, align 4
  %8 = sext i32 %7 to i64
  %9 = call nonnull align 8 dereferenceable(8) double* @_ZNSt6vectorIdSaIdEEixEm(%"class.std::vector"* nonnull align 8 dereferenceable(24) %6, i64 %8) #2
  ret double* %9
}

; Function Attrs: mustprogress noinline nounwind uwtable
define linkonce_odr dso_local nonnull align 8 dereferenceable(8) double* @_ZN4Mesh2fxEi(%struct.Mesh* nonnull align 8 dereferenceable(1376) %0, i32 %1) #4 comdat align 2 {
  %3 = alloca %struct.Mesh*, align 8
  %4 = alloca i32, align 4
  store %struct.Mesh* %0, %struct.Mesh** %3, align 8
  store i32 %1, i32* %4, align 4
  %5 = load %struct.Mesh*, %struct.Mesh** %3, align 8
  %6 = getelementptr inbounds %struct.Mesh, %struct.Mesh* %5, i32 0, i32 9
  %7 = load i32, i32* %4, align 4
  %8 = sext i32 %7 to i64
  %9 = call nonnull align 8 dereferenceable(8) double* @_ZNSt6vectorIdSaIdEEixEm(%"class.std::vector"* nonnull align 8 dereferenceable(24) %6, i64 %8) #2
  ret double* %9
}

; Function Attrs: mustprogress noinline nounwind uwtable
define linkonce_odr dso_local nonnull align 8 dereferenceable(8) double* @_ZN4Mesh2fyEi(%struct.Mesh* nonnull align 8 dereferenceable(1376) %0, i32 %1) #4 comdat align 2 {
  %3 = alloca %struct.Mesh*, align 8
  %4 = alloca i32, align 4
  store %struct.Mesh* %0, %struct.Mesh** %3, align 8
  store i32 %1, i32* %4, align 4
  %5 = load %struct.Mesh*, %struct.Mesh** %3, align 8
  %6 = getelementptr inbounds %struct.Mesh, %struct.Mesh* %5, i32 0, i32 10
  %7 = load i32, i32* %4, align 4
  %8 = sext i32 %7 to i64
  %9 = call nonnull align 8 dereferenceable(8) double* @_ZNSt6vectorIdSaIdEEixEm(%"class.std::vector"* nonnull align 8 dereferenceable(24) %6, i64 %8) #2
  ret double* %9
}

; Function Attrs: mustprogress noinline nounwind uwtable
define linkonce_odr dso_local nonnull align 8 dereferenceable(8) double* @_ZN4Mesh2fzEi(%struct.Mesh* nonnull align 8 dereferenceable(1376) %0, i32 %1) #4 comdat align 2 {
  %3 = alloca %struct.Mesh*, align 8
  %4 = alloca i32, align 4
  store %struct.Mesh* %0, %struct.Mesh** %3, align 8
  store i32 %1, i32* %4, align 4
  %5 = load %struct.Mesh*, %struct.Mesh** %3, align 8
  %6 = getelementptr inbounds %struct.Mesh, %struct.Mesh* %5, i32 0, i32 11
  %7 = load i32, i32* %4, align 4
  %8 = sext i32 %7 to i64
  %9 = call nonnull align 8 dereferenceable(8) double* @_ZNSt6vectorIdSaIdEEixEm(%"class.std::vector"* nonnull align 8 dereferenceable(24) %6, i64 %8) #2
  ret double* %9
}

; Function Attrs: mustprogress noinline uwtable
define dso_local void @_Z29CollectDomainNodesToElemNodesPKiPdS1_S1_(i32* %0, double* %1, double* %2, double* %3) #3 {
  %5 = alloca i32*, align 8
  %6 = alloca double*, align 8
  %7 = alloca double*, align 8
  %8 = alloca double*, align 8
  %9 = alloca i32, align 4
  %10 = alloca i32, align 4
  %11 = alloca i32, align 4
  %12 = alloca i32, align 4
  %13 = alloca i32, align 4
  %14 = alloca i32, align 4
  %15 = alloca i32, align 4
  %16 = alloca i32, align 4
  store i32* %0, i32** %5, align 8
  store double* %1, double** %6, align 8
  store double* %2, double** %7, align 8
  store double* %3, double** %8, align 8
  %17 = load i32*, i32** %5, align 8
  %18 = getelementptr inbounds i32, i32* %17, i64 0
  %19 = load i32, i32* %18, align 4
  store i32 %19, i32* %9, align 4
  %20 = load i32*, i32** %5, align 8
  %21 = getelementptr inbounds i32, i32* %20, i64 1
  %22 = load i32, i32* %21, align 4
  store i32 %22, i32* %10, align 4
  %23 = load i32*, i32** %5, align 8
  %24 = getelementptr inbounds i32, i32* %23, i64 2
  %25 = load i32, i32* %24, align 4
  store i32 %25, i32* %11, align 4
  %26 = load i32*, i32** %5, align 8
  %27 = getelementptr inbounds i32, i32* %26, i64 3
  %28 = load i32, i32* %27, align 4
  store i32 %28, i32* %12, align 4
  %29 = load i32*, i32** %5, align 8
  %30 = getelementptr inbounds i32, i32* %29, i64 4
  %31 = load i32, i32* %30, align 4
  store i32 %31, i32* %13, align 4
  %32 = load i32*, i32** %5, align 8
  %33 = getelementptr inbounds i32, i32* %32, i64 5
  %34 = load i32, i32* %33, align 4
  store i32 %34, i32* %14, align 4
  %35 = load i32*, i32** %5, align 8
  %36 = getelementptr inbounds i32, i32* %35, i64 6
  %37 = load i32, i32* %36, align 4
  store i32 %37, i32* %15, align 4
  %38 = load i32*, i32** %5, align 8
  %39 = getelementptr inbounds i32, i32* %38, i64 7
  %40 = load i32, i32* %39, align 4
  store i32 %40, i32* %16, align 4
  %41 = load i32, i32* %9, align 4
  %42 = call nonnull align 8 dereferenceable(8) double* @_ZN4Mesh1xEi(%struct.Mesh* nonnull align 8 dereferenceable(1376) @mesh, i32 %41)
  %43 = load double, double* %42, align 8
  %44 = load double*, double** %6, align 8
  %45 = getelementptr inbounds double, double* %44, i64 0
  store double %43, double* %45, align 8
  %46 = load i32, i32* %10, align 4
  %47 = call nonnull align 8 dereferenceable(8) double* @_ZN4Mesh1xEi(%struct.Mesh* nonnull align 8 dereferenceable(1376) @mesh, i32 %46)
  %48 = load double, double* %47, align 8
  %49 = load double*, double** %6, align 8
  %50 = getelementptr inbounds double, double* %49, i64 1
  store double %48, double* %50, align 8
  %51 = load i32, i32* %11, align 4
  %52 = call nonnull align 8 dereferenceable(8) double* @_ZN4Mesh1xEi(%struct.Mesh* nonnull align 8 dereferenceable(1376) @mesh, i32 %51)
  %53 = load double, double* %52, align 8
  %54 = load double*, double** %6, align 8
  %55 = getelementptr inbounds double, double* %54, i64 2
  store double %53, double* %55, align 8
  %56 = load i32, i32* %12, align 4
  %57 = call nonnull align 8 dereferenceable(8) double* @_ZN4Mesh1xEi(%struct.Mesh* nonnull align 8 dereferenceable(1376) @mesh, i32 %56)
  %58 = load double, double* %57, align 8
  %59 = load double*, double** %6, align 8
  %60 = getelementptr inbounds double, double* %59, i64 3
  store double %58, double* %60, align 8
  %61 = load i32, i32* %13, align 4
  %62 = call nonnull align 8 dereferenceable(8) double* @_ZN4Mesh1xEi(%struct.Mesh* nonnull align 8 dereferenceable(1376) @mesh, i32 %61)
  %63 = load double, double* %62, align 8
  %64 = load double*, double** %6, align 8
  %65 = getelementptr inbounds double, double* %64, i64 4
  store double %63, double* %65, align 8
  %66 = load i32, i32* %14, align 4
  %67 = call nonnull align 8 dereferenceable(8) double* @_ZN4Mesh1xEi(%struct.Mesh* nonnull align 8 dereferenceable(1376) @mesh, i32 %66)
  %68 = load double, double* %67, align 8
  %69 = load double*, double** %6, align 8
  %70 = getelementptr inbounds double, double* %69, i64 5
  store double %68, double* %70, align 8
  %71 = load i32, i32* %15, align 4
  %72 = call nonnull align 8 dereferenceable(8) double* @_ZN4Mesh1xEi(%struct.Mesh* nonnull align 8 dereferenceable(1376) @mesh, i32 %71)
  %73 = load double, double* %72, align 8
  %74 = load double*, double** %6, align 8
  %75 = getelementptr inbounds double, double* %74, i64 6
  store double %73, double* %75, align 8
  %76 = load i32, i32* %16, align 4
  %77 = call nonnull align 8 dereferenceable(8) double* @_ZN4Mesh1xEi(%struct.Mesh* nonnull align 8 dereferenceable(1376) @mesh, i32 %76)
  %78 = load double, double* %77, align 8
  %79 = load double*, double** %6, align 8
  %80 = getelementptr inbounds double, double* %79, i64 7
  store double %78, double* %80, align 8
  %81 = load i32, i32* %9, align 4
  %82 = call nonnull align 8 dereferenceable(8) double* @_ZN4Mesh1yEi(%struct.Mesh* nonnull align 8 dereferenceable(1376) @mesh, i32 %81)
  %83 = load double, double* %82, align 8
  %84 = load double*, double** %7, align 8
  %85 = getelementptr inbounds double, double* %84, i64 0
  store double %83, double* %85, align 8
  %86 = load i32, i32* %10, align 4
  %87 = call nonnull align 8 dereferenceable(8) double* @_ZN4Mesh1yEi(%struct.Mesh* nonnull align 8 dereferenceable(1376) @mesh, i32 %86)
  %88 = load double, double* %87, align 8
  %89 = load double*, double** %7, align 8
  %90 = getelementptr inbounds double, double* %89, i64 1
  store double %88, double* %90, align 8
  %91 = load i32, i32* %11, align 4
  %92 = call nonnull align 8 dereferenceable(8) double* @_ZN4Mesh1yEi(%struct.Mesh* nonnull align 8 dereferenceable(1376) @mesh, i32 %91)
  %93 = load double, double* %92, align 8
  %94 = load double*, double** %7, align 8
  %95 = getelementptr inbounds double, double* %94, i64 2
  store double %93, double* %95, align 8
  %96 = load i32, i32* %12, align 4
  %97 = call nonnull align 8 dereferenceable(8) double* @_ZN4Mesh1yEi(%struct.Mesh* nonnull align 8 dereferenceable(1376) @mesh, i32 %96)
  %98 = load double, double* %97, align 8
  %99 = load double*, double** %7, align 8
  %100 = getelementptr inbounds double, double* %99, i64 3
  store double %98, double* %100, align 8
  %101 = load i32, i32* %13, align 4
  %102 = call nonnull align 8 dereferenceable(8) double* @_ZN4Mesh1yEi(%struct.Mesh* nonnull align 8 dereferenceable(1376) @mesh, i32 %101)
  %103 = load double, double* %102, align 8
  %104 = load double*, double** %7, align 8
  %105 = getelementptr inbounds double, double* %104, i64 4
  store double %103, double* %105, align 8
  %106 = load i32, i32* %14, align 4
  %107 = call nonnull align 8 dereferenceable(8) double* @_ZN4Mesh1yEi(%struct.Mesh* nonnull align 8 dereferenceable(1376) @mesh, i32 %106)
  %108 = load double, double* %107, align 8
  %109 = load double*, double** %7, align 8
  %110 = getelementptr inbounds double, double* %109, i64 5
  store double %108, double* %110, align 8
  %111 = load i32, i32* %15, align 4
  %112 = call nonnull align 8 dereferenceable(8) double* @_ZN4Mesh1yEi(%struct.Mesh* nonnull align 8 dereferenceable(1376) @mesh, i32 %111)
  %113 = load double, double* %112, align 8
  %114 = load double*, double** %7, align 8
  %115 = getelementptr inbounds double, double* %114, i64 6
  store double %113, double* %115, align 8
  %116 = load i32, i32* %16, align 4
  %117 = call nonnull align 8 dereferenceable(8) double* @_ZN4Mesh1yEi(%struct.Mesh* nonnull align 8 dereferenceable(1376) @mesh, i32 %116)
  %118 = load double, double* %117, align 8
  %119 = load double*, double** %7, align 8
  %120 = getelementptr inbounds double, double* %119, i64 7
  store double %118, double* %120, align 8
  %121 = load i32, i32* %9, align 4
  %122 = call nonnull align 8 dereferenceable(8) double* @_ZN4Mesh1zEi(%struct.Mesh* nonnull align 8 dereferenceable(1376) @mesh, i32 %121)
  %123 = load double, double* %122, align 8
  %124 = load double*, double** %8, align 8
  %125 = getelementptr inbounds double, double* %124, i64 0
  store double %123, double* %125, align 8
  %126 = load i32, i32* %10, align 4
  %127 = call nonnull align 8 dereferenceable(8) double* @_ZN4Mesh1zEi(%struct.Mesh* nonnull align 8 dereferenceable(1376) @mesh, i32 %126)
  %128 = load double, double* %127, align 8
  %129 = load double*, double** %8, align 8
  %130 = getelementptr inbounds double, double* %129, i64 1
  store double %128, double* %130, align 8
  %131 = load i32, i32* %11, align 4
  %132 = call nonnull align 8 dereferenceable(8) double* @_ZN4Mesh1zEi(%struct.Mesh* nonnull align 8 dereferenceable(1376) @mesh, i32 %131)
  %133 = load double, double* %132, align 8
  %134 = load double*, double** %8, align 8
  %135 = getelementptr inbounds double, double* %134, i64 2
  store double %133, double* %135, align 8
  %136 = load i32, i32* %12, align 4
  %137 = call nonnull align 8 dereferenceable(8) double* @_ZN4Mesh1zEi(%struct.Mesh* nonnull align 8 dereferenceable(1376) @mesh, i32 %136)
  %138 = load double, double* %137, align 8
  %139 = load double*, double** %8, align 8
  %140 = getelementptr inbounds double, double* %139, i64 3
  store double %138, double* %140, align 8
  %141 = load i32, i32* %13, align 4
  %142 = call nonnull align 8 dereferenceable(8) double* @_ZN4Mesh1zEi(%struct.Mesh* nonnull align 8 dereferenceable(1376) @mesh, i32 %141)
  %143 = load double, double* %142, align 8
  %144 = load double*, double** %8, align 8
  %145 = getelementptr inbounds double, double* %144, i64 4
  store double %143, double* %145, align 8
  %146 = load i32, i32* %14, align 4
  %147 = call nonnull align 8 dereferenceable(8) double* @_ZN4Mesh1zEi(%struct.Mesh* nonnull align 8 dereferenceable(1376) @mesh, i32 %146)
  %148 = load double, double* %147, align 8
  %149 = load double*, double** %8, align 8
  %150 = getelementptr inbounds double, double* %149, i64 5
  store double %148, double* %150, align 8
  %151 = load i32, i32* %15, align 4
  %152 = call nonnull align 8 dereferenceable(8) double* @_ZN4Mesh1zEi(%struct.Mesh* nonnull align 8 dereferenceable(1376) @mesh, i32 %151)
  %153 = load double, double* %152, align 8
  %154 = load double*, double** %8, align 8
  %155 = getelementptr inbounds double, double* %154, i64 6
  store double %153, double* %155, align 8
  %156 = load i32, i32* %16, align 4
  %157 = call nonnull align 8 dereferenceable(8) double* @_ZN4Mesh1zEi(%struct.Mesh* nonnull align 8 dereferenceable(1376) @mesh, i32 %156)
  %158 = load double, double* %157, align 8
  %159 = load double*, double** %8, align 8
  %160 = getelementptr inbounds double, double* %159, i64 7
  store double %158, double* %160, align 8
  ret void
}

; Function Attrs: mustprogress noinline nounwind uwtable
define dso_local void @_Z7VoluDerddddddddddddddddddPdS_S_(double %0, double %1, double %2, double %3, double %4, double %5, double %6, double %7, double %8, double %9, double %10, double %11, double %12, double %13, double %14, double %15, double %16, double %17, double* %18, double* %19, double* %20) #4 {
  %22 = alloca double, align 8
  %23 = alloca double, align 8
  %24 = alloca double, align 8
  %25 = alloca double, align 8
  %26 = alloca double, align 8
  %27 = alloca double, align 8
  %28 = alloca double, align 8
  %29 = alloca double, align 8
  %30 = alloca double, align 8
  %31 = alloca double, align 8
  %32 = alloca double, align 8
  %33 = alloca double, align 8
  %34 = alloca double, align 8
  %35 = alloca double, align 8
  %36 = alloca double, align 8
  %37 = alloca double, align 8
  %38 = alloca double, align 8
  %39 = alloca double, align 8
  %40 = alloca double*, align 8
  %41 = alloca double*, align 8
  %42 = alloca double*, align 8
  %43 = alloca double, align 8
  store double %0, double* %22, align 8
  store double %1, double* %23, align 8
  store double %2, double* %24, align 8
  store double %3, double* %25, align 8
  store double %4, double* %26, align 8
  store double %5, double* %27, align 8
  store double %6, double* %28, align 8
  store double %7, double* %29, align 8
  store double %8, double* %30, align 8
  store double %9, double* %31, align 8
  store double %10, double* %32, align 8
  store double %11, double* %33, align 8
  store double %12, double* %34, align 8
  store double %13, double* %35, align 8
  store double %14, double* %36, align 8
  store double %15, double* %37, align 8
  store double %16, double* %38, align 8
  store double %17, double* %39, align 8
  store double* %18, double** %40, align 8
  store double* %19, double** %41, align 8
  store double* %20, double** %42, align 8
  store double 0x3FB5555555555555, double* %43, align 8
  %44 = load double, double* %29, align 8
  %45 = load double, double* %30, align 8
  %46 = fadd double %44, %45
  %47 = load double, double* %34, align 8
  %48 = load double, double* %35, align 8
  %49 = fadd double %47, %48
  %50 = fmul double %46, %49
  %51 = load double, double* %28, align 8
  %52 = load double, double* %29, align 8
  %53 = fadd double %51, %52
  %54 = load double, double* %35, align 8
  %55 = load double, double* %36, align 8
  %56 = fadd double %54, %55
  %57 = fmul double %53, %56
  %58 = fsub double %50, %57
  %59 = load double, double* %28, align 8
  %60 = load double, double* %32, align 8
  %61 = fadd double %59, %60
  %62 = load double, double* %37, align 8
  %63 = load double, double* %38, align 8
  %64 = fadd double %62, %63
  %65 = fmul double %61, %64
  %66 = fadd double %58, %65
  %67 = load double, double* %31, align 8
  %68 = load double, double* %32, align 8
  %69 = fadd double %67, %68
  %70 = load double, double* %34, align 8
  %71 = load double, double* %38, align 8
  %72 = fadd double %70, %71
  %73 = fmul double %69, %72
  %74 = fsub double %66, %73
  %75 = load double, double* %30, align 8
  %76 = load double, double* %33, align 8
  %77 = fadd double %75, %76
  %78 = load double, double* %37, align 8
  %79 = load double, double* %39, align 8
  %80 = fadd double %78, %79
  %81 = fmul double %77, %80
  %82 = fsub double %74, %81
  %83 = load double, double* %31, align 8
  %84 = load double, double* %33, align 8
  %85 = fadd double %83, %84
  %86 = load double, double* %36, align 8
  %87 = load double, double* %39, align 8
  %88 = fadd double %86, %87
  %89 = fmul double %85, %88
  %90 = fadd double %82, %89
  %91 = load double*, double** %40, align 8
  store double %90, double* %91, align 8
  %92 = load double, double* %23, align 8
  %93 = load double, double* %24, align 8
  %94 = fadd double %92, %93
  %95 = fneg double %94
  %96 = load double, double* %34, align 8
  %97 = load double, double* %35, align 8
  %98 = fadd double %96, %97
  %99 = fmul double %95, %98
  %100 = load double, double* %22, align 8
  %101 = load double, double* %23, align 8
  %102 = fadd double %100, %101
  %103 = load double, double* %35, align 8
  %104 = load double, double* %36, align 8
  %105 = fadd double %103, %104
  %106 = fmul double %102, %105
  %107 = fadd double %99, %106
  %108 = load double, double* %22, align 8
  %109 = load double, double* %26, align 8
  %110 = fadd double %108, %109
  %111 = load double, double* %37, align 8
  %112 = load double, double* %38, align 8
  %113 = fadd double %111, %112
  %114 = fmul double %110, %113
  %115 = fsub double %107, %114
  %116 = load double, double* %25, align 8
  %117 = load double, double* %26, align 8
  %118 = fadd double %116, %117
  %119 = load double, double* %34, align 8
  %120 = load double, double* %38, align 8
  %121 = fadd double %119, %120
  %122 = fmul double %118, %121
  %123 = fadd double %115, %122
  %124 = load double, double* %24, align 8
  %125 = load double, double* %27, align 8
  %126 = fadd double %124, %125
  %127 = load double, double* %37, align 8
  %128 = load double, double* %39, align 8
  %129 = fadd double %127, %128
  %130 = fmul double %126, %129
  %131 = fadd double %123, %130
  %132 = load double, double* %25, align 8
  %133 = load double, double* %27, align 8
  %134 = fadd double %132, %133
  %135 = load double, double* %36, align 8
  %136 = load double, double* %39, align 8
  %137 = fadd double %135, %136
  %138 = fmul double %134, %137
  %139 = fsub double %131, %138
  %140 = load double*, double** %41, align 8
  store double %139, double* %140, align 8
  %141 = load double, double* %29, align 8
  %142 = load double, double* %30, align 8
  %143 = fadd double %141, %142
  %144 = fneg double %143
  %145 = load double, double* %22, align 8
  %146 = load double, double* %23, align 8
  %147 = fadd double %145, %146
  %148 = fmul double %144, %147
  %149 = load double, double* %28, align 8
  %150 = load double, double* %29, align 8
  %151 = fadd double %149, %150
  %152 = load double, double* %23, align 8
  %153 = load double, double* %24, align 8
  %154 = fadd double %152, %153
  %155 = fmul double %151, %154
  %156 = fadd double %148, %155
  %157 = load double, double* %28, align 8
  %158 = load double, double* %32, align 8
  %159 = fadd double %157, %158
  %160 = load double, double* %25, align 8
  %161 = load double, double* %26, align 8
  %162 = fadd double %160, %161
  %163 = fmul double %159, %162
  %164 = fsub double %156, %163
  %165 = load double, double* %31, align 8
  %166 = load double, double* %32, align 8
  %167 = fadd double %165, %166
  %168 = load double, double* %22, align 8
  %169 = load double, double* %26, align 8
  %170 = fadd double %168, %169
  %171 = fmul double %167, %170
  %172 = fadd double %164, %171
  %173 = load double, double* %30, align 8
  %174 = load double, double* %33, align 8
  %175 = fadd double %173, %174
  %176 = load double, double* %25, align 8
  %177 = load double, double* %27, align 8
  %178 = fadd double %176, %177
  %179 = fmul double %175, %178
  %180 = fadd double %172, %179
  %181 = load double, double* %31, align 8
  %182 = load double, double* %33, align 8
  %183 = fadd double %181, %182
  %184 = load double, double* %24, align 8
  %185 = load double, double* %27, align 8
  %186 = fadd double %184, %185
  %187 = fmul double %183, %186
  %188 = fsub double %180, %187
  %189 = load double*, double** %42, align 8
  store double %188, double* %189, align 8
  %190 = load double*, double** %40, align 8
  %191 = load double, double* %190, align 8
  %192 = fmul double %191, 0x3FB5555555555555
  store double %192, double* %190, align 8
  %193 = load double*, double** %41, align 8
  %194 = load double, double* %193, align 8
  %195 = fmul double %194, 0x3FB5555555555555
  store double %195, double* %193, align 8
  %196 = load double*, double** %42, align 8
  %197 = load double, double* %196, align 8
  %198 = fmul double %197, 0x3FB5555555555555
  store double %198, double* %196, align 8
  ret void
}

; Function Attrs: mustprogress noinline nounwind uwtable
define dso_local void @_Z24CalcElemVolumeDerivativePdS_S_PKdS1_S1_(double* %0, double* %1, double* %2, double* %3, double* %4, double* %5) #4 {
  %7 = alloca double*, align 8
  %8 = alloca double*, align 8
  %9 = alloca double*, align 8
  %10 = alloca double*, align 8
  %11 = alloca double*, align 8
  %12 = alloca double*, align 8
  store double* %0, double** %7, align 8
  store double* %1, double** %8, align 8
  store double* %2, double** %9, align 8
  store double* %3, double** %10, align 8
  store double* %4, double** %11, align 8
  store double* %5, double** %12, align 8
  %13 = load double*, double** %10, align 8
  %14 = getelementptr inbounds double, double* %13, i64 1
  %15 = load double, double* %14, align 8
  %16 = load double*, double** %10, align 8
  %17 = getelementptr inbounds double, double* %16, i64 2
  %18 = load double, double* %17, align 8
  %19 = load double*, double** %10, align 8
  %20 = getelementptr inbounds double, double* %19, i64 3
  %21 = load double, double* %20, align 8
  %22 = load double*, double** %10, align 8
  %23 = getelementptr inbounds double, double* %22, i64 4
  %24 = load double, double* %23, align 8
  %25 = load double*, double** %10, align 8
  %26 = getelementptr inbounds double, double* %25, i64 5
  %27 = load double, double* %26, align 8
  %28 = load double*, double** %10, align 8
  %29 = getelementptr inbounds double, double* %28, i64 7
  %30 = load double, double* %29, align 8
  %31 = load double*, double** %11, align 8
  %32 = getelementptr inbounds double, double* %31, i64 1
  %33 = load double, double* %32, align 8
  %34 = load double*, double** %11, align 8
  %35 = getelementptr inbounds double, double* %34, i64 2
  %36 = load double, double* %35, align 8
  %37 = load double*, double** %11, align 8
  %38 = getelementptr inbounds double, double* %37, i64 3
  %39 = load double, double* %38, align 8
  %40 = load double*, double** %11, align 8
  %41 = getelementptr inbounds double, double* %40, i64 4
  %42 = load double, double* %41, align 8
  %43 = load double*, double** %11, align 8
  %44 = getelementptr inbounds double, double* %43, i64 5
  %45 = load double, double* %44, align 8
  %46 = load double*, double** %11, align 8
  %47 = getelementptr inbounds double, double* %46, i64 7
  %48 = load double, double* %47, align 8
  %49 = load double*, double** %12, align 8
  %50 = getelementptr inbounds double, double* %49, i64 1
  %51 = load double, double* %50, align 8
  %52 = load double*, double** %12, align 8
  %53 = getelementptr inbounds double, double* %52, i64 2
  %54 = load double, double* %53, align 8
  %55 = load double*, double** %12, align 8
  %56 = getelementptr inbounds double, double* %55, i64 3
  %57 = load double, double* %56, align 8
  %58 = load double*, double** %12, align 8
  %59 = getelementptr inbounds double, double* %58, i64 4
  %60 = load double, double* %59, align 8
  %61 = load double*, double** %12, align 8
  %62 = getelementptr inbounds double, double* %61, i64 5
  %63 = load double, double* %62, align 8
  %64 = load double*, double** %12, align 8
  %65 = getelementptr inbounds double, double* %64, i64 7
  %66 = load double, double* %65, align 8
  %67 = load double*, double** %7, align 8
  %68 = getelementptr inbounds double, double* %67, i64 0
  %69 = load double*, double** %8, align 8
  %70 = getelementptr inbounds double, double* %69, i64 0
  %71 = load double*, double** %9, align 8
  %72 = getelementptr inbounds double, double* %71, i64 0
  call void @_Z7VoluDerddddddddddddddddddPdS_S_(double %15, double %18, double %21, double %24, double %27, double %30, double %33, double %36, double %39, double %42, double %45, double %48, double %51, double %54, double %57, double %60, double %63, double %66, double* %68, double* %70, double* %72)
  %73 = load double*, double** %10, align 8
  %74 = getelementptr inbounds double, double* %73, i64 0
  %75 = load double, double* %74, align 8
  %76 = load double*, double** %10, align 8
  %77 = getelementptr inbounds double, double* %76, i64 1
  %78 = load double, double* %77, align 8
  %79 = load double*, double** %10, align 8
  %80 = getelementptr inbounds double, double* %79, i64 2
  %81 = load double, double* %80, align 8
  %82 = load double*, double** %10, align 8
  %83 = getelementptr inbounds double, double* %82, i64 7
  %84 = load double, double* %83, align 8
  %85 = load double*, double** %10, align 8
  %86 = getelementptr inbounds double, double* %85, i64 4
  %87 = load double, double* %86, align 8
  %88 = load double*, double** %10, align 8
  %89 = getelementptr inbounds double, double* %88, i64 6
  %90 = load double, double* %89, align 8
  %91 = load double*, double** %11, align 8
  %92 = getelementptr inbounds double, double* %91, i64 0
  %93 = load double, double* %92, align 8
  %94 = load double*, double** %11, align 8
  %95 = getelementptr inbounds double, double* %94, i64 1
  %96 = load double, double* %95, align 8
  %97 = load double*, double** %11, align 8
  %98 = getelementptr inbounds double, double* %97, i64 2
  %99 = load double, double* %98, align 8
  %100 = load double*, double** %11, align 8
  %101 = getelementptr inbounds double, double* %100, i64 7
  %102 = load double, double* %101, align 8
  %103 = load double*, double** %11, align 8
  %104 = getelementptr inbounds double, double* %103, i64 4
  %105 = load double, double* %104, align 8
  %106 = load double*, double** %11, align 8
  %107 = getelementptr inbounds double, double* %106, i64 6
  %108 = load double, double* %107, align 8
  %109 = load double*, double** %12, align 8
  %110 = getelementptr inbounds double, double* %109, i64 0
  %111 = load double, double* %110, align 8
  %112 = load double*, double** %12, align 8
  %113 = getelementptr inbounds double, double* %112, i64 1
  %114 = load double, double* %113, align 8
  %115 = load double*, double** %12, align 8
  %116 = getelementptr inbounds double, double* %115, i64 2
  %117 = load double, double* %116, align 8
  %118 = load double*, double** %12, align 8
  %119 = getelementptr inbounds double, double* %118, i64 7
  %120 = load double, double* %119, align 8
  %121 = load double*, double** %12, align 8
  %122 = getelementptr inbounds double, double* %121, i64 4
  %123 = load double, double* %122, align 8
  %124 = load double*, double** %12, align 8
  %125 = getelementptr inbounds double, double* %124, i64 6
  %126 = load double, double* %125, align 8
  %127 = load double*, double** %7, align 8
  %128 = getelementptr inbounds double, double* %127, i64 3
  %129 = load double*, double** %8, align 8
  %130 = getelementptr inbounds double, double* %129, i64 3
  %131 = load double*, double** %9, align 8
  %132 = getelementptr inbounds double, double* %131, i64 3
  call void @_Z7VoluDerddddddddddddddddddPdS_S_(double %75, double %78, double %81, double %84, double %87, double %90, double %93, double %96, double %99, double %102, double %105, double %108, double %111, double %114, double %117, double %120, double %123, double %126, double* %128, double* %130, double* %132)
  %133 = load double*, double** %10, align 8
  %134 = getelementptr inbounds double, double* %133, i64 3
  %135 = load double, double* %134, align 8
  %136 = load double*, double** %10, align 8
  %137 = getelementptr inbounds double, double* %136, i64 0
  %138 = load double, double* %137, align 8
  %139 = load double*, double** %10, align 8
  %140 = getelementptr inbounds double, double* %139, i64 1
  %141 = load double, double* %140, align 8
  %142 = load double*, double** %10, align 8
  %143 = getelementptr inbounds double, double* %142, i64 6
  %144 = load double, double* %143, align 8
  %145 = load double*, double** %10, align 8
  %146 = getelementptr inbounds double, double* %145, i64 7
  %147 = load double, double* %146, align 8
  %148 = load double*, double** %10, align 8
  %149 = getelementptr inbounds double, double* %148, i64 5
  %150 = load double, double* %149, align 8
  %151 = load double*, double** %11, align 8
  %152 = getelementptr inbounds double, double* %151, i64 3
  %153 = load double, double* %152, align 8
  %154 = load double*, double** %11, align 8
  %155 = getelementptr inbounds double, double* %154, i64 0
  %156 = load double, double* %155, align 8
  %157 = load double*, double** %11, align 8
  %158 = getelementptr inbounds double, double* %157, i64 1
  %159 = load double, double* %158, align 8
  %160 = load double*, double** %11, align 8
  %161 = getelementptr inbounds double, double* %160, i64 6
  %162 = load double, double* %161, align 8
  %163 = load double*, double** %11, align 8
  %164 = getelementptr inbounds double, double* %163, i64 7
  %165 = load double, double* %164, align 8
  %166 = load double*, double** %11, align 8
  %167 = getelementptr inbounds double, double* %166, i64 5
  %168 = load double, double* %167, align 8
  %169 = load double*, double** %12, align 8
  %170 = getelementptr inbounds double, double* %169, i64 3
  %171 = load double, double* %170, align 8
  %172 = load double*, double** %12, align 8
  %173 = getelementptr inbounds double, double* %172, i64 0
  %174 = load double, double* %173, align 8
  %175 = load double*, double** %12, align 8
  %176 = getelementptr inbounds double, double* %175, i64 1
  %177 = load double, double* %176, align 8
  %178 = load double*, double** %12, align 8
  %179 = getelementptr inbounds double, double* %178, i64 6
  %180 = load double, double* %179, align 8
  %181 = load double*, double** %12, align 8
  %182 = getelementptr inbounds double, double* %181, i64 7
  %183 = load double, double* %182, align 8
  %184 = load double*, double** %12, align 8
  %185 = getelementptr inbounds double, double* %184, i64 5
  %186 = load double, double* %185, align 8
  %187 = load double*, double** %7, align 8
  %188 = getelementptr inbounds double, double* %187, i64 2
  %189 = load double*, double** %8, align 8
  %190 = getelementptr inbounds double, double* %189, i64 2
  %191 = load double*, double** %9, align 8
  %192 = getelementptr inbounds double, double* %191, i64 2
  call void @_Z7VoluDerddddddddddddddddddPdS_S_(double %135, double %138, double %141, double %144, double %147, double %150, double %153, double %156, double %159, double %162, double %165, double %168, double %171, double %174, double %177, double %180, double %183, double %186, double* %188, double* %190, double* %192)
  %193 = load double*, double** %10, align 8
  %194 = getelementptr inbounds double, double* %193, i64 2
  %195 = load double, double* %194, align 8
  %196 = load double*, double** %10, align 8
  %197 = getelementptr inbounds double, double* %196, i64 3
  %198 = load double, double* %197, align 8
  %199 = load double*, double** %10, align 8
  %200 = getelementptr inbounds double, double* %199, i64 0
  %201 = load double, double* %200, align 8
  %202 = load double*, double** %10, align 8
  %203 = getelementptr inbounds double, double* %202, i64 5
  %204 = load double, double* %203, align 8
  %205 = load double*, double** %10, align 8
  %206 = getelementptr inbounds double, double* %205, i64 6
  %207 = load double, double* %206, align 8
  %208 = load double*, double** %10, align 8
  %209 = getelementptr inbounds double, double* %208, i64 4
  %210 = load double, double* %209, align 8
  %211 = load double*, double** %11, align 8
  %212 = getelementptr inbounds double, double* %211, i64 2
  %213 = load double, double* %212, align 8
  %214 = load double*, double** %11, align 8
  %215 = getelementptr inbounds double, double* %214, i64 3
  %216 = load double, double* %215, align 8
  %217 = load double*, double** %11, align 8
  %218 = getelementptr inbounds double, double* %217, i64 0
  %219 = load double, double* %218, align 8
  %220 = load double*, double** %11, align 8
  %221 = getelementptr inbounds double, double* %220, i64 5
  %222 = load double, double* %221, align 8
  %223 = load double*, double** %11, align 8
  %224 = getelementptr inbounds double, double* %223, i64 6
  %225 = load double, double* %224, align 8
  %226 = load double*, double** %11, align 8
  %227 = getelementptr inbounds double, double* %226, i64 4
  %228 = load double, double* %227, align 8
  %229 = load double*, double** %12, align 8
  %230 = getelementptr inbounds double, double* %229, i64 2
  %231 = load double, double* %230, align 8
  %232 = load double*, double** %12, align 8
  %233 = getelementptr inbounds double, double* %232, i64 3
  %234 = load double, double* %233, align 8
  %235 = load double*, double** %12, align 8
  %236 = getelementptr inbounds double, double* %235, i64 0
  %237 = load double, double* %236, align 8
  %238 = load double*, double** %12, align 8
  %239 = getelementptr inbounds double, double* %238, i64 5
  %240 = load double, double* %239, align 8
  %241 = load double*, double** %12, align 8
  %242 = getelementptr inbounds double, double* %241, i64 6
  %243 = load double, double* %242, align 8
  %244 = load double*, double** %12, align 8
  %245 = getelementptr inbounds double, double* %244, i64 4
  %246 = load double, double* %245, align 8
  %247 = load double*, double** %7, align 8
  %248 = getelementptr inbounds double, double* %247, i64 1
  %249 = load double*, double** %8, align 8
  %250 = getelementptr inbounds double, double* %249, i64 1
  %251 = load double*, double** %9, align 8
  %252 = getelementptr inbounds double, double* %251, i64 1
  call void @_Z7VoluDerddddddddddddddddddPdS_S_(double %195, double %198, double %201, double %204, double %207, double %210, double %213, double %216, double %219, double %222, double %225, double %228, double %231, double %234, double %237, double %240, double %243, double %246, double* %248, double* %250, double* %252)
  %253 = load double*, double** %10, align 8
  %254 = getelementptr inbounds double, double* %253, i64 7
  %255 = load double, double* %254, align 8
  %256 = load double*, double** %10, align 8
  %257 = getelementptr inbounds double, double* %256, i64 6
  %258 = load double, double* %257, align 8
  %259 = load double*, double** %10, align 8
  %260 = getelementptr inbounds double, double* %259, i64 5
  %261 = load double, double* %260, align 8
  %262 = load double*, double** %10, align 8
  %263 = getelementptr inbounds double, double* %262, i64 0
  %264 = load double, double* %263, align 8
  %265 = load double*, double** %10, align 8
  %266 = getelementptr inbounds double, double* %265, i64 3
  %267 = load double, double* %266, align 8
  %268 = load double*, double** %10, align 8
  %269 = getelementptr inbounds double, double* %268, i64 1
  %270 = load double, double* %269, align 8
  %271 = load double*, double** %11, align 8
  %272 = getelementptr inbounds double, double* %271, i64 7
  %273 = load double, double* %272, align 8
  %274 = load double*, double** %11, align 8
  %275 = getelementptr inbounds double, double* %274, i64 6
  %276 = load double, double* %275, align 8
  %277 = load double*, double** %11, align 8
  %278 = getelementptr inbounds double, double* %277, i64 5
  %279 = load double, double* %278, align 8
  %280 = load double*, double** %11, align 8
  %281 = getelementptr inbounds double, double* %280, i64 0
  %282 = load double, double* %281, align 8
  %283 = load double*, double** %11, align 8
  %284 = getelementptr inbounds double, double* %283, i64 3
  %285 = load double, double* %284, align 8
  %286 = load double*, double** %11, align 8
  %287 = getelementptr inbounds double, double* %286, i64 1
  %288 = load double, double* %287, align 8
  %289 = load double*, double** %12, align 8
  %290 = getelementptr inbounds double, double* %289, i64 7
  %291 = load double, double* %290, align 8
  %292 = load double*, double** %12, align 8
  %293 = getelementptr inbounds double, double* %292, i64 6
  %294 = load double, double* %293, align 8
  %295 = load double*, double** %12, align 8
  %296 = getelementptr inbounds double, double* %295, i64 5
  %297 = load double, double* %296, align 8
  %298 = load double*, double** %12, align 8
  %299 = getelementptr inbounds double, double* %298, i64 0
  %300 = load double, double* %299, align 8
  %301 = load double*, double** %12, align 8
  %302 = getelementptr inbounds double, double* %301, i64 3
  %303 = load double, double* %302, align 8
  %304 = load double*, double** %12, align 8
  %305 = getelementptr inbounds double, double* %304, i64 1
  %306 = load double, double* %305, align 8
  %307 = load double*, double** %7, align 8
  %308 = getelementptr inbounds double, double* %307, i64 4
  %309 = load double*, double** %8, align 8
  %310 = getelementptr inbounds double, double* %309, i64 4
  %311 = load double*, double** %9, align 8
  %312 = getelementptr inbounds double, double* %311, i64 4
  call void @_Z7VoluDerddddddddddddddddddPdS_S_(double %255, double %258, double %261, double %264, double %267, double %270, double %273, double %276, double %279, double %282, double %285, double %288, double %291, double %294, double %297, double %300, double %303, double %306, double* %308, double* %310, double* %312)
  %313 = load double*, double** %10, align 8
  %314 = getelementptr inbounds double, double* %313, i64 4
  %315 = load double, double* %314, align 8
  %316 = load double*, double** %10, align 8
  %317 = getelementptr inbounds double, double* %316, i64 7
  %318 = load double, double* %317, align 8
  %319 = load double*, double** %10, align 8
  %320 = getelementptr inbounds double, double* %319, i64 6
  %321 = load double, double* %320, align 8
  %322 = load double*, double** %10, align 8
  %323 = getelementptr inbounds double, double* %322, i64 1
  %324 = load double, double* %323, align 8
  %325 = load double*, double** %10, align 8
  %326 = getelementptr inbounds double, double* %325, i64 0
  %327 = load double, double* %326, align 8
  %328 = load double*, double** %10, align 8
  %329 = getelementptr inbounds double, double* %328, i64 2
  %330 = load double, double* %329, align 8
  %331 = load double*, double** %11, align 8
  %332 = getelementptr inbounds double, double* %331, i64 4
  %333 = load double, double* %332, align 8
  %334 = load double*, double** %11, align 8
  %335 = getelementptr inbounds double, double* %334, i64 7
  %336 = load double, double* %335, align 8
  %337 = load double*, double** %11, align 8
  %338 = getelementptr inbounds double, double* %337, i64 6
  %339 = load double, double* %338, align 8
  %340 = load double*, double** %11, align 8
  %341 = getelementptr inbounds double, double* %340, i64 1
  %342 = load double, double* %341, align 8
  %343 = load double*, double** %11, align 8
  %344 = getelementptr inbounds double, double* %343, i64 0
  %345 = load double, double* %344, align 8
  %346 = load double*, double** %11, align 8
  %347 = getelementptr inbounds double, double* %346, i64 2
  %348 = load double, double* %347, align 8
  %349 = load double*, double** %12, align 8
  %350 = getelementptr inbounds double, double* %349, i64 4
  %351 = load double, double* %350, align 8
  %352 = load double*, double** %12, align 8
  %353 = getelementptr inbounds double, double* %352, i64 7
  %354 = load double, double* %353, align 8
  %355 = load double*, double** %12, align 8
  %356 = getelementptr inbounds double, double* %355, i64 6
  %357 = load double, double* %356, align 8
  %358 = load double*, double** %12, align 8
  %359 = getelementptr inbounds double, double* %358, i64 1
  %360 = load double, double* %359, align 8
  %361 = load double*, double** %12, align 8
  %362 = getelementptr inbounds double, double* %361, i64 0
  %363 = load double, double* %362, align 8
  %364 = load double*, double** %12, align 8
  %365 = getelementptr inbounds double, double* %364, i64 2
  %366 = load double, double* %365, align 8
  %367 = load double*, double** %7, align 8
  %368 = getelementptr inbounds double, double* %367, i64 5
  %369 = load double*, double** %8, align 8
  %370 = getelementptr inbounds double, double* %369, i64 5
  %371 = load double*, double** %9, align 8
  %372 = getelementptr inbounds double, double* %371, i64 5
  call void @_Z7VoluDerddddddddddddddddddPdS_S_(double %315, double %318, double %321, double %324, double %327, double %330, double %333, double %336, double %339, double %342, double %345, double %348, double %351, double %354, double %357, double %360, double %363, double %366, double* %368, double* %370, double* %372)
  %373 = load double*, double** %10, align 8
  %374 = getelementptr inbounds double, double* %373, i64 5
  %375 = load double, double* %374, align 8
  %376 = load double*, double** %10, align 8
  %377 = getelementptr inbounds double, double* %376, i64 4
  %378 = load double, double* %377, align 8
  %379 = load double*, double** %10, align 8
  %380 = getelementptr inbounds double, double* %379, i64 7
  %381 = load double, double* %380, align 8
  %382 = load double*, double** %10, align 8
  %383 = getelementptr inbounds double, double* %382, i64 2
  %384 = load double, double* %383, align 8
  %385 = load double*, double** %10, align 8
  %386 = getelementptr inbounds double, double* %385, i64 1
  %387 = load double, double* %386, align 8
  %388 = load double*, double** %10, align 8
  %389 = getelementptr inbounds double, double* %388, i64 3
  %390 = load double, double* %389, align 8
  %391 = load double*, double** %11, align 8
  %392 = getelementptr inbounds double, double* %391, i64 5
  %393 = load double, double* %392, align 8
  %394 = load double*, double** %11, align 8
  %395 = getelementptr inbounds double, double* %394, i64 4
  %396 = load double, double* %395, align 8
  %397 = load double*, double** %11, align 8
  %398 = getelementptr inbounds double, double* %397, i64 7
  %399 = load double, double* %398, align 8
  %400 = load double*, double** %11, align 8
  %401 = getelementptr inbounds double, double* %400, i64 2
  %402 = load double, double* %401, align 8
  %403 = load double*, double** %11, align 8
  %404 = getelementptr inbounds double, double* %403, i64 1
  %405 = load double, double* %404, align 8
  %406 = load double*, double** %11, align 8
  %407 = getelementptr inbounds double, double* %406, i64 3
  %408 = load double, double* %407, align 8
  %409 = load double*, double** %12, align 8
  %410 = getelementptr inbounds double, double* %409, i64 5
  %411 = load double, double* %410, align 8
  %412 = load double*, double** %12, align 8
  %413 = getelementptr inbounds double, double* %412, i64 4
  %414 = load double, double* %413, align 8
  %415 = load double*, double** %12, align 8
  %416 = getelementptr inbounds double, double* %415, i64 7
  %417 = load double, double* %416, align 8
  %418 = load double*, double** %12, align 8
  %419 = getelementptr inbounds double, double* %418, i64 2
  %420 = load double, double* %419, align 8
  %421 = load double*, double** %12, align 8
  %422 = getelementptr inbounds double, double* %421, i64 1
  %423 = load double, double* %422, align 8
  %424 = load double*, double** %12, align 8
  %425 = getelementptr inbounds double, double* %424, i64 3
  %426 = load double, double* %425, align 8
  %427 = load double*, double** %7, align 8
  %428 = getelementptr inbounds double, double* %427, i64 6
  %429 = load double*, double** %8, align 8
  %430 = getelementptr inbounds double, double* %429, i64 6
  %431 = load double*, double** %9, align 8
  %432 = getelementptr inbounds double, double* %431, i64 6
  call void @_Z7VoluDerddddddddddddddddddPdS_S_(double %375, double %378, double %381, double %384, double %387, double %390, double %393, double %396, double %399, double %402, double %405, double %408, double %411, double %414, double %417, double %420, double %423, double %426, double* %428, double* %430, double* %432)
  %433 = load double*, double** %10, align 8
  %434 = getelementptr inbounds double, double* %433, i64 6
  %435 = load double, double* %434, align 8
  %436 = load double*, double** %10, align 8
  %437 = getelementptr inbounds double, double* %436, i64 5
  %438 = load double, double* %437, align 8
  %439 = load double*, double** %10, align 8
  %440 = getelementptr inbounds double, double* %439, i64 4
  %441 = load double, double* %440, align 8
  %442 = load double*, double** %10, align 8
  %443 = getelementptr inbounds double, double* %442, i64 3
  %444 = load double, double* %443, align 8
  %445 = load double*, double** %10, align 8
  %446 = getelementptr inbounds double, double* %445, i64 2
  %447 = load double, double* %446, align 8
  %448 = load double*, double** %10, align 8
  %449 = getelementptr inbounds double, double* %448, i64 0
  %450 = load double, double* %449, align 8
  %451 = load double*, double** %11, align 8
  %452 = getelementptr inbounds double, double* %451, i64 6
  %453 = load double, double* %452, align 8
  %454 = load double*, double** %11, align 8
  %455 = getelementptr inbounds double, double* %454, i64 5
  %456 = load double, double* %455, align 8
  %457 = load double*, double** %11, align 8
  %458 = getelementptr inbounds double, double* %457, i64 4
  %459 = load double, double* %458, align 8
  %460 = load double*, double** %11, align 8
  %461 = getelementptr inbounds double, double* %460, i64 3
  %462 = load double, double* %461, align 8
  %463 = load double*, double** %11, align 8
  %464 = getelementptr inbounds double, double* %463, i64 2
  %465 = load double, double* %464, align 8
  %466 = load double*, double** %11, align 8
  %467 = getelementptr inbounds double, double* %466, i64 0
  %468 = load double, double* %467, align 8
  %469 = load double*, double** %12, align 8
  %470 = getelementptr inbounds double, double* %469, i64 6
  %471 = load double, double* %470, align 8
  %472 = load double*, double** %12, align 8
  %473 = getelementptr inbounds double, double* %472, i64 5
  %474 = load double, double* %473, align 8
  %475 = load double*, double** %12, align 8
  %476 = getelementptr inbounds double, double* %475, i64 4
  %477 = load double, double* %476, align 8
  %478 = load double*, double** %12, align 8
  %479 = getelementptr inbounds double, double* %478, i64 3
  %480 = load double, double* %479, align 8
  %481 = load double*, double** %12, align 8
  %482 = getelementptr inbounds double, double* %481, i64 2
  %483 = load double, double* %482, align 8
  %484 = load double*, double** %12, align 8
  %485 = getelementptr inbounds double, double* %484, i64 0
  %486 = load double, double* %485, align 8
  %487 = load double*, double** %7, align 8
  %488 = getelementptr inbounds double, double* %487, i64 7
  %489 = load double*, double** %8, align 8
  %490 = getelementptr inbounds double, double* %489, i64 7
  %491 = load double*, double** %9, align 8
  %492 = getelementptr inbounds double, double* %491, i64 7
  call void @_Z7VoluDerddddddddddddddddddPdS_S_(double %435, double %438, double %441, double %444, double %447, double %450, double %453, double %456, double %459, double %462, double %465, double %468, double %471, double %474, double %477, double %480, double %483, double %486, double* %488, double* %490, double* %492)
  ret void
}

; Function Attrs: mustprogress noinline nounwind uwtable
define dso_local void @_Z24CalcElemFBHourglassForcePdS_S_S_S_S_S_S_S_S_S_dS_S_S_(double* %0, double* %1, double* %2, double* %3, double* %4, double* %5, double* %6, double* %7, double* %8, double* %9, double* %10, double %11, double* %12, double* %13, double* %14) #4 {
  %16 = alloca double*, align 8
  %17 = alloca double*, align 8
  %18 = alloca double*, align 8
  %19 = alloca double*, align 8
  %20 = alloca double*, align 8
  %21 = alloca double*, align 8
  %22 = alloca double*, align 8
  %23 = alloca double*, align 8
  %24 = alloca double*, align 8
  %25 = alloca double*, align 8
  %26 = alloca double*, align 8
  %27 = alloca double, align 8
  %28 = alloca double*, align 8
  %29 = alloca double*, align 8
  %30 = alloca double*, align 8
  %31 = alloca i32, align 4
  %32 = alloca i32, align 4
  %33 = alloca i32, align 4
  %34 = alloca i32, align 4
  %35 = alloca double, align 8
  %36 = alloca double, align 8
  %37 = alloca double, align 8
  %38 = alloca double, align 8
  store double* %0, double** %16, align 8
  store double* %1, double** %17, align 8
  store double* %2, double** %18, align 8
  store double* %3, double** %19, align 8
  store double* %4, double** %20, align 8
  store double* %5, double** %21, align 8
  store double* %6, double** %22, align 8
  store double* %7, double** %23, align 8
  store double* %8, double** %24, align 8
  store double* %9, double** %25, align 8
  store double* %10, double** %26, align 8
  store double %11, double* %27, align 8
  store double* %12, double** %28, align 8
  store double* %13, double** %29, align 8
  store double* %14, double** %30, align 8
  store i32 0, i32* %31, align 4
  store i32 1, i32* %32, align 4
  store i32 2, i32* %33, align 4
  store i32 3, i32* %34, align 4
  %39 = load double*, double** %19, align 8
  %40 = load i32, i32* %31, align 4
  %41 = sext i32 %40 to i64
  %42 = getelementptr inbounds double, double* %39, i64 %41
  %43 = load double, double* %42, align 8
  %44 = load double*, double** %16, align 8
  %45 = getelementptr inbounds double, double* %44, i64 0
  %46 = load double, double* %45, align 8
  %47 = fmul double %43, %46
  %48 = load double*, double** %20, align 8
  %49 = load i32, i32* %31, align 4
  %50 = sext i32 %49 to i64
  %51 = getelementptr inbounds double, double* %48, i64 %50
  %52 = load double, double* %51, align 8
  %53 = load double*, double** %16, align 8
  %54 = getelementptr inbounds double, double* %53, i64 1
  %55 = load double, double* %54, align 8
  %56 = fmul double %52, %55
  %57 = fadd double %47, %56
  %58 = load double*, double** %21, align 8
  %59 = load i32, i32* %31, align 4
  %60 = sext i32 %59 to i64
  %61 = getelementptr inbounds double, double* %58, i64 %60
  %62 = load double, double* %61, align 8
  %63 = load double*, double** %16, align 8
  %64 = getelementptr inbounds double, double* %63, i64 2
  %65 = load double, double* %64, align 8
  %66 = fmul double %62, %65
  %67 = fadd double %57, %66
  %68 = load double*, double** %22, align 8
  %69 = load i32, i32* %31, align 4
  %70 = sext i32 %69 to i64
  %71 = getelementptr inbounds double, double* %68, i64 %70
  %72 = load double, double* %71, align 8
  %73 = load double*, double** %16, align 8
  %74 = getelementptr inbounds double, double* %73, i64 3
  %75 = load double, double* %74, align 8
  %76 = fmul double %72, %75
  %77 = fadd double %67, %76
  %78 = load double*, double** %23, align 8
  %79 = load i32, i32* %31, align 4
  %80 = sext i32 %79 to i64
  %81 = getelementptr inbounds double, double* %78, i64 %80
  %82 = load double, double* %81, align 8
  %83 = load double*, double** %16, align 8
  %84 = getelementptr inbounds double, double* %83, i64 4
  %85 = load double, double* %84, align 8
  %86 = fmul double %82, %85
  %87 = fadd double %77, %86
  %88 = load double*, double** %24, align 8
  %89 = load i32, i32* %31, align 4
  %90 = sext i32 %89 to i64
  %91 = getelementptr inbounds double, double* %88, i64 %90
  %92 = load double, double* %91, align 8
  %93 = load double*, double** %16, align 8
  %94 = getelementptr inbounds double, double* %93, i64 5
  %95 = load double, double* %94, align 8
  %96 = fmul double %92, %95
  %97 = fadd double %87, %96
  %98 = load double*, double** %25, align 8
  %99 = load i32, i32* %31, align 4
  %100 = sext i32 %99 to i64
  %101 = getelementptr inbounds double, double* %98, i64 %100
  %102 = load double, double* %101, align 8
  %103 = load double*, double** %16, align 8
  %104 = getelementptr inbounds double, double* %103, i64 6
  %105 = load double, double* %104, align 8
  %106 = fmul double %102, %105
  %107 = fadd double %97, %106
  %108 = load double*, double** %26, align 8
  %109 = load i32, i32* %31, align 4
  %110 = sext i32 %109 to i64
  %111 = getelementptr inbounds double, double* %108, i64 %110
  %112 = load double, double* %111, align 8
  %113 = load double*, double** %16, align 8
  %114 = getelementptr inbounds double, double* %113, i64 7
  %115 = load double, double* %114, align 8
  %116 = fmul double %112, %115
  %117 = fadd double %107, %116
  store double %117, double* %35, align 8
  %118 = load double*, double** %19, align 8
  %119 = load i32, i32* %32, align 4
  %120 = sext i32 %119 to i64
  %121 = getelementptr inbounds double, double* %118, i64 %120
  %122 = load double, double* %121, align 8
  %123 = load double*, double** %16, align 8
  %124 = getelementptr inbounds double, double* %123, i64 0
  %125 = load double, double* %124, align 8
  %126 = fmul double %122, %125
  %127 = load double*, double** %20, align 8
  %128 = load i32, i32* %32, align 4
  %129 = sext i32 %128 to i64
  %130 = getelementptr inbounds double, double* %127, i64 %129
  %131 = load double, double* %130, align 8
  %132 = load double*, double** %16, align 8
  %133 = getelementptr inbounds double, double* %132, i64 1
  %134 = load double, double* %133, align 8
  %135 = fmul double %131, %134
  %136 = fadd double %126, %135
  %137 = load double*, double** %21, align 8
  %138 = load i32, i32* %32, align 4
  %139 = sext i32 %138 to i64
  %140 = getelementptr inbounds double, double* %137, i64 %139
  %141 = load double, double* %140, align 8
  %142 = load double*, double** %16, align 8
  %143 = getelementptr inbounds double, double* %142, i64 2
  %144 = load double, double* %143, align 8
  %145 = fmul double %141, %144
  %146 = fadd double %136, %145
  %147 = load double*, double** %22, align 8
  %148 = load i32, i32* %32, align 4
  %149 = sext i32 %148 to i64
  %150 = getelementptr inbounds double, double* %147, i64 %149
  %151 = load double, double* %150, align 8
  %152 = load double*, double** %16, align 8
  %153 = getelementptr inbounds double, double* %152, i64 3
  %154 = load double, double* %153, align 8
  %155 = fmul double %151, %154
  %156 = fadd double %146, %155
  %157 = load double*, double** %23, align 8
  %158 = load i32, i32* %32, align 4
  %159 = sext i32 %158 to i64
  %160 = getelementptr inbounds double, double* %157, i64 %159
  %161 = load double, double* %160, align 8
  %162 = load double*, double** %16, align 8
  %163 = getelementptr inbounds double, double* %162, i64 4
  %164 = load double, double* %163, align 8
  %165 = fmul double %161, %164
  %166 = fadd double %156, %165
  %167 = load double*, double** %24, align 8
  %168 = load i32, i32* %32, align 4
  %169 = sext i32 %168 to i64
  %170 = getelementptr inbounds double, double* %167, i64 %169
  %171 = load double, double* %170, align 8
  %172 = load double*, double** %16, align 8
  %173 = getelementptr inbounds double, double* %172, i64 5
  %174 = load double, double* %173, align 8
  %175 = fmul double %171, %174
  %176 = fadd double %166, %175
  %177 = load double*, double** %25, align 8
  %178 = load i32, i32* %32, align 4
  %179 = sext i32 %178 to i64
  %180 = getelementptr inbounds double, double* %177, i64 %179
  %181 = load double, double* %180, align 8
  %182 = load double*, double** %16, align 8
  %183 = getelementptr inbounds double, double* %182, i64 6
  %184 = load double, double* %183, align 8
  %185 = fmul double %181, %184
  %186 = fadd double %176, %185
  %187 = load double*, double** %26, align 8
  %188 = load i32, i32* %32, align 4
  %189 = sext i32 %188 to i64
  %190 = getelementptr inbounds double, double* %187, i64 %189
  %191 = load double, double* %190, align 8
  %192 = load double*, double** %16, align 8
  %193 = getelementptr inbounds double, double* %192, i64 7
  %194 = load double, double* %193, align 8
  %195 = fmul double %191, %194
  %196 = fadd double %186, %195
  store double %196, double* %36, align 8
  %197 = load double*, double** %19, align 8
  %198 = load i32, i32* %33, align 4
  %199 = sext i32 %198 to i64
  %200 = getelementptr inbounds double, double* %197, i64 %199
  %201 = load double, double* %200, align 8
  %202 = load double*, double** %16, align 8
  %203 = getelementptr inbounds double, double* %202, i64 0
  %204 = load double, double* %203, align 8
  %205 = fmul double %201, %204
  %206 = load double*, double** %20, align 8
  %207 = load i32, i32* %33, align 4
  %208 = sext i32 %207 to i64
  %209 = getelementptr inbounds double, double* %206, i64 %208
  %210 = load double, double* %209, align 8
  %211 = load double*, double** %16, align 8
  %212 = getelementptr inbounds double, double* %211, i64 1
  %213 = load double, double* %212, align 8
  %214 = fmul double %210, %213
  %215 = fadd double %205, %214
  %216 = load double*, double** %21, align 8
  %217 = load i32, i32* %33, align 4
  %218 = sext i32 %217 to i64
  %219 = getelementptr inbounds double, double* %216, i64 %218
  %220 = load double, double* %219, align 8
  %221 = load double*, double** %16, align 8
  %222 = getelementptr inbounds double, double* %221, i64 2
  %223 = load double, double* %222, align 8
  %224 = fmul double %220, %223
  %225 = fadd double %215, %224
  %226 = load double*, double** %22, align 8
  %227 = load i32, i32* %33, align 4
  %228 = sext i32 %227 to i64
  %229 = getelementptr inbounds double, double* %226, i64 %228
  %230 = load double, double* %229, align 8
  %231 = load double*, double** %16, align 8
  %232 = getelementptr inbounds double, double* %231, i64 3
  %233 = load double, double* %232, align 8
  %234 = fmul double %230, %233
  %235 = fadd double %225, %234
  %236 = load double*, double** %23, align 8
  %237 = load i32, i32* %33, align 4
  %238 = sext i32 %237 to i64
  %239 = getelementptr inbounds double, double* %236, i64 %238
  %240 = load double, double* %239, align 8
  %241 = load double*, double** %16, align 8
  %242 = getelementptr inbounds double, double* %241, i64 4
  %243 = load double, double* %242, align 8
  %244 = fmul double %240, %243
  %245 = fadd double %235, %244
  %246 = load double*, double** %24, align 8
  %247 = load i32, i32* %33, align 4
  %248 = sext i32 %247 to i64
  %249 = getelementptr inbounds double, double* %246, i64 %248
  %250 = load double, double* %249, align 8
  %251 = load double*, double** %16, align 8
  %252 = getelementptr inbounds double, double* %251, i64 5
  %253 = load double, double* %252, align 8
  %254 = fmul double %250, %253
  %255 = fadd double %245, %254
  %256 = load double*, double** %25, align 8
  %257 = load i32, i32* %33, align 4
  %258 = sext i32 %257 to i64
  %259 = getelementptr inbounds double, double* %256, i64 %258
  %260 = load double, double* %259, align 8
  %261 = load double*, double** %16, align 8
  %262 = getelementptr inbounds double, double* %261, i64 6
  %263 = load double, double* %262, align 8
  %264 = fmul double %260, %263
  %265 = fadd double %255, %264
  %266 = load double*, double** %26, align 8
  %267 = load i32, i32* %33, align 4
  %268 = sext i32 %267 to i64
  %269 = getelementptr inbounds double, double* %266, i64 %268
  %270 = load double, double* %269, align 8
  %271 = load double*, double** %16, align 8
  %272 = getelementptr inbounds double, double* %271, i64 7
  %273 = load double, double* %272, align 8
  %274 = fmul double %270, %273
  %275 = fadd double %265, %274
  store double %275, double* %37, align 8
  %276 = load double*, double** %19, align 8
  %277 = load i32, i32* %34, align 4
  %278 = sext i32 %277 to i64
  %279 = getelementptr inbounds double, double* %276, i64 %278
  %280 = load double, double* %279, align 8
  %281 = load double*, double** %16, align 8
  %282 = getelementptr inbounds double, double* %281, i64 0
  %283 = load double, double* %282, align 8
  %284 = fmul double %280, %283
  %285 = load double*, double** %20, align 8
  %286 = load i32, i32* %34, align 4
  %287 = sext i32 %286 to i64
  %288 = getelementptr inbounds double, double* %285, i64 %287
  %289 = load double, double* %288, align 8
  %290 = load double*, double** %16, align 8
  %291 = getelementptr inbounds double, double* %290, i64 1
  %292 = load double, double* %291, align 8
  %293 = fmul double %289, %292
  %294 = fadd double %284, %293
  %295 = load double*, double** %21, align 8
  %296 = load i32, i32* %34, align 4
  %297 = sext i32 %296 to i64
  %298 = getelementptr inbounds double, double* %295, i64 %297
  %299 = load double, double* %298, align 8
  %300 = load double*, double** %16, align 8
  %301 = getelementptr inbounds double, double* %300, i64 2
  %302 = load double, double* %301, align 8
  %303 = fmul double %299, %302
  %304 = fadd double %294, %303
  %305 = load double*, double** %22, align 8
  %306 = load i32, i32* %34, align 4
  %307 = sext i32 %306 to i64
  %308 = getelementptr inbounds double, double* %305, i64 %307
  %309 = load double, double* %308, align 8
  %310 = load double*, double** %16, align 8
  %311 = getelementptr inbounds double, double* %310, i64 3
  %312 = load double, double* %311, align 8
  %313 = fmul double %309, %312
  %314 = fadd double %304, %313
  %315 = load double*, double** %23, align 8
  %316 = load i32, i32* %34, align 4
  %317 = sext i32 %316 to i64
  %318 = getelementptr inbounds double, double* %315, i64 %317
  %319 = load double, double* %318, align 8
  %320 = load double*, double** %16, align 8
  %321 = getelementptr inbounds double, double* %320, i64 4
  %322 = load double, double* %321, align 8
  %323 = fmul double %319, %322
  %324 = fadd double %314, %323
  %325 = load double*, double** %24, align 8
  %326 = load i32, i32* %34, align 4
  %327 = sext i32 %326 to i64
  %328 = getelementptr inbounds double, double* %325, i64 %327
  %329 = load double, double* %328, align 8
  %330 = load double*, double** %16, align 8
  %331 = getelementptr inbounds double, double* %330, i64 5
  %332 = load double, double* %331, align 8
  %333 = fmul double %329, %332
  %334 = fadd double %324, %333
  %335 = load double*, double** %25, align 8
  %336 = load i32, i32* %34, align 4
  %337 = sext i32 %336 to i64
  %338 = getelementptr inbounds double, double* %335, i64 %337
  %339 = load double, double* %338, align 8
  %340 = load double*, double** %16, align 8
  %341 = getelementptr inbounds double, double* %340, i64 6
  %342 = load double, double* %341, align 8
  %343 = fmul double %339, %342
  %344 = fadd double %334, %343
  %345 = load double*, double** %26, align 8
  %346 = load i32, i32* %34, align 4
  %347 = sext i32 %346 to i64
  %348 = getelementptr inbounds double, double* %345, i64 %347
  %349 = load double, double* %348, align 8
  %350 = load double*, double** %16, align 8
  %351 = getelementptr inbounds double, double* %350, i64 7
  %352 = load double, double* %351, align 8
  %353 = fmul double %349, %352
  %354 = fadd double %344, %353
  store double %354, double* %38, align 8
  %355 = load double, double* %27, align 8
  %356 = load double*, double** %19, align 8
  %357 = load i32, i32* %31, align 4
  %358 = sext i32 %357 to i64
  %359 = getelementptr inbounds double, double* %356, i64 %358
  %360 = load double, double* %359, align 8
  %361 = load double, double* %35, align 8
  %362 = fmul double %360, %361
  %363 = load double*, double** %19, align 8
  %364 = load i32, i32* %32, align 4
  %365 = sext i32 %364 to i64
  %366 = getelementptr inbounds double, double* %363, i64 %365
  %367 = load double, double* %366, align 8
  %368 = load double, double* %36, align 8
  %369 = fmul double %367, %368
  %370 = fadd double %362, %369
  %371 = load double*, double** %19, align 8
  %372 = load i32, i32* %33, align 4
  %373 = sext i32 %372 to i64
  %374 = getelementptr inbounds double, double* %371, i64 %373
  %375 = load double, double* %374, align 8
  %376 = load double, double* %37, align 8
  %377 = fmul double %375, %376
  %378 = fadd double %370, %377
  %379 = load double*, double** %19, align 8
  %380 = load i32, i32* %34, align 4
  %381 = sext i32 %380 to i64
  %382 = getelementptr inbounds double, double* %379, i64 %381
  %383 = load double, double* %382, align 8
  %384 = load double, double* %38, align 8
  %385 = fmul double %383, %384
  %386 = fadd double %378, %385
  %387 = fmul double %355, %386
  %388 = load double*, double** %28, align 8
  %389 = getelementptr inbounds double, double* %388, i64 0
  store double %387, double* %389, align 8
  %390 = load double, double* %27, align 8
  %391 = load double*, double** %20, align 8
  %392 = load i32, i32* %31, align 4
  %393 = sext i32 %392 to i64
  %394 = getelementptr inbounds double, double* %391, i64 %393
  %395 = load double, double* %394, align 8
  %396 = load double, double* %35, align 8
  %397 = fmul double %395, %396
  %398 = load double*, double** %20, align 8
  %399 = load i32, i32* %32, align 4
  %400 = sext i32 %399 to i64
  %401 = getelementptr inbounds double, double* %398, i64 %400
  %402 = load double, double* %401, align 8
  %403 = load double, double* %36, align 8
  %404 = fmul double %402, %403
  %405 = fadd double %397, %404
  %406 = load double*, double** %20, align 8
  %407 = load i32, i32* %33, align 4
  %408 = sext i32 %407 to i64
  %409 = getelementptr inbounds double, double* %406, i64 %408
  %410 = load double, double* %409, align 8
  %411 = load double, double* %37, align 8
  %412 = fmul double %410, %411
  %413 = fadd double %405, %412
  %414 = load double*, double** %20, align 8
  %415 = load i32, i32* %34, align 4
  %416 = sext i32 %415 to i64
  %417 = getelementptr inbounds double, double* %414, i64 %416
  %418 = load double, double* %417, align 8
  %419 = load double, double* %38, align 8
  %420 = fmul double %418, %419
  %421 = fadd double %413, %420
  %422 = fmul double %390, %421
  %423 = load double*, double** %28, align 8
  %424 = getelementptr inbounds double, double* %423, i64 1
  store double %422, double* %424, align 8
  %425 = load double, double* %27, align 8
  %426 = load double*, double** %21, align 8
  %427 = load i32, i32* %31, align 4
  %428 = sext i32 %427 to i64
  %429 = getelementptr inbounds double, double* %426, i64 %428
  %430 = load double, double* %429, align 8
  %431 = load double, double* %35, align 8
  %432 = fmul double %430, %431
  %433 = load double*, double** %21, align 8
  %434 = load i32, i32* %32, align 4
  %435 = sext i32 %434 to i64
  %436 = getelementptr inbounds double, double* %433, i64 %435
  %437 = load double, double* %436, align 8
  %438 = load double, double* %36, align 8
  %439 = fmul double %437, %438
  %440 = fadd double %432, %439
  %441 = load double*, double** %21, align 8
  %442 = load i32, i32* %33, align 4
  %443 = sext i32 %442 to i64
  %444 = getelementptr inbounds double, double* %441, i64 %443
  %445 = load double, double* %444, align 8
  %446 = load double, double* %37, align 8
  %447 = fmul double %445, %446
  %448 = fadd double %440, %447
  %449 = load double*, double** %21, align 8
  %450 = load i32, i32* %34, align 4
  %451 = sext i32 %450 to i64
  %452 = getelementptr inbounds double, double* %449, i64 %451
  %453 = load double, double* %452, align 8
  %454 = load double, double* %38, align 8
  %455 = fmul double %453, %454
  %456 = fadd double %448, %455
  %457 = fmul double %425, %456
  %458 = load double*, double** %28, align 8
  %459 = getelementptr inbounds double, double* %458, i64 2
  store double %457, double* %459, align 8
  %460 = load double, double* %27, align 8
  %461 = load double*, double** %22, align 8
  %462 = load i32, i32* %31, align 4
  %463 = sext i32 %462 to i64
  %464 = getelementptr inbounds double, double* %461, i64 %463
  %465 = load double, double* %464, align 8
  %466 = load double, double* %35, align 8
  %467 = fmul double %465, %466
  %468 = load double*, double** %22, align 8
  %469 = load i32, i32* %32, align 4
  %470 = sext i32 %469 to i64
  %471 = getelementptr inbounds double, double* %468, i64 %470
  %472 = load double, double* %471, align 8
  %473 = load double, double* %36, align 8
  %474 = fmul double %472, %473
  %475 = fadd double %467, %474
  %476 = load double*, double** %22, align 8
  %477 = load i32, i32* %33, align 4
  %478 = sext i32 %477 to i64
  %479 = getelementptr inbounds double, double* %476, i64 %478
  %480 = load double, double* %479, align 8
  %481 = load double, double* %37, align 8
  %482 = fmul double %480, %481
  %483 = fadd double %475, %482
  %484 = load double*, double** %22, align 8
  %485 = load i32, i32* %34, align 4
  %486 = sext i32 %485 to i64
  %487 = getelementptr inbounds double, double* %484, i64 %486
  %488 = load double, double* %487, align 8
  %489 = load double, double* %38, align 8
  %490 = fmul double %488, %489
  %491 = fadd double %483, %490
  %492 = fmul double %460, %491
  %493 = load double*, double** %28, align 8
  %494 = getelementptr inbounds double, double* %493, i64 3
  store double %492, double* %494, align 8
  %495 = load double, double* %27, align 8
  %496 = load double*, double** %23, align 8
  %497 = load i32, i32* %31, align 4
  %498 = sext i32 %497 to i64
  %499 = getelementptr inbounds double, double* %496, i64 %498
  %500 = load double, double* %499, align 8
  %501 = load double, double* %35, align 8
  %502 = fmul double %500, %501
  %503 = load double*, double** %23, align 8
  %504 = load i32, i32* %32, align 4
  %505 = sext i32 %504 to i64
  %506 = getelementptr inbounds double, double* %503, i64 %505
  %507 = load double, double* %506, align 8
  %508 = load double, double* %36, align 8
  %509 = fmul double %507, %508
  %510 = fadd double %502, %509
  %511 = load double*, double** %23, align 8
  %512 = load i32, i32* %33, align 4
  %513 = sext i32 %512 to i64
  %514 = getelementptr inbounds double, double* %511, i64 %513
  %515 = load double, double* %514, align 8
  %516 = load double, double* %37, align 8
  %517 = fmul double %515, %516
  %518 = fadd double %510, %517
  %519 = load double*, double** %23, align 8
  %520 = load i32, i32* %34, align 4
  %521 = sext i32 %520 to i64
  %522 = getelementptr inbounds double, double* %519, i64 %521
  %523 = load double, double* %522, align 8
  %524 = load double, double* %38, align 8
  %525 = fmul double %523, %524
  %526 = fadd double %518, %525
  %527 = fmul double %495, %526
  %528 = load double*, double** %28, align 8
  %529 = getelementptr inbounds double, double* %528, i64 4
  store double %527, double* %529, align 8
  %530 = load double, double* %27, align 8
  %531 = load double*, double** %24, align 8
  %532 = load i32, i32* %31, align 4
  %533 = sext i32 %532 to i64
  %534 = getelementptr inbounds double, double* %531, i64 %533
  %535 = load double, double* %534, align 8
  %536 = load double, double* %35, align 8
  %537 = fmul double %535, %536
  %538 = load double*, double** %24, align 8
  %539 = load i32, i32* %32, align 4
  %540 = sext i32 %539 to i64
  %541 = getelementptr inbounds double, double* %538, i64 %540
  %542 = load double, double* %541, align 8
  %543 = load double, double* %36, align 8
  %544 = fmul double %542, %543
  %545 = fadd double %537, %544
  %546 = load double*, double** %24, align 8
  %547 = load i32, i32* %33, align 4
  %548 = sext i32 %547 to i64
  %549 = getelementptr inbounds double, double* %546, i64 %548
  %550 = load double, double* %549, align 8
  %551 = load double, double* %37, align 8
  %552 = fmul double %550, %551
  %553 = fadd double %545, %552
  %554 = load double*, double** %24, align 8
  %555 = load i32, i32* %34, align 4
  %556 = sext i32 %555 to i64
  %557 = getelementptr inbounds double, double* %554, i64 %556
  %558 = load double, double* %557, align 8
  %559 = load double, double* %38, align 8
  %560 = fmul double %558, %559
  %561 = fadd double %553, %560
  %562 = fmul double %530, %561
  %563 = load double*, double** %28, align 8
  %564 = getelementptr inbounds double, double* %563, i64 5
  store double %562, double* %564, align 8
  %565 = load double, double* %27, align 8
  %566 = load double*, double** %25, align 8
  %567 = load i32, i32* %31, align 4
  %568 = sext i32 %567 to i64
  %569 = getelementptr inbounds double, double* %566, i64 %568
  %570 = load double, double* %569, align 8
  %571 = load double, double* %35, align 8
  %572 = fmul double %570, %571
  %573 = load double*, double** %25, align 8
  %574 = load i32, i32* %32, align 4
  %575 = sext i32 %574 to i64
  %576 = getelementptr inbounds double, double* %573, i64 %575
  %577 = load double, double* %576, align 8
  %578 = load double, double* %36, align 8
  %579 = fmul double %577, %578
  %580 = fadd double %572, %579
  %581 = load double*, double** %25, align 8
  %582 = load i32, i32* %33, align 4
  %583 = sext i32 %582 to i64
  %584 = getelementptr inbounds double, double* %581, i64 %583
  %585 = load double, double* %584, align 8
  %586 = load double, double* %37, align 8
  %587 = fmul double %585, %586
  %588 = fadd double %580, %587
  %589 = load double*, double** %25, align 8
  %590 = load i32, i32* %34, align 4
  %591 = sext i32 %590 to i64
  %592 = getelementptr inbounds double, double* %589, i64 %591
  %593 = load double, double* %592, align 8
  %594 = load double, double* %38, align 8
  %595 = fmul double %593, %594
  %596 = fadd double %588, %595
  %597 = fmul double %565, %596
  %598 = load double*, double** %28, align 8
  %599 = getelementptr inbounds double, double* %598, i64 6
  store double %597, double* %599, align 8
  %600 = load double, double* %27, align 8
  %601 = load double*, double** %26, align 8
  %602 = load i32, i32* %31, align 4
  %603 = sext i32 %602 to i64
  %604 = getelementptr inbounds double, double* %601, i64 %603
  %605 = load double, double* %604, align 8
  %606 = load double, double* %35, align 8
  %607 = fmul double %605, %606
  %608 = load double*, double** %26, align 8
  %609 = load i32, i32* %32, align 4
  %610 = sext i32 %609 to i64
  %611 = getelementptr inbounds double, double* %608, i64 %610
  %612 = load double, double* %611, align 8
  %613 = load double, double* %36, align 8
  %614 = fmul double %612, %613
  %615 = fadd double %607, %614
  %616 = load double*, double** %26, align 8
  %617 = load i32, i32* %33, align 4
  %618 = sext i32 %617 to i64
  %619 = getelementptr inbounds double, double* %616, i64 %618
  %620 = load double, double* %619, align 8
  %621 = load double, double* %37, align 8
  %622 = fmul double %620, %621
  %623 = fadd double %615, %622
  %624 = load double*, double** %26, align 8
  %625 = load i32, i32* %34, align 4
  %626 = sext i32 %625 to i64
  %627 = getelementptr inbounds double, double* %624, i64 %626
  %628 = load double, double* %627, align 8
  %629 = load double, double* %38, align 8
  %630 = fmul double %628, %629
  %631 = fadd double %623, %630
  %632 = fmul double %600, %631
  %633 = load double*, double** %28, align 8
  %634 = getelementptr inbounds double, double* %633, i64 7
  store double %632, double* %634, align 8
  %635 = load double*, double** %19, align 8
  %636 = load i32, i32* %31, align 4
  %637 = sext i32 %636 to i64
  %638 = getelementptr inbounds double, double* %635, i64 %637
  %639 = load double, double* %638, align 8
  %640 = load double*, double** %17, align 8
  %641 = getelementptr inbounds double, double* %640, i64 0
  %642 = load double, double* %641, align 8
  %643 = fmul double %639, %642
  %644 = load double*, double** %20, align 8
  %645 = load i32, i32* %31, align 4
  %646 = sext i32 %645 to i64
  %647 = getelementptr inbounds double, double* %644, i64 %646
  %648 = load double, double* %647, align 8
  %649 = load double*, double** %17, align 8
  %650 = getelementptr inbounds double, double* %649, i64 1
  %651 = load double, double* %650, align 8
  %652 = fmul double %648, %651
  %653 = fadd double %643, %652
  %654 = load double*, double** %21, align 8
  %655 = load i32, i32* %31, align 4
  %656 = sext i32 %655 to i64
  %657 = getelementptr inbounds double, double* %654, i64 %656
  %658 = load double, double* %657, align 8
  %659 = load double*, double** %17, align 8
  %660 = getelementptr inbounds double, double* %659, i64 2
  %661 = load double, double* %660, align 8
  %662 = fmul double %658, %661
  %663 = fadd double %653, %662
  %664 = load double*, double** %22, align 8
  %665 = load i32, i32* %31, align 4
  %666 = sext i32 %665 to i64
  %667 = getelementptr inbounds double, double* %664, i64 %666
  %668 = load double, double* %667, align 8
  %669 = load double*, double** %17, align 8
  %670 = getelementptr inbounds double, double* %669, i64 3
  %671 = load double, double* %670, align 8
  %672 = fmul double %668, %671
  %673 = fadd double %663, %672
  %674 = load double*, double** %23, align 8
  %675 = load i32, i32* %31, align 4
  %676 = sext i32 %675 to i64
  %677 = getelementptr inbounds double, double* %674, i64 %676
  %678 = load double, double* %677, align 8
  %679 = load double*, double** %17, align 8
  %680 = getelementptr inbounds double, double* %679, i64 4
  %681 = load double, double* %680, align 8
  %682 = fmul double %678, %681
  %683 = fadd double %673, %682
  %684 = load double*, double** %24, align 8
  %685 = load i32, i32* %31, align 4
  %686 = sext i32 %685 to i64
  %687 = getelementptr inbounds double, double* %684, i64 %686
  %688 = load double, double* %687, align 8
  %689 = load double*, double** %17, align 8
  %690 = getelementptr inbounds double, double* %689, i64 5
  %691 = load double, double* %690, align 8
  %692 = fmul double %688, %691
  %693 = fadd double %683, %692
  %694 = load double*, double** %25, align 8
  %695 = load i32, i32* %31, align 4
  %696 = sext i32 %695 to i64
  %697 = getelementptr inbounds double, double* %694, i64 %696
  %698 = load double, double* %697, align 8
  %699 = load double*, double** %17, align 8
  %700 = getelementptr inbounds double, double* %699, i64 6
  %701 = load double, double* %700, align 8
  %702 = fmul double %698, %701
  %703 = fadd double %693, %702
  %704 = load double*, double** %26, align 8
  %705 = load i32, i32* %31, align 4
  %706 = sext i32 %705 to i64
  %707 = getelementptr inbounds double, double* %704, i64 %706
  %708 = load double, double* %707, align 8
  %709 = load double*, double** %17, align 8
  %710 = getelementptr inbounds double, double* %709, i64 7
  %711 = load double, double* %710, align 8
  %712 = fmul double %708, %711
  %713 = fadd double %703, %712
  store double %713, double* %35, align 8
  %714 = load double*, double** %19, align 8
  %715 = load i32, i32* %32, align 4
  %716 = sext i32 %715 to i64
  %717 = getelementptr inbounds double, double* %714, i64 %716
  %718 = load double, double* %717, align 8
  %719 = load double*, double** %17, align 8
  %720 = getelementptr inbounds double, double* %719, i64 0
  %721 = load double, double* %720, align 8
  %722 = fmul double %718, %721
  %723 = load double*, double** %20, align 8
  %724 = load i32, i32* %32, align 4
  %725 = sext i32 %724 to i64
  %726 = getelementptr inbounds double, double* %723, i64 %725
  %727 = load double, double* %726, align 8
  %728 = load double*, double** %17, align 8
  %729 = getelementptr inbounds double, double* %728, i64 1
  %730 = load double, double* %729, align 8
  %731 = fmul double %727, %730
  %732 = fadd double %722, %731
  %733 = load double*, double** %21, align 8
  %734 = load i32, i32* %32, align 4
  %735 = sext i32 %734 to i64
  %736 = getelementptr inbounds double, double* %733, i64 %735
  %737 = load double, double* %736, align 8
  %738 = load double*, double** %17, align 8
  %739 = getelementptr inbounds double, double* %738, i64 2
  %740 = load double, double* %739, align 8
  %741 = fmul double %737, %740
  %742 = fadd double %732, %741
  %743 = load double*, double** %22, align 8
  %744 = load i32, i32* %32, align 4
  %745 = sext i32 %744 to i64
  %746 = getelementptr inbounds double, double* %743, i64 %745
  %747 = load double, double* %746, align 8
  %748 = load double*, double** %17, align 8
  %749 = getelementptr inbounds double, double* %748, i64 3
  %750 = load double, double* %749, align 8
  %751 = fmul double %747, %750
  %752 = fadd double %742, %751
  %753 = load double*, double** %23, align 8
  %754 = load i32, i32* %32, align 4
  %755 = sext i32 %754 to i64
  %756 = getelementptr inbounds double, double* %753, i64 %755
  %757 = load double, double* %756, align 8
  %758 = load double*, double** %17, align 8
  %759 = getelementptr inbounds double, double* %758, i64 4
  %760 = load double, double* %759, align 8
  %761 = fmul double %757, %760
  %762 = fadd double %752, %761
  %763 = load double*, double** %24, align 8
  %764 = load i32, i32* %32, align 4
  %765 = sext i32 %764 to i64
  %766 = getelementptr inbounds double, double* %763, i64 %765
  %767 = load double, double* %766, align 8
  %768 = load double*, double** %17, align 8
  %769 = getelementptr inbounds double, double* %768, i64 5
  %770 = load double, double* %769, align 8
  %771 = fmul double %767, %770
  %772 = fadd double %762, %771
  %773 = load double*, double** %25, align 8
  %774 = load i32, i32* %32, align 4
  %775 = sext i32 %774 to i64
  %776 = getelementptr inbounds double, double* %773, i64 %775
  %777 = load double, double* %776, align 8
  %778 = load double*, double** %17, align 8
  %779 = getelementptr inbounds double, double* %778, i64 6
  %780 = load double, double* %779, align 8
  %781 = fmul double %777, %780
  %782 = fadd double %772, %781
  %783 = load double*, double** %26, align 8
  %784 = load i32, i32* %32, align 4
  %785 = sext i32 %784 to i64
  %786 = getelementptr inbounds double, double* %783, i64 %785
  %787 = load double, double* %786, align 8
  %788 = load double*, double** %17, align 8
  %789 = getelementptr inbounds double, double* %788, i64 7
  %790 = load double, double* %789, align 8
  %791 = fmul double %787, %790
  %792 = fadd double %782, %791
  store double %792, double* %36, align 8
  %793 = load double*, double** %19, align 8
  %794 = load i32, i32* %33, align 4
  %795 = sext i32 %794 to i64
  %796 = getelementptr inbounds double, double* %793, i64 %795
  %797 = load double, double* %796, align 8
  %798 = load double*, double** %17, align 8
  %799 = getelementptr inbounds double, double* %798, i64 0
  %800 = load double, double* %799, align 8
  %801 = fmul double %797, %800
  %802 = load double*, double** %20, align 8
  %803 = load i32, i32* %33, align 4
  %804 = sext i32 %803 to i64
  %805 = getelementptr inbounds double, double* %802, i64 %804
  %806 = load double, double* %805, align 8
  %807 = load double*, double** %17, align 8
  %808 = getelementptr inbounds double, double* %807, i64 1
  %809 = load double, double* %808, align 8
  %810 = fmul double %806, %809
  %811 = fadd double %801, %810
  %812 = load double*, double** %21, align 8
  %813 = load i32, i32* %33, align 4
  %814 = sext i32 %813 to i64
  %815 = getelementptr inbounds double, double* %812, i64 %814
  %816 = load double, double* %815, align 8
  %817 = load double*, double** %17, align 8
  %818 = getelementptr inbounds double, double* %817, i64 2
  %819 = load double, double* %818, align 8
  %820 = fmul double %816, %819
  %821 = fadd double %811, %820
  %822 = load double*, double** %22, align 8
  %823 = load i32, i32* %33, align 4
  %824 = sext i32 %823 to i64
  %825 = getelementptr inbounds double, double* %822, i64 %824
  %826 = load double, double* %825, align 8
  %827 = load double*, double** %17, align 8
  %828 = getelementptr inbounds double, double* %827, i64 3
  %829 = load double, double* %828, align 8
  %830 = fmul double %826, %829
  %831 = fadd double %821, %830
  %832 = load double*, double** %23, align 8
  %833 = load i32, i32* %33, align 4
  %834 = sext i32 %833 to i64
  %835 = getelementptr inbounds double, double* %832, i64 %834
  %836 = load double, double* %835, align 8
  %837 = load double*, double** %17, align 8
  %838 = getelementptr inbounds double, double* %837, i64 4
  %839 = load double, double* %838, align 8
  %840 = fmul double %836, %839
  %841 = fadd double %831, %840
  %842 = load double*, double** %24, align 8
  %843 = load i32, i32* %33, align 4
  %844 = sext i32 %843 to i64
  %845 = getelementptr inbounds double, double* %842, i64 %844
  %846 = load double, double* %845, align 8
  %847 = load double*, double** %17, align 8
  %848 = getelementptr inbounds double, double* %847, i64 5
  %849 = load double, double* %848, align 8
  %850 = fmul double %846, %849
  %851 = fadd double %841, %850
  %852 = load double*, double** %25, align 8
  %853 = load i32, i32* %33, align 4
  %854 = sext i32 %853 to i64
  %855 = getelementptr inbounds double, double* %852, i64 %854
  %856 = load double, double* %855, align 8
  %857 = load double*, double** %17, align 8
  %858 = getelementptr inbounds double, double* %857, i64 6
  %859 = load double, double* %858, align 8
  %860 = fmul double %856, %859
  %861 = fadd double %851, %860
  %862 = load double*, double** %26, align 8
  %863 = load i32, i32* %33, align 4
  %864 = sext i32 %863 to i64
  %865 = getelementptr inbounds double, double* %862, i64 %864
  %866 = load double, double* %865, align 8
  %867 = load double*, double** %17, align 8
  %868 = getelementptr inbounds double, double* %867, i64 7
  %869 = load double, double* %868, align 8
  %870 = fmul double %866, %869
  %871 = fadd double %861, %870
  store double %871, double* %37, align 8
  %872 = load double*, double** %19, align 8
  %873 = load i32, i32* %34, align 4
  %874 = sext i32 %873 to i64
  %875 = getelementptr inbounds double, double* %872, i64 %874
  %876 = load double, double* %875, align 8
  %877 = load double*, double** %17, align 8
  %878 = getelementptr inbounds double, double* %877, i64 0
  %879 = load double, double* %878, align 8
  %880 = fmul double %876, %879
  %881 = load double*, double** %20, align 8
  %882 = load i32, i32* %34, align 4
  %883 = sext i32 %882 to i64
  %884 = getelementptr inbounds double, double* %881, i64 %883
  %885 = load double, double* %884, align 8
  %886 = load double*, double** %17, align 8
  %887 = getelementptr inbounds double, double* %886, i64 1
  %888 = load double, double* %887, align 8
  %889 = fmul double %885, %888
  %890 = fadd double %880, %889
  %891 = load double*, double** %21, align 8
  %892 = load i32, i32* %34, align 4
  %893 = sext i32 %892 to i64
  %894 = getelementptr inbounds double, double* %891, i64 %893
  %895 = load double, double* %894, align 8
  %896 = load double*, double** %17, align 8
  %897 = getelementptr inbounds double, double* %896, i64 2
  %898 = load double, double* %897, align 8
  %899 = fmul double %895, %898
  %900 = fadd double %890, %899
  %901 = load double*, double** %22, align 8
  %902 = load i32, i32* %34, align 4
  %903 = sext i32 %902 to i64
  %904 = getelementptr inbounds double, double* %901, i64 %903
  %905 = load double, double* %904, align 8
  %906 = load double*, double** %17, align 8
  %907 = getelementptr inbounds double, double* %906, i64 3
  %908 = load double, double* %907, align 8
  %909 = fmul double %905, %908
  %910 = fadd double %900, %909
  %911 = load double*, double** %23, align 8
  %912 = load i32, i32* %34, align 4
  %913 = sext i32 %912 to i64
  %914 = getelementptr inbounds double, double* %911, i64 %913
  %915 = load double, double* %914, align 8
  %916 = load double*, double** %17, align 8
  %917 = getelementptr inbounds double, double* %916, i64 4
  %918 = load double, double* %917, align 8
  %919 = fmul double %915, %918
  %920 = fadd double %910, %919
  %921 = load double*, double** %24, align 8
  %922 = load i32, i32* %34, align 4
  %923 = sext i32 %922 to i64
  %924 = getelementptr inbounds double, double* %921, i64 %923
  %925 = load double, double* %924, align 8
  %926 = load double*, double** %17, align 8
  %927 = getelementptr inbounds double, double* %926, i64 5
  %928 = load double, double* %927, align 8
  %929 = fmul double %925, %928
  %930 = fadd double %920, %929
  %931 = load double*, double** %25, align 8
  %932 = load i32, i32* %34, align 4
  %933 = sext i32 %932 to i64
  %934 = getelementptr inbounds double, double* %931, i64 %933
  %935 = load double, double* %934, align 8
  %936 = load double*, double** %17, align 8
  %937 = getelementptr inbounds double, double* %936, i64 6
  %938 = load double, double* %937, align 8
  %939 = fmul double %935, %938
  %940 = fadd double %930, %939
  %941 = load double*, double** %26, align 8
  %942 = load i32, i32* %34, align 4
  %943 = sext i32 %942 to i64
  %944 = getelementptr inbounds double, double* %941, i64 %943
  %945 = load double, double* %944, align 8
  %946 = load double*, double** %17, align 8
  %947 = getelementptr inbounds double, double* %946, i64 7
  %948 = load double, double* %947, align 8
  %949 = fmul double %945, %948
  %950 = fadd double %940, %949
  store double %950, double* %38, align 8
  %951 = load double, double* %27, align 8
  %952 = load double*, double** %19, align 8
  %953 = load i32, i32* %31, align 4
  %954 = sext i32 %953 to i64
  %955 = getelementptr inbounds double, double* %952, i64 %954
  %956 = load double, double* %955, align 8
  %957 = load double, double* %35, align 8
  %958 = fmul double %956, %957
  %959 = load double*, double** %19, align 8
  %960 = load i32, i32* %32, align 4
  %961 = sext i32 %960 to i64
  %962 = getelementptr inbounds double, double* %959, i64 %961
  %963 = load double, double* %962, align 8
  %964 = load double, double* %36, align 8
  %965 = fmul double %963, %964
  %966 = fadd double %958, %965
  %967 = load double*, double** %19, align 8
  %968 = load i32, i32* %33, align 4
  %969 = sext i32 %968 to i64
  %970 = getelementptr inbounds double, double* %967, i64 %969
  %971 = load double, double* %970, align 8
  %972 = load double, double* %37, align 8
  %973 = fmul double %971, %972
  %974 = fadd double %966, %973
  %975 = load double*, double** %19, align 8
  %976 = load i32, i32* %34, align 4
  %977 = sext i32 %976 to i64
  %978 = getelementptr inbounds double, double* %975, i64 %977
  %979 = load double, double* %978, align 8
  %980 = load double, double* %38, align 8
  %981 = fmul double %979, %980
  %982 = fadd double %974, %981
  %983 = fmul double %951, %982
  %984 = load double*, double** %29, align 8
  %985 = getelementptr inbounds double, double* %984, i64 0
  store double %983, double* %985, align 8
  %986 = load double, double* %27, align 8
  %987 = load double*, double** %20, align 8
  %988 = load i32, i32* %31, align 4
  %989 = sext i32 %988 to i64
  %990 = getelementptr inbounds double, double* %987, i64 %989
  %991 = load double, double* %990, align 8
  %992 = load double, double* %35, align 8
  %993 = fmul double %991, %992
  %994 = load double*, double** %20, align 8
  %995 = load i32, i32* %32, align 4
  %996 = sext i32 %995 to i64
  %997 = getelementptr inbounds double, double* %994, i64 %996
  %998 = load double, double* %997, align 8
  %999 = load double, double* %36, align 8
  %1000 = fmul double %998, %999
  %1001 = fadd double %993, %1000
  %1002 = load double*, double** %20, align 8
  %1003 = load i32, i32* %33, align 4
  %1004 = sext i32 %1003 to i64
  %1005 = getelementptr inbounds double, double* %1002, i64 %1004
  %1006 = load double, double* %1005, align 8
  %1007 = load double, double* %37, align 8
  %1008 = fmul double %1006, %1007
  %1009 = fadd double %1001, %1008
  %1010 = load double*, double** %20, align 8
  %1011 = load i32, i32* %34, align 4
  %1012 = sext i32 %1011 to i64
  %1013 = getelementptr inbounds double, double* %1010, i64 %1012
  %1014 = load double, double* %1013, align 8
  %1015 = load double, double* %38, align 8
  %1016 = fmul double %1014, %1015
  %1017 = fadd double %1009, %1016
  %1018 = fmul double %986, %1017
  %1019 = load double*, double** %29, align 8
  %1020 = getelementptr inbounds double, double* %1019, i64 1
  store double %1018, double* %1020, align 8
  %1021 = load double, double* %27, align 8
  %1022 = load double*, double** %21, align 8
  %1023 = load i32, i32* %31, align 4
  %1024 = sext i32 %1023 to i64
  %1025 = getelementptr inbounds double, double* %1022, i64 %1024
  %1026 = load double, double* %1025, align 8
  %1027 = load double, double* %35, align 8
  %1028 = fmul double %1026, %1027
  %1029 = load double*, double** %21, align 8
  %1030 = load i32, i32* %32, align 4
  %1031 = sext i32 %1030 to i64
  %1032 = getelementptr inbounds double, double* %1029, i64 %1031
  %1033 = load double, double* %1032, align 8
  %1034 = load double, double* %36, align 8
  %1035 = fmul double %1033, %1034
  %1036 = fadd double %1028, %1035
  %1037 = load double*, double** %21, align 8
  %1038 = load i32, i32* %33, align 4
  %1039 = sext i32 %1038 to i64
  %1040 = getelementptr inbounds double, double* %1037, i64 %1039
  %1041 = load double, double* %1040, align 8
  %1042 = load double, double* %37, align 8
  %1043 = fmul double %1041, %1042
  %1044 = fadd double %1036, %1043
  %1045 = load double*, double** %21, align 8
  %1046 = load i32, i32* %34, align 4
  %1047 = sext i32 %1046 to i64
  %1048 = getelementptr inbounds double, double* %1045, i64 %1047
  %1049 = load double, double* %1048, align 8
  %1050 = load double, double* %38, align 8
  %1051 = fmul double %1049, %1050
  %1052 = fadd double %1044, %1051
  %1053 = fmul double %1021, %1052
  %1054 = load double*, double** %29, align 8
  %1055 = getelementptr inbounds double, double* %1054, i64 2
  store double %1053, double* %1055, align 8
  %1056 = load double, double* %27, align 8
  %1057 = load double*, double** %22, align 8
  %1058 = load i32, i32* %31, align 4
  %1059 = sext i32 %1058 to i64
  %1060 = getelementptr inbounds double, double* %1057, i64 %1059
  %1061 = load double, double* %1060, align 8
  %1062 = load double, double* %35, align 8
  %1063 = fmul double %1061, %1062
  %1064 = load double*, double** %22, align 8
  %1065 = load i32, i32* %32, align 4
  %1066 = sext i32 %1065 to i64
  %1067 = getelementptr inbounds double, double* %1064, i64 %1066
  %1068 = load double, double* %1067, align 8
  %1069 = load double, double* %36, align 8
  %1070 = fmul double %1068, %1069
  %1071 = fadd double %1063, %1070
  %1072 = load double*, double** %22, align 8
  %1073 = load i32, i32* %33, align 4
  %1074 = sext i32 %1073 to i64
  %1075 = getelementptr inbounds double, double* %1072, i64 %1074
  %1076 = load double, double* %1075, align 8
  %1077 = load double, double* %37, align 8
  %1078 = fmul double %1076, %1077
  %1079 = fadd double %1071, %1078
  %1080 = load double*, double** %22, align 8
  %1081 = load i32, i32* %34, align 4
  %1082 = sext i32 %1081 to i64
  %1083 = getelementptr inbounds double, double* %1080, i64 %1082
  %1084 = load double, double* %1083, align 8
  %1085 = load double, double* %38, align 8
  %1086 = fmul double %1084, %1085
  %1087 = fadd double %1079, %1086
  %1088 = fmul double %1056, %1087
  %1089 = load double*, double** %29, align 8
  %1090 = getelementptr inbounds double, double* %1089, i64 3
  store double %1088, double* %1090, align 8
  %1091 = load double, double* %27, align 8
  %1092 = load double*, double** %23, align 8
  %1093 = load i32, i32* %31, align 4
  %1094 = sext i32 %1093 to i64
  %1095 = getelementptr inbounds double, double* %1092, i64 %1094
  %1096 = load double, double* %1095, align 8
  %1097 = load double, double* %35, align 8
  %1098 = fmul double %1096, %1097
  %1099 = load double*, double** %23, align 8
  %1100 = load i32, i32* %32, align 4
  %1101 = sext i32 %1100 to i64
  %1102 = getelementptr inbounds double, double* %1099, i64 %1101
  %1103 = load double, double* %1102, align 8
  %1104 = load double, double* %36, align 8
  %1105 = fmul double %1103, %1104
  %1106 = fadd double %1098, %1105
  %1107 = load double*, double** %23, align 8
  %1108 = load i32, i32* %33, align 4
  %1109 = sext i32 %1108 to i64
  %1110 = getelementptr inbounds double, double* %1107, i64 %1109
  %1111 = load double, double* %1110, align 8
  %1112 = load double, double* %37, align 8
  %1113 = fmul double %1111, %1112
  %1114 = fadd double %1106, %1113
  %1115 = load double*, double** %23, align 8
  %1116 = load i32, i32* %34, align 4
  %1117 = sext i32 %1116 to i64
  %1118 = getelementptr inbounds double, double* %1115, i64 %1117
  %1119 = load double, double* %1118, align 8
  %1120 = load double, double* %38, align 8
  %1121 = fmul double %1119, %1120
  %1122 = fadd double %1114, %1121
  %1123 = fmul double %1091, %1122
  %1124 = load double*, double** %29, align 8
  %1125 = getelementptr inbounds double, double* %1124, i64 4
  store double %1123, double* %1125, align 8
  %1126 = load double, double* %27, align 8
  %1127 = load double*, double** %24, align 8
  %1128 = load i32, i32* %31, align 4
  %1129 = sext i32 %1128 to i64
  %1130 = getelementptr inbounds double, double* %1127, i64 %1129
  %1131 = load double, double* %1130, align 8
  %1132 = load double, double* %35, align 8
  %1133 = fmul double %1131, %1132
  %1134 = load double*, double** %24, align 8
  %1135 = load i32, i32* %32, align 4
  %1136 = sext i32 %1135 to i64
  %1137 = getelementptr inbounds double, double* %1134, i64 %1136
  %1138 = load double, double* %1137, align 8
  %1139 = load double, double* %36, align 8
  %1140 = fmul double %1138, %1139
  %1141 = fadd double %1133, %1140
  %1142 = load double*, double** %24, align 8
  %1143 = load i32, i32* %33, align 4
  %1144 = sext i32 %1143 to i64
  %1145 = getelementptr inbounds double, double* %1142, i64 %1144
  %1146 = load double, double* %1145, align 8
  %1147 = load double, double* %37, align 8
  %1148 = fmul double %1146, %1147
  %1149 = fadd double %1141, %1148
  %1150 = load double*, double** %24, align 8
  %1151 = load i32, i32* %34, align 4
  %1152 = sext i32 %1151 to i64
  %1153 = getelementptr inbounds double, double* %1150, i64 %1152
  %1154 = load double, double* %1153, align 8
  %1155 = load double, double* %38, align 8
  %1156 = fmul double %1154, %1155
  %1157 = fadd double %1149, %1156
  %1158 = fmul double %1126, %1157
  %1159 = load double*, double** %29, align 8
  %1160 = getelementptr inbounds double, double* %1159, i64 5
  store double %1158, double* %1160, align 8
  %1161 = load double, double* %27, align 8
  %1162 = load double*, double** %25, align 8
  %1163 = load i32, i32* %31, align 4
  %1164 = sext i32 %1163 to i64
  %1165 = getelementptr inbounds double, double* %1162, i64 %1164
  %1166 = load double, double* %1165, align 8
  %1167 = load double, double* %35, align 8
  %1168 = fmul double %1166, %1167
  %1169 = load double*, double** %25, align 8
  %1170 = load i32, i32* %32, align 4
  %1171 = sext i32 %1170 to i64
  %1172 = getelementptr inbounds double, double* %1169, i64 %1171
  %1173 = load double, double* %1172, align 8
  %1174 = load double, double* %36, align 8
  %1175 = fmul double %1173, %1174
  %1176 = fadd double %1168, %1175
  %1177 = load double*, double** %25, align 8
  %1178 = load i32, i32* %33, align 4
  %1179 = sext i32 %1178 to i64
  %1180 = getelementptr inbounds double, double* %1177, i64 %1179
  %1181 = load double, double* %1180, align 8
  %1182 = load double, double* %37, align 8
  %1183 = fmul double %1181, %1182
  %1184 = fadd double %1176, %1183
  %1185 = load double*, double** %25, align 8
  %1186 = load i32, i32* %34, align 4
  %1187 = sext i32 %1186 to i64
  %1188 = getelementptr inbounds double, double* %1185, i64 %1187
  %1189 = load double, double* %1188, align 8
  %1190 = load double, double* %38, align 8
  %1191 = fmul double %1189, %1190
  %1192 = fadd double %1184, %1191
  %1193 = fmul double %1161, %1192
  %1194 = load double*, double** %29, align 8
  %1195 = getelementptr inbounds double, double* %1194, i64 6
  store double %1193, double* %1195, align 8
  %1196 = load double, double* %27, align 8
  %1197 = load double*, double** %26, align 8
  %1198 = load i32, i32* %31, align 4
  %1199 = sext i32 %1198 to i64
  %1200 = getelementptr inbounds double, double* %1197, i64 %1199
  %1201 = load double, double* %1200, align 8
  %1202 = load double, double* %35, align 8
  %1203 = fmul double %1201, %1202
  %1204 = load double*, double** %26, align 8
  %1205 = load i32, i32* %32, align 4
  %1206 = sext i32 %1205 to i64
  %1207 = getelementptr inbounds double, double* %1204, i64 %1206
  %1208 = load double, double* %1207, align 8
  %1209 = load double, double* %36, align 8
  %1210 = fmul double %1208, %1209
  %1211 = fadd double %1203, %1210
  %1212 = load double*, double** %26, align 8
  %1213 = load i32, i32* %33, align 4
  %1214 = sext i32 %1213 to i64
  %1215 = getelementptr inbounds double, double* %1212, i64 %1214
  %1216 = load double, double* %1215, align 8
  %1217 = load double, double* %37, align 8
  %1218 = fmul double %1216, %1217
  %1219 = fadd double %1211, %1218
  %1220 = load double*, double** %26, align 8
  %1221 = load i32, i32* %34, align 4
  %1222 = sext i32 %1221 to i64
  %1223 = getelementptr inbounds double, double* %1220, i64 %1222
  %1224 = load double, double* %1223, align 8
  %1225 = load double, double* %38, align 8
  %1226 = fmul double %1224, %1225
  %1227 = fadd double %1219, %1226
  %1228 = fmul double %1196, %1227
  %1229 = load double*, double** %29, align 8
  %1230 = getelementptr inbounds double, double* %1229, i64 7
  store double %1228, double* %1230, align 8
  %1231 = load double*, double** %19, align 8
  %1232 = load i32, i32* %31, align 4
  %1233 = sext i32 %1232 to i64
  %1234 = getelementptr inbounds double, double* %1231, i64 %1233
  %1235 = load double, double* %1234, align 8
  %1236 = load double*, double** %18, align 8
  %1237 = getelementptr inbounds double, double* %1236, i64 0
  %1238 = load double, double* %1237, align 8
  %1239 = fmul double %1235, %1238
  %1240 = load double*, double** %20, align 8
  %1241 = load i32, i32* %31, align 4
  %1242 = sext i32 %1241 to i64
  %1243 = getelementptr inbounds double, double* %1240, i64 %1242
  %1244 = load double, double* %1243, align 8
  %1245 = load double*, double** %18, align 8
  %1246 = getelementptr inbounds double, double* %1245, i64 1
  %1247 = load double, double* %1246, align 8
  %1248 = fmul double %1244, %1247
  %1249 = fadd double %1239, %1248
  %1250 = load double*, double** %21, align 8
  %1251 = load i32, i32* %31, align 4
  %1252 = sext i32 %1251 to i64
  %1253 = getelementptr inbounds double, double* %1250, i64 %1252
  %1254 = load double, double* %1253, align 8
  %1255 = load double*, double** %18, align 8
  %1256 = getelementptr inbounds double, double* %1255, i64 2
  %1257 = load double, double* %1256, align 8
  %1258 = fmul double %1254, %1257
  %1259 = fadd double %1249, %1258
  %1260 = load double*, double** %22, align 8
  %1261 = load i32, i32* %31, align 4
  %1262 = sext i32 %1261 to i64
  %1263 = getelementptr inbounds double, double* %1260, i64 %1262
  %1264 = load double, double* %1263, align 8
  %1265 = load double*, double** %18, align 8
  %1266 = getelementptr inbounds double, double* %1265, i64 3
  %1267 = load double, double* %1266, align 8
  %1268 = fmul double %1264, %1267
  %1269 = fadd double %1259, %1268
  %1270 = load double*, double** %23, align 8
  %1271 = load i32, i32* %31, align 4
  %1272 = sext i32 %1271 to i64
  %1273 = getelementptr inbounds double, double* %1270, i64 %1272
  %1274 = load double, double* %1273, align 8
  %1275 = load double*, double** %18, align 8
  %1276 = getelementptr inbounds double, double* %1275, i64 4
  %1277 = load double, double* %1276, align 8
  %1278 = fmul double %1274, %1277
  %1279 = fadd double %1269, %1278
  %1280 = load double*, double** %24, align 8
  %1281 = load i32, i32* %31, align 4
  %1282 = sext i32 %1281 to i64
  %1283 = getelementptr inbounds double, double* %1280, i64 %1282
  %1284 = load double, double* %1283, align 8
  %1285 = load double*, double** %18, align 8
  %1286 = getelementptr inbounds double, double* %1285, i64 5
  %1287 = load double, double* %1286, align 8
  %1288 = fmul double %1284, %1287
  %1289 = fadd double %1279, %1288
  %1290 = load double*, double** %25, align 8
  %1291 = load i32, i32* %31, align 4
  %1292 = sext i32 %1291 to i64
  %1293 = getelementptr inbounds double, double* %1290, i64 %1292
  %1294 = load double, double* %1293, align 8
  %1295 = load double*, double** %18, align 8
  %1296 = getelementptr inbounds double, double* %1295, i64 6
  %1297 = load double, double* %1296, align 8
  %1298 = fmul double %1294, %1297
  %1299 = fadd double %1289, %1298
  %1300 = load double*, double** %26, align 8
  %1301 = load i32, i32* %31, align 4
  %1302 = sext i32 %1301 to i64
  %1303 = getelementptr inbounds double, double* %1300, i64 %1302
  %1304 = load double, double* %1303, align 8
  %1305 = load double*, double** %18, align 8
  %1306 = getelementptr inbounds double, double* %1305, i64 7
  %1307 = load double, double* %1306, align 8
  %1308 = fmul double %1304, %1307
  %1309 = fadd double %1299, %1308
  store double %1309, double* %35, align 8
  %1310 = load double*, double** %19, align 8
  %1311 = load i32, i32* %32, align 4
  %1312 = sext i32 %1311 to i64
  %1313 = getelementptr inbounds double, double* %1310, i64 %1312
  %1314 = load double, double* %1313, align 8
  %1315 = load double*, double** %18, align 8
  %1316 = getelementptr inbounds double, double* %1315, i64 0
  %1317 = load double, double* %1316, align 8
  %1318 = fmul double %1314, %1317
  %1319 = load double*, double** %20, align 8
  %1320 = load i32, i32* %32, align 4
  %1321 = sext i32 %1320 to i64
  %1322 = getelementptr inbounds double, double* %1319, i64 %1321
  %1323 = load double, double* %1322, align 8
  %1324 = load double*, double** %18, align 8
  %1325 = getelementptr inbounds double, double* %1324, i64 1
  %1326 = load double, double* %1325, align 8
  %1327 = fmul double %1323, %1326
  %1328 = fadd double %1318, %1327
  %1329 = load double*, double** %21, align 8
  %1330 = load i32, i32* %32, align 4
  %1331 = sext i32 %1330 to i64
  %1332 = getelementptr inbounds double, double* %1329, i64 %1331
  %1333 = load double, double* %1332, align 8
  %1334 = load double*, double** %18, align 8
  %1335 = getelementptr inbounds double, double* %1334, i64 2
  %1336 = load double, double* %1335, align 8
  %1337 = fmul double %1333, %1336
  %1338 = fadd double %1328, %1337
  %1339 = load double*, double** %22, align 8
  %1340 = load i32, i32* %32, align 4
  %1341 = sext i32 %1340 to i64
  %1342 = getelementptr inbounds double, double* %1339, i64 %1341
  %1343 = load double, double* %1342, align 8
  %1344 = load double*, double** %18, align 8
  %1345 = getelementptr inbounds double, double* %1344, i64 3
  %1346 = load double, double* %1345, align 8
  %1347 = fmul double %1343, %1346
  %1348 = fadd double %1338, %1347
  %1349 = load double*, double** %23, align 8
  %1350 = load i32, i32* %32, align 4
  %1351 = sext i32 %1350 to i64
  %1352 = getelementptr inbounds double, double* %1349, i64 %1351
  %1353 = load double, double* %1352, align 8
  %1354 = load double*, double** %18, align 8
  %1355 = getelementptr inbounds double, double* %1354, i64 4
  %1356 = load double, double* %1355, align 8
  %1357 = fmul double %1353, %1356
  %1358 = fadd double %1348, %1357
  %1359 = load double*, double** %24, align 8
  %1360 = load i32, i32* %32, align 4
  %1361 = sext i32 %1360 to i64
  %1362 = getelementptr inbounds double, double* %1359, i64 %1361
  %1363 = load double, double* %1362, align 8
  %1364 = load double*, double** %18, align 8
  %1365 = getelementptr inbounds double, double* %1364, i64 5
  %1366 = load double, double* %1365, align 8
  %1367 = fmul double %1363, %1366
  %1368 = fadd double %1358, %1367
  %1369 = load double*, double** %25, align 8
  %1370 = load i32, i32* %32, align 4
  %1371 = sext i32 %1370 to i64
  %1372 = getelementptr inbounds double, double* %1369, i64 %1371
  %1373 = load double, double* %1372, align 8
  %1374 = load double*, double** %18, align 8
  %1375 = getelementptr inbounds double, double* %1374, i64 6
  %1376 = load double, double* %1375, align 8
  %1377 = fmul double %1373, %1376
  %1378 = fadd double %1368, %1377
  %1379 = load double*, double** %26, align 8
  %1380 = load i32, i32* %32, align 4
  %1381 = sext i32 %1380 to i64
  %1382 = getelementptr inbounds double, double* %1379, i64 %1381
  %1383 = load double, double* %1382, align 8
  %1384 = load double*, double** %18, align 8
  %1385 = getelementptr inbounds double, double* %1384, i64 7
  %1386 = load double, double* %1385, align 8
  %1387 = fmul double %1383, %1386
  %1388 = fadd double %1378, %1387
  store double %1388, double* %36, align 8
  %1389 = load double*, double** %19, align 8
  %1390 = load i32, i32* %33, align 4
  %1391 = sext i32 %1390 to i64
  %1392 = getelementptr inbounds double, double* %1389, i64 %1391
  %1393 = load double, double* %1392, align 8
  %1394 = load double*, double** %18, align 8
  %1395 = getelementptr inbounds double, double* %1394, i64 0
  %1396 = load double, double* %1395, align 8
  %1397 = fmul double %1393, %1396
  %1398 = load double*, double** %20, align 8
  %1399 = load i32, i32* %33, align 4
  %1400 = sext i32 %1399 to i64
  %1401 = getelementptr inbounds double, double* %1398, i64 %1400
  %1402 = load double, double* %1401, align 8
  %1403 = load double*, double** %18, align 8
  %1404 = getelementptr inbounds double, double* %1403, i64 1
  %1405 = load double, double* %1404, align 8
  %1406 = fmul double %1402, %1405
  %1407 = fadd double %1397, %1406
  %1408 = load double*, double** %21, align 8
  %1409 = load i32, i32* %33, align 4
  %1410 = sext i32 %1409 to i64
  %1411 = getelementptr inbounds double, double* %1408, i64 %1410
  %1412 = load double, double* %1411, align 8
  %1413 = load double*, double** %18, align 8
  %1414 = getelementptr inbounds double, double* %1413, i64 2
  %1415 = load double, double* %1414, align 8
  %1416 = fmul double %1412, %1415
  %1417 = fadd double %1407, %1416
  %1418 = load double*, double** %22, align 8
  %1419 = load i32, i32* %33, align 4
  %1420 = sext i32 %1419 to i64
  %1421 = getelementptr inbounds double, double* %1418, i64 %1420
  %1422 = load double, double* %1421, align 8
  %1423 = load double*, double** %18, align 8
  %1424 = getelementptr inbounds double, double* %1423, i64 3
  %1425 = load double, double* %1424, align 8
  %1426 = fmul double %1422, %1425
  %1427 = fadd double %1417, %1426
  %1428 = load double*, double** %23, align 8
  %1429 = load i32, i32* %33, align 4
  %1430 = sext i32 %1429 to i64
  %1431 = getelementptr inbounds double, double* %1428, i64 %1430
  %1432 = load double, double* %1431, align 8
  %1433 = load double*, double** %18, align 8
  %1434 = getelementptr inbounds double, double* %1433, i64 4
  %1435 = load double, double* %1434, align 8
  %1436 = fmul double %1432, %1435
  %1437 = fadd double %1427, %1436
  %1438 = load double*, double** %24, align 8
  %1439 = load i32, i32* %33, align 4
  %1440 = sext i32 %1439 to i64
  %1441 = getelementptr inbounds double, double* %1438, i64 %1440
  %1442 = load double, double* %1441, align 8
  %1443 = load double*, double** %18, align 8
  %1444 = getelementptr inbounds double, double* %1443, i64 5
  %1445 = load double, double* %1444, align 8
  %1446 = fmul double %1442, %1445
  %1447 = fadd double %1437, %1446
  %1448 = load double*, double** %25, align 8
  %1449 = load i32, i32* %33, align 4
  %1450 = sext i32 %1449 to i64
  %1451 = getelementptr inbounds double, double* %1448, i64 %1450
  %1452 = load double, double* %1451, align 8
  %1453 = load double*, double** %18, align 8
  %1454 = getelementptr inbounds double, double* %1453, i64 6
  %1455 = load double, double* %1454, align 8
  %1456 = fmul double %1452, %1455
  %1457 = fadd double %1447, %1456
  %1458 = load double*, double** %26, align 8
  %1459 = load i32, i32* %33, align 4
  %1460 = sext i32 %1459 to i64
  %1461 = getelementptr inbounds double, double* %1458, i64 %1460
  %1462 = load double, double* %1461, align 8
  %1463 = load double*, double** %18, align 8
  %1464 = getelementptr inbounds double, double* %1463, i64 7
  %1465 = load double, double* %1464, align 8
  %1466 = fmul double %1462, %1465
  %1467 = fadd double %1457, %1466
  store double %1467, double* %37, align 8
  %1468 = load double*, double** %19, align 8
  %1469 = load i32, i32* %34, align 4
  %1470 = sext i32 %1469 to i64
  %1471 = getelementptr inbounds double, double* %1468, i64 %1470
  %1472 = load double, double* %1471, align 8
  %1473 = load double*, double** %18, align 8
  %1474 = getelementptr inbounds double, double* %1473, i64 0
  %1475 = load double, double* %1474, align 8
  %1476 = fmul double %1472, %1475
  %1477 = load double*, double** %20, align 8
  %1478 = load i32, i32* %34, align 4
  %1479 = sext i32 %1478 to i64
  %1480 = getelementptr inbounds double, double* %1477, i64 %1479
  %1481 = load double, double* %1480, align 8
  %1482 = load double*, double** %18, align 8
  %1483 = getelementptr inbounds double, double* %1482, i64 1
  %1484 = load double, double* %1483, align 8
  %1485 = fmul double %1481, %1484
  %1486 = fadd double %1476, %1485
  %1487 = load double*, double** %21, align 8
  %1488 = load i32, i32* %34, align 4
  %1489 = sext i32 %1488 to i64
  %1490 = getelementptr inbounds double, double* %1487, i64 %1489
  %1491 = load double, double* %1490, align 8
  %1492 = load double*, double** %18, align 8
  %1493 = getelementptr inbounds double, double* %1492, i64 2
  %1494 = load double, double* %1493, align 8
  %1495 = fmul double %1491, %1494
  %1496 = fadd double %1486, %1495
  %1497 = load double*, double** %22, align 8
  %1498 = load i32, i32* %34, align 4
  %1499 = sext i32 %1498 to i64
  %1500 = getelementptr inbounds double, double* %1497, i64 %1499
  %1501 = load double, double* %1500, align 8
  %1502 = load double*, double** %18, align 8
  %1503 = getelementptr inbounds double, double* %1502, i64 3
  %1504 = load double, double* %1503, align 8
  %1505 = fmul double %1501, %1504
  %1506 = fadd double %1496, %1505
  %1507 = load double*, double** %23, align 8
  %1508 = load i32, i32* %34, align 4
  %1509 = sext i32 %1508 to i64
  %1510 = getelementptr inbounds double, double* %1507, i64 %1509
  %1511 = load double, double* %1510, align 8
  %1512 = load double*, double** %18, align 8
  %1513 = getelementptr inbounds double, double* %1512, i64 4
  %1514 = load double, double* %1513, align 8
  %1515 = fmul double %1511, %1514
  %1516 = fadd double %1506, %1515
  %1517 = load double*, double** %24, align 8
  %1518 = load i32, i32* %34, align 4
  %1519 = sext i32 %1518 to i64
  %1520 = getelementptr inbounds double, double* %1517, i64 %1519
  %1521 = load double, double* %1520, align 8
  %1522 = load double*, double** %18, align 8
  %1523 = getelementptr inbounds double, double* %1522, i64 5
  %1524 = load double, double* %1523, align 8
  %1525 = fmul double %1521, %1524
  %1526 = fadd double %1516, %1525
  %1527 = load double*, double** %25, align 8
  %1528 = load i32, i32* %34, align 4
  %1529 = sext i32 %1528 to i64
  %1530 = getelementptr inbounds double, double* %1527, i64 %1529
  %1531 = load double, double* %1530, align 8
  %1532 = load double*, double** %18, align 8
