; ModuleID = '/home/evapowlison/O1-resAn/llfi/LULESH-llfi_index.ll'
source_filename = "llvm-link"
target datalayout = "e-m:e-p270:32:32-p271:32:32-p272:64:64-i64:64-f80:128-n8:16:32:64-S128"
target triple = "x86_64-unknown-linux-gnu"

%struct.Mesh = type { %"class.std::vector", %"class.std::vector", %"class.std::vector", %"class.std::vector", %"class.std::vector", %"class.std::vector", %"class.std::vector", %"class.std::vector", %"class.std::vector", %"class.std::vector", %"class.std::vector", %"class.std::vector", %"class.std::vector", %"class.std::vector", %"class.std::vector", %"class.std::vector", %"class.std::vector", %"class.std::vector", %"class.std::vector", %"class.std::vector", %"class.std::vector", %"class.std::vector", %"class.std::vector", %"class.std::vector", %"class.std::vector", %"class.std::vector", %"class.std::vector", %"class.std::vector", %"class.std::vector", %"class.std::vector", %"class.std::vector", %"class.std::vector", %"class.std::vector", %"class.std::vector", %"class.std::vector", %"class.std::vector", %"class.std::vector", %"class.std::vector", %"class.std::vector", %"class.std::vector", %"class.std::vector", %"class.std::vector", %"class.std::vector", %"class.std::vector", %"class.std::vector", %"class.std::vector", %"class.std::vector", double, double, double, double, double, double, double, double, double, double, double, double, double, double, double, double, double, double, double, double, double, double, double, double, double, double, double, double, i32, i32, i32, i32, i32, i32 }
%"class.std::vector" = type { %"struct.std::_Vector_base" }
%"struct.std::_Vector_base" = type { %"struct.std::_Vector_base<double, std::allocator<double>>::_Vector_impl" }
%"struct.std::_Vector_base<double, std::allocator<double>>::_Vector_impl" = type { ptr, ptr, ptr }
%struct.timeval = type { i64, i64 }

$_ZN4MeshD2Ev = comdat any

$_ZN4Mesh22AllocateElemPersistentEm = comdat any

$_ZN4Mesh21AllocateElemTemporaryEm = comdat any

$_ZN4Mesh23AllocateNodalPersistentEm = comdat any

$_ZN4Mesh16AllocateNodesetsEm = comdat any

$_ZNSt6vectorIiSaIiEE17_M_default_appendEm = comdat any

$_ZNSt6vectorIdSaIdEE17_M_default_appendEm = comdat any

$_ZNSt6vectorIdSaIdEE14_M_fill_insertEN9__gnu_cxx17__normal_iteratorIPdS1_EEmRKd = comdat any

@llvm.global_ctors = appending global [1 x { i32, ptr, ptr }] [{ i32, ptr, ptr } { i32 65535, ptr @_GLOBAL__sub_I_LULESH.cc, ptr null }]
@mesh = dso_local global %struct.Mesh zeroinitializer, align 8
@.str = private unnamed_addr constant [12 x i8] c"element.dat\00", align 1
@.str.1 = private unnamed_addr constant [2 x i8] c"w\00", align 1
@.str.2 = private unnamed_addr constant [5 x i8] c"%f \0A\00", align 1
@.str.3 = private unnamed_addr constant [26 x i8] c"vector::_M_default_append\00", align 1
@.str.4 = private unnamed_addr constant [23 x i8] c"vector::_M_fill_insert\00", align 1

; Function Attrs: nounwind uwtable
define internal void @_GLOBAL__sub_I_LULESH.cc() #0 section ".text.startup" personality ptr @__gxx_personality_v0 {
entry:
  call void @llvm.memset.p0.i64(ptr noundef nonnull align 8 dereferenceable(1128) @mesh, i8 0, i64 1128, i1 false) #2, !llfi_index !5
  %0 = call i32 @atexit(ptr nonnull @__dtor_mesh) #2, !llfi_index !6
  call void @doProfiling(i32 56)
  ret void, !llfi_index !7
}

declare i32 @__gxx_personality_v0(...)

; Function Attrs: argmemonly nofree nounwind willreturn writeonly
declare void @llvm.memset.p0.i64(ptr nocapture writeonly, i8, i64, i1 immarg) #1

; Function Attrs: nounwind uwtable
define internal void @__dtor_mesh() #0 section ".text.startup" {
entry:
  call void @_ZN4MeshD2Ev(ptr @mesh), !llfi_index !8
  ret void, !llfi_index !9
}

; Function Attrs: nounwind
declare i32 @atexit(ptr) local_unnamed_addr #2

; Function Attrs: inlinehint nounwind uwtable
define linkonce_odr dso_local void @_ZN4MeshD2Ev(ptr noundef nonnull align 8 dereferenceable(1376) %this) unnamed_addr #3 comdat align 2 personality ptr @__gxx_personality_v0 {
entry:
  %m_elemMass = getelementptr inbounds %struct.Mesh, ptr %this, i64 0, i32 46, !llfi_index !10
  %0 = load ptr, ptr %m_elemMass, align 8, !tbaa !11, !llfi_index !17
  call void @doProfiling(i32 32)
  %tobool.not.i.i.i = icmp eq ptr %0, null, !llfi_index !18
  call void @doProfiling(i32 53)
  br i1 %tobool.not.i.i.i, label %_ZNSt6vectorIdSaIdEED2Ev.exit, label %if.then.i.i.i, !llfi_index !19

if.then.i.i.i:                                    ; preds = %entry
  call void @_ZdlPv(ptr noundef nonnull %0) #2, !llfi_index !20
  br label %_ZNSt6vectorIdSaIdEED2Ev.exit, !llfi_index !21

_ZNSt6vectorIdSaIdEED2Ev.exit:                    ; preds = %if.then.i.i.i, %entry
  %m_ss = getelementptr inbounds %struct.Mesh, ptr %this, i64 0, i32 45, !llfi_index !22
  %1 = load ptr, ptr %m_ss, align 8, !tbaa !11, !llfi_index !23
  call void @doProfiling(i32 32)
  %tobool.not.i.i.i2 = icmp eq ptr %1, null, !llfi_index !24
  call void @doProfiling(i32 53)
  br i1 %tobool.not.i.i.i2, label %_ZNSt6vectorIdSaIdEED2Ev.exit4, label %if.then.i.i.i3, !llfi_index !25

if.then.i.i.i3:                                   ; preds = %_ZNSt6vectorIdSaIdEED2Ev.exit
  call void @_ZdlPv(ptr noundef nonnull %1) #2, !llfi_index !26
  br label %_ZNSt6vectorIdSaIdEED2Ev.exit4, !llfi_index !27

_ZNSt6vectorIdSaIdEED2Ev.exit4:                   ; preds = %if.then.i.i.i3, %_ZNSt6vectorIdSaIdEED2Ev.exit
  %m_arealg = getelementptr inbounds %struct.Mesh, ptr %this, i64 0, i32 44, !llfi_index !28
  %2 = load ptr, ptr %m_arealg, align 8, !tbaa !11, !llfi_index !29
  call void @doProfiling(i32 32)
  %tobool.not.i.i.i5 = icmp eq ptr %2, null, !llfi_index !30
  call void @doProfiling(i32 53)
  br i1 %tobool.not.i.i.i5, label %_ZNSt6vectorIdSaIdEED2Ev.exit7, label %if.then.i.i.i6, !llfi_index !31

if.then.i.i.i6:                                   ; preds = %_ZNSt6vectorIdSaIdEED2Ev.exit4
  call void @_ZdlPv(ptr noundef nonnull %2) #2, !llfi_index !32
  br label %_ZNSt6vectorIdSaIdEED2Ev.exit7, !llfi_index !33

_ZNSt6vectorIdSaIdEED2Ev.exit7:                   ; preds = %if.then.i.i.i6, %_ZNSt6vectorIdSaIdEED2Ev.exit4
  %m_vdov = getelementptr inbounds %struct.Mesh, ptr %this, i64 0, i32 43, !llfi_index !34
  %3 = load ptr, ptr %m_vdov, align 8, !tbaa !11, !llfi_index !35
  call void @doProfiling(i32 32)
  %tobool.not.i.i.i8 = icmp eq ptr %3, null, !llfi_index !36
  call void @doProfiling(i32 53)
  br i1 %tobool.not.i.i.i8, label %_ZNSt6vectorIdSaIdEED2Ev.exit10, label %if.then.i.i.i9, !llfi_index !37

if.then.i.i.i9:                                   ; preds = %_ZNSt6vectorIdSaIdEED2Ev.exit7
  call void @_ZdlPv(ptr noundef nonnull %3) #2, !llfi_index !38
  br label %_ZNSt6vectorIdSaIdEED2Ev.exit10, !llfi_index !39

_ZNSt6vectorIdSaIdEED2Ev.exit10:                  ; preds = %if.then.i.i.i9, %_ZNSt6vectorIdSaIdEED2Ev.exit7
  %m_delv = getelementptr inbounds %struct.Mesh, ptr %this, i64 0, i32 42, !llfi_index !40
  %4 = load ptr, ptr %m_delv, align 8, !tbaa !11, !llfi_index !41
  call void @doProfiling(i32 32)
  %tobool.not.i.i.i11 = icmp eq ptr %4, null, !llfi_index !42
  call void @doProfiling(i32 53)
  br i1 %tobool.not.i.i.i11, label %_ZNSt6vectorIdSaIdEED2Ev.exit13, label %if.then.i.i.i12, !llfi_index !43

if.then.i.i.i12:                                  ; preds = %_ZNSt6vectorIdSaIdEED2Ev.exit10
  call void @_ZdlPv(ptr noundef nonnull %4) #2, !llfi_index !44
  br label %_ZNSt6vectorIdSaIdEED2Ev.exit13, !llfi_index !45

_ZNSt6vectorIdSaIdEED2Ev.exit13:                  ; preds = %if.then.i.i.i12, %_ZNSt6vectorIdSaIdEED2Ev.exit10
  %m_vnew = getelementptr inbounds %struct.Mesh, ptr %this, i64 0, i32 41, !llfi_index !46
  %5 = load ptr, ptr %m_vnew, align 8, !tbaa !11, !llfi_index !47
  call void @doProfiling(i32 32)
  %tobool.not.i.i.i14 = icmp eq ptr %5, null, !llfi_index !48
  call void @doProfiling(i32 53)
  br i1 %tobool.not.i.i.i14, label %_ZNSt6vectorIdSaIdEED2Ev.exit16, label %if.then.i.i.i15, !llfi_index !49

if.then.i.i.i15:                                  ; preds = %_ZNSt6vectorIdSaIdEED2Ev.exit13
  call void @_ZdlPv(ptr noundef nonnull %5) #2, !llfi_index !50
  br label %_ZNSt6vectorIdSaIdEED2Ev.exit16, !llfi_index !51

_ZNSt6vectorIdSaIdEED2Ev.exit16:                  ; preds = %if.then.i.i.i15, %_ZNSt6vectorIdSaIdEED2Ev.exit13
  %m_volo = getelementptr inbounds %struct.Mesh, ptr %this, i64 0, i32 40, !llfi_index !52
  %6 = load ptr, ptr %m_volo, align 8, !tbaa !11, !llfi_index !53
  call void @doProfiling(i32 32)
  %tobool.not.i.i.i17 = icmp eq ptr %6, null, !llfi_index !54
  call void @doProfiling(i32 53)
  br i1 %tobool.not.i.i.i17, label %_ZNSt6vectorIdSaIdEED2Ev.exit19, label %if.then.i.i.i18, !llfi_index !55

if.then.i.i.i18:                                  ; preds = %_ZNSt6vectorIdSaIdEED2Ev.exit16
  call void @_ZdlPv(ptr noundef nonnull %6) #2, !llfi_index !56
  br label %_ZNSt6vectorIdSaIdEED2Ev.exit19, !llfi_index !57

_ZNSt6vectorIdSaIdEED2Ev.exit19:                  ; preds = %if.then.i.i.i18, %_ZNSt6vectorIdSaIdEED2Ev.exit16
  %m_v = getelementptr inbounds %struct.Mesh, ptr %this, i64 0, i32 39, !llfi_index !58
  %7 = load ptr, ptr %m_v, align 8, !tbaa !11, !llfi_index !59
  call void @doProfiling(i32 32)
  %tobool.not.i.i.i20 = icmp eq ptr %7, null, !llfi_index !60
  call void @doProfiling(i32 53)
  br i1 %tobool.not.i.i.i20, label %_ZNSt6vectorIdSaIdEED2Ev.exit22, label %if.then.i.i.i21, !llfi_index !61

if.then.i.i.i21:                                  ; preds = %_ZNSt6vectorIdSaIdEED2Ev.exit19
  call void @_ZdlPv(ptr noundef nonnull %7) #2, !llfi_index !62
  br label %_ZNSt6vectorIdSaIdEED2Ev.exit22, !llfi_index !63

_ZNSt6vectorIdSaIdEED2Ev.exit22:                  ; preds = %if.then.i.i.i21, %_ZNSt6vectorIdSaIdEED2Ev.exit19
  %m_qq = getelementptr inbounds %struct.Mesh, ptr %this, i64 0, i32 38, !llfi_index !64
  %8 = load ptr, ptr %m_qq, align 8, !tbaa !11, !llfi_index !65
  call void @doProfiling(i32 32)
  %tobool.not.i.i.i23 = icmp eq ptr %8, null, !llfi_index !66
  call void @doProfiling(i32 53)
  br i1 %tobool.not.i.i.i23, label %_ZNSt6vectorIdSaIdEED2Ev.exit25, label %if.then.i.i.i24, !llfi_index !67

if.then.i.i.i24:                                  ; preds = %_ZNSt6vectorIdSaIdEED2Ev.exit22
  call void @_ZdlPv(ptr noundef nonnull %8) #2, !llfi_index !68
  br label %_ZNSt6vectorIdSaIdEED2Ev.exit25, !llfi_index !69

_ZNSt6vectorIdSaIdEED2Ev.exit25:                  ; preds = %if.then.i.i.i24, %_ZNSt6vectorIdSaIdEED2Ev.exit22
  %m_ql = getelementptr inbounds %struct.Mesh, ptr %this, i64 0, i32 37, !llfi_index !70
  %9 = load ptr, ptr %m_ql, align 8, !tbaa !11, !llfi_index !71
  call void @doProfiling(i32 32)
  %tobool.not.i.i.i26 = icmp eq ptr %9, null, !llfi_index !72
  call void @doProfiling(i32 53)
  br i1 %tobool.not.i.i.i26, label %_ZNSt6vectorIdSaIdEED2Ev.exit28, label %if.then.i.i.i27, !llfi_index !73

if.then.i.i.i27:                                  ; preds = %_ZNSt6vectorIdSaIdEED2Ev.exit25
  call void @_ZdlPv(ptr noundef nonnull %9) #2, !llfi_index !74
  br label %_ZNSt6vectorIdSaIdEED2Ev.exit28, !llfi_index !75

_ZNSt6vectorIdSaIdEED2Ev.exit28:                  ; preds = %if.then.i.i.i27, %_ZNSt6vectorIdSaIdEED2Ev.exit25
  %m_q = getelementptr inbounds %struct.Mesh, ptr %this, i64 0, i32 36, !llfi_index !76
  %10 = load ptr, ptr %m_q, align 8, !tbaa !11, !llfi_index !77
  call void @doProfiling(i32 32)
  %tobool.not.i.i.i29 = icmp eq ptr %10, null, !llfi_index !78
  call void @doProfiling(i32 53)
  br i1 %tobool.not.i.i.i29, label %_ZNSt6vectorIdSaIdEED2Ev.exit31, label %if.then.i.i.i30, !llfi_index !79

if.then.i.i.i30:                                  ; preds = %_ZNSt6vectorIdSaIdEED2Ev.exit28
  call void @_ZdlPv(ptr noundef nonnull %10) #2, !llfi_index !80
  br label %_ZNSt6vectorIdSaIdEED2Ev.exit31, !llfi_index !81

_ZNSt6vectorIdSaIdEED2Ev.exit31:                  ; preds = %if.then.i.i.i30, %_ZNSt6vectorIdSaIdEED2Ev.exit28
  %m_p = getelementptr inbounds %struct.Mesh, ptr %this, i64 0, i32 35, !llfi_index !82
  %11 = load ptr, ptr %m_p, align 8, !tbaa !11, !llfi_index !83
  call void @doProfiling(i32 32)
  %tobool.not.i.i.i32 = icmp eq ptr %11, null, !llfi_index !84
  call void @doProfiling(i32 53)
  br i1 %tobool.not.i.i.i32, label %_ZNSt6vectorIdSaIdEED2Ev.exit34, label %if.then.i.i.i33, !llfi_index !85

if.then.i.i.i33:                                  ; preds = %_ZNSt6vectorIdSaIdEED2Ev.exit31
  call void @_ZdlPv(ptr noundef nonnull %11) #2, !llfi_index !86
  br label %_ZNSt6vectorIdSaIdEED2Ev.exit34, !llfi_index !87

_ZNSt6vectorIdSaIdEED2Ev.exit34:                  ; preds = %if.then.i.i.i33, %_ZNSt6vectorIdSaIdEED2Ev.exit31
  %m_e = getelementptr inbounds %struct.Mesh, ptr %this, i64 0, i32 34, !llfi_index !88
  %12 = load ptr, ptr %m_e, align 8, !tbaa !11, !llfi_index !89
  call void @doProfiling(i32 32)
  %tobool.not.i.i.i35 = icmp eq ptr %12, null, !llfi_index !90
  call void @doProfiling(i32 53)
  br i1 %tobool.not.i.i.i35, label %_ZNSt6vectorIdSaIdEED2Ev.exit37, label %if.then.i.i.i36, !llfi_index !91

if.then.i.i.i36:                                  ; preds = %_ZNSt6vectorIdSaIdEED2Ev.exit34
  call void @_ZdlPv(ptr noundef nonnull %12) #2, !llfi_index !92
  br label %_ZNSt6vectorIdSaIdEED2Ev.exit37, !llfi_index !93

_ZNSt6vectorIdSaIdEED2Ev.exit37:                  ; preds = %if.then.i.i.i36, %_ZNSt6vectorIdSaIdEED2Ev.exit34
  %m_delx_zeta = getelementptr inbounds %struct.Mesh, ptr %this, i64 0, i32 33, !llfi_index !94
  %13 = load ptr, ptr %m_delx_zeta, align 8, !tbaa !11, !llfi_index !95
  call void @doProfiling(i32 32)
  %tobool.not.i.i.i38 = icmp eq ptr %13, null, !llfi_index !96
  call void @doProfiling(i32 53)
  br i1 %tobool.not.i.i.i38, label %_ZNSt6vectorIdSaIdEED2Ev.exit40, label %if.then.i.i.i39, !llfi_index !97

if.then.i.i.i39:                                  ; preds = %_ZNSt6vectorIdSaIdEED2Ev.exit37
  call void @_ZdlPv(ptr noundef nonnull %13) #2, !llfi_index !98
  br label %_ZNSt6vectorIdSaIdEED2Ev.exit40, !llfi_index !99

_ZNSt6vectorIdSaIdEED2Ev.exit40:                  ; preds = %if.then.i.i.i39, %_ZNSt6vectorIdSaIdEED2Ev.exit37
  %m_delx_eta = getelementptr inbounds %struct.Mesh, ptr %this, i64 0, i32 32, !llfi_index !100
  %14 = load ptr, ptr %m_delx_eta, align 8, !tbaa !11, !llfi_index !101
  call void @doProfiling(i32 32)
  %tobool.not.i.i.i41 = icmp eq ptr %14, null, !llfi_index !102
  call void @doProfiling(i32 53)
  br i1 %tobool.not.i.i.i41, label %_ZNSt6vectorIdSaIdEED2Ev.exit43, label %if.then.i.i.i42, !llfi_index !103

if.then.i.i.i42:                                  ; preds = %_ZNSt6vectorIdSaIdEED2Ev.exit40
  call void @_ZdlPv(ptr noundef nonnull %14) #2, !llfi_index !104
  br label %_ZNSt6vectorIdSaIdEED2Ev.exit43, !llfi_index !105

_ZNSt6vectorIdSaIdEED2Ev.exit43:                  ; preds = %if.then.i.i.i42, %_ZNSt6vectorIdSaIdEED2Ev.exit40
  %m_delx_xi = getelementptr inbounds %struct.Mesh, ptr %this, i64 0, i32 31, !llfi_index !106
  %15 = load ptr, ptr %m_delx_xi, align 8, !tbaa !11, !llfi_index !107
  call void @doProfiling(i32 32)
  %tobool.not.i.i.i44 = icmp eq ptr %15, null, !llfi_index !108
  call void @doProfiling(i32 53)
  br i1 %tobool.not.i.i.i44, label %_ZNSt6vectorIdSaIdEED2Ev.exit46, label %if.then.i.i.i45, !llfi_index !109

if.then.i.i.i45:                                  ; preds = %_ZNSt6vectorIdSaIdEED2Ev.exit43
  call void @_ZdlPv(ptr noundef nonnull %15) #2, !llfi_index !110
  br label %_ZNSt6vectorIdSaIdEED2Ev.exit46, !llfi_index !111

_ZNSt6vectorIdSaIdEED2Ev.exit46:                  ; preds = %if.then.i.i.i45, %_ZNSt6vectorIdSaIdEED2Ev.exit43
  %m_delv_zeta = getelementptr inbounds %struct.Mesh, ptr %this, i64 0, i32 30, !llfi_index !112
  %16 = load ptr, ptr %m_delv_zeta, align 8, !tbaa !11, !llfi_index !113
  call void @doProfiling(i32 32)
  %tobool.not.i.i.i47 = icmp eq ptr %16, null, !llfi_index !114
  call void @doProfiling(i32 53)
  br i1 %tobool.not.i.i.i47, label %_ZNSt6vectorIdSaIdEED2Ev.exit49, label %if.then.i.i.i48, !llfi_index !115

if.then.i.i.i48:                                  ; preds = %_ZNSt6vectorIdSaIdEED2Ev.exit46
  call void @_ZdlPv(ptr noundef nonnull %16) #2, !llfi_index !116
  br label %_ZNSt6vectorIdSaIdEED2Ev.exit49, !llfi_index !117

_ZNSt6vectorIdSaIdEED2Ev.exit49:                  ; preds = %if.then.i.i.i48, %_ZNSt6vectorIdSaIdEED2Ev.exit46
  %m_delv_eta = getelementptr inbounds %struct.Mesh, ptr %this, i64 0, i32 29, !llfi_index !118
  %17 = load ptr, ptr %m_delv_eta, align 8, !tbaa !11, !llfi_index !119
  call void @doProfiling(i32 32)
  %tobool.not.i.i.i50 = icmp eq ptr %17, null, !llfi_index !120
  call void @doProfiling(i32 53)
  br i1 %tobool.not.i.i.i50, label %_ZNSt6vectorIdSaIdEED2Ev.exit52, label %if.then.i.i.i51, !llfi_index !121

if.then.i.i.i51:                                  ; preds = %_ZNSt6vectorIdSaIdEED2Ev.exit49
  call void @_ZdlPv(ptr noundef nonnull %17) #2, !llfi_index !122
  br label %_ZNSt6vectorIdSaIdEED2Ev.exit52, !llfi_index !123

_ZNSt6vectorIdSaIdEED2Ev.exit52:                  ; preds = %if.then.i.i.i51, %_ZNSt6vectorIdSaIdEED2Ev.exit49
  %m_delv_xi = getelementptr inbounds %struct.Mesh, ptr %this, i64 0, i32 28, !llfi_index !124
  %18 = load ptr, ptr %m_delv_xi, align 8, !tbaa !11, !llfi_index !125
  call void @doProfiling(i32 32)
  %tobool.not.i.i.i53 = icmp eq ptr %18, null, !llfi_index !126
  call void @doProfiling(i32 53)
  br i1 %tobool.not.i.i.i53, label %_ZNSt6vectorIdSaIdEED2Ev.exit55, label %if.then.i.i.i54, !llfi_index !127

if.then.i.i.i54:                                  ; preds = %_ZNSt6vectorIdSaIdEED2Ev.exit52
  call void @_ZdlPv(ptr noundef nonnull %18) #2, !llfi_index !128
  br label %_ZNSt6vectorIdSaIdEED2Ev.exit55, !llfi_index !129

_ZNSt6vectorIdSaIdEED2Ev.exit55:                  ; preds = %if.then.i.i.i54, %_ZNSt6vectorIdSaIdEED2Ev.exit52
  %m_dzz = getelementptr inbounds %struct.Mesh, ptr %this, i64 0, i32 27, !llfi_index !130
  %19 = load ptr, ptr %m_dzz, align 8, !tbaa !11, !llfi_index !131
  call void @doProfiling(i32 32)
  %tobool.not.i.i.i56 = icmp eq ptr %19, null, !llfi_index !132
  call void @doProfiling(i32 53)
  br i1 %tobool.not.i.i.i56, label %_ZNSt6vectorIdSaIdEED2Ev.exit58, label %if.then.i.i.i57, !llfi_index !133

if.then.i.i.i57:                                  ; preds = %_ZNSt6vectorIdSaIdEED2Ev.exit55
  call void @_ZdlPv(ptr noundef nonnull %19) #2, !llfi_index !134
  br label %_ZNSt6vectorIdSaIdEED2Ev.exit58, !llfi_index !135

_ZNSt6vectorIdSaIdEED2Ev.exit58:                  ; preds = %if.then.i.i.i57, %_ZNSt6vectorIdSaIdEED2Ev.exit55
  %m_dyy = getelementptr inbounds %struct.Mesh, ptr %this, i64 0, i32 26, !llfi_index !136
  %20 = load ptr, ptr %m_dyy, align 8, !tbaa !11, !llfi_index !137
  call void @doProfiling(i32 32)
  %tobool.not.i.i.i59 = icmp eq ptr %20, null, !llfi_index !138
  call void @doProfiling(i32 53)
  br i1 %tobool.not.i.i.i59, label %_ZNSt6vectorIdSaIdEED2Ev.exit61, label %if.then.i.i.i60, !llfi_index !139

if.then.i.i.i60:                                  ; preds = %_ZNSt6vectorIdSaIdEED2Ev.exit58
  call void @_ZdlPv(ptr noundef nonnull %20) #2, !llfi_index !140
  br label %_ZNSt6vectorIdSaIdEED2Ev.exit61, !llfi_index !141

_ZNSt6vectorIdSaIdEED2Ev.exit61:                  ; preds = %if.then.i.i.i60, %_ZNSt6vectorIdSaIdEED2Ev.exit58
  %m_dxx = getelementptr inbounds %struct.Mesh, ptr %this, i64 0, i32 25, !llfi_index !142
  %21 = load ptr, ptr %m_dxx, align 8, !tbaa !11, !llfi_index !143
  call void @doProfiling(i32 32)
  %tobool.not.i.i.i62 = icmp eq ptr %21, null, !llfi_index !144
  call void @doProfiling(i32 53)
  br i1 %tobool.not.i.i.i62, label %_ZNSt6vectorIdSaIdEED2Ev.exit64, label %if.then.i.i.i63, !llfi_index !145

if.then.i.i.i63:                                  ; preds = %_ZNSt6vectorIdSaIdEED2Ev.exit61
  call void @_ZdlPv(ptr noundef nonnull %21) #2, !llfi_index !146
  br label %_ZNSt6vectorIdSaIdEED2Ev.exit64, !llfi_index !147

_ZNSt6vectorIdSaIdEED2Ev.exit64:                  ; preds = %if.then.i.i.i63, %_ZNSt6vectorIdSaIdEED2Ev.exit61
  %m_elemBC = getelementptr inbounds %struct.Mesh, ptr %this, i64 0, i32 24, !llfi_index !148
  %22 = load ptr, ptr %m_elemBC, align 8, !tbaa !149, !llfi_index !152
  call void @doProfiling(i32 32)
  %tobool.not.i.i.i65 = icmp eq ptr %22, null, !llfi_index !153
  call void @doProfiling(i32 53)
  br i1 %tobool.not.i.i.i65, label %_ZNSt6vectorIiSaIiEED2Ev.exit, label %if.then.i.i.i66, !llfi_index !154

if.then.i.i.i66:                                  ; preds = %_ZNSt6vectorIdSaIdEED2Ev.exit64
  call void @_ZdlPv(ptr noundef nonnull %22) #2, !llfi_index !155
  br label %_ZNSt6vectorIiSaIiEED2Ev.exit, !llfi_index !156

_ZNSt6vectorIiSaIiEED2Ev.exit:                    ; preds = %if.then.i.i.i66, %_ZNSt6vectorIdSaIdEED2Ev.exit64
  %m_lzetap = getelementptr inbounds %struct.Mesh, ptr %this, i64 0, i32 23, !llfi_index !157
  %23 = load ptr, ptr %m_lzetap, align 8, !tbaa !149, !llfi_index !158
  call void @doProfiling(i32 32)
  %tobool.not.i.i.i67 = icmp eq ptr %23, null, !llfi_index !159
  call void @doProfiling(i32 53)
  br i1 %tobool.not.i.i.i67, label %_ZNSt6vectorIiSaIiEED2Ev.exit69, label %if.then.i.i.i68, !llfi_index !160

if.then.i.i.i68:                                  ; preds = %_ZNSt6vectorIiSaIiEED2Ev.exit
  call void @_ZdlPv(ptr noundef nonnull %23) #2, !llfi_index !161
  br label %_ZNSt6vectorIiSaIiEED2Ev.exit69, !llfi_index !162

_ZNSt6vectorIiSaIiEED2Ev.exit69:                  ; preds = %if.then.i.i.i68, %_ZNSt6vectorIiSaIiEED2Ev.exit
  %m_lzetam = getelementptr inbounds %struct.Mesh, ptr %this, i64 0, i32 22, !llfi_index !163
  %24 = load ptr, ptr %m_lzetam, align 8, !tbaa !149, !llfi_index !164
  call void @doProfiling(i32 32)
  %tobool.not.i.i.i70 = icmp eq ptr %24, null, !llfi_index !165
  call void @doProfiling(i32 53)
  br i1 %tobool.not.i.i.i70, label %_ZNSt6vectorIiSaIiEED2Ev.exit72, label %if.then.i.i.i71, !llfi_index !166

if.then.i.i.i71:                                  ; preds = %_ZNSt6vectorIiSaIiEED2Ev.exit69
  call void @_ZdlPv(ptr noundef nonnull %24) #2, !llfi_index !167
  br label %_ZNSt6vectorIiSaIiEED2Ev.exit72, !llfi_index !168

_ZNSt6vectorIiSaIiEED2Ev.exit72:                  ; preds = %if.then.i.i.i71, %_ZNSt6vectorIiSaIiEED2Ev.exit69
  %m_letap = getelementptr inbounds %struct.Mesh, ptr %this, i64 0, i32 21, !llfi_index !169
  %25 = load ptr, ptr %m_letap, align 8, !tbaa !149, !llfi_index !170
  call void @doProfiling(i32 32)
  %tobool.not.i.i.i73 = icmp eq ptr %25, null, !llfi_index !171
  call void @doProfiling(i32 53)
  br i1 %tobool.not.i.i.i73, label %_ZNSt6vectorIiSaIiEED2Ev.exit75, label %if.then.i.i.i74, !llfi_index !172

if.then.i.i.i74:                                  ; preds = %_ZNSt6vectorIiSaIiEED2Ev.exit72
  call void @_ZdlPv(ptr noundef nonnull %25) #2, !llfi_index !173
  br label %_ZNSt6vectorIiSaIiEED2Ev.exit75, !llfi_index !174

_ZNSt6vectorIiSaIiEED2Ev.exit75:                  ; preds = %if.then.i.i.i74, %_ZNSt6vectorIiSaIiEED2Ev.exit72
  %m_letam = getelementptr inbounds %struct.Mesh, ptr %this, i64 0, i32 20, !llfi_index !175
  %26 = load ptr, ptr %m_letam, align 8, !tbaa !149, !llfi_index !176
  call void @doProfiling(i32 32)
  %tobool.not.i.i.i76 = icmp eq ptr %26, null, !llfi_index !177
  call void @doProfiling(i32 53)
  br i1 %tobool.not.i.i.i76, label %_ZNSt6vectorIiSaIiEED2Ev.exit78, label %if.then.i.i.i77, !llfi_index !178

if.then.i.i.i77:                                  ; preds = %_ZNSt6vectorIiSaIiEED2Ev.exit75
  call void @_ZdlPv(ptr noundef nonnull %26) #2, !llfi_index !179
  br label %_ZNSt6vectorIiSaIiEED2Ev.exit78, !llfi_index !180

_ZNSt6vectorIiSaIiEED2Ev.exit78:                  ; preds = %if.then.i.i.i77, %_ZNSt6vectorIiSaIiEED2Ev.exit75
  %m_lxip = getelementptr inbounds %struct.Mesh, ptr %this, i64 0, i32 19, !llfi_index !181
  %27 = load ptr, ptr %m_lxip, align 8, !tbaa !149, !llfi_index !182
  call void @doProfiling(i32 32)
  %tobool.not.i.i.i79 = icmp eq ptr %27, null, !llfi_index !183
  call void @doProfiling(i32 53)
  br i1 %tobool.not.i.i.i79, label %_ZNSt6vectorIiSaIiEED2Ev.exit81, label %if.then.i.i.i80, !llfi_index !184

if.then.i.i.i80:                                  ; preds = %_ZNSt6vectorIiSaIiEED2Ev.exit78
  call void @_ZdlPv(ptr noundef nonnull %27) #2, !llfi_index !185
  br label %_ZNSt6vectorIiSaIiEED2Ev.exit81, !llfi_index !186

_ZNSt6vectorIiSaIiEED2Ev.exit81:                  ; preds = %if.then.i.i.i80, %_ZNSt6vectorIiSaIiEED2Ev.exit78
  %m_lxim = getelementptr inbounds %struct.Mesh, ptr %this, i64 0, i32 18, !llfi_index !187
  %28 = load ptr, ptr %m_lxim, align 8, !tbaa !149, !llfi_index !188
  call void @doProfiling(i32 32)
  %tobool.not.i.i.i82 = icmp eq ptr %28, null, !llfi_index !189
  call void @doProfiling(i32 53)
  br i1 %tobool.not.i.i.i82, label %_ZNSt6vectorIiSaIiEED2Ev.exit84, label %if.then.i.i.i83, !llfi_index !190

if.then.i.i.i83:                                  ; preds = %_ZNSt6vectorIiSaIiEED2Ev.exit81
  call void @_ZdlPv(ptr noundef nonnull %28) #2, !llfi_index !191
  br label %_ZNSt6vectorIiSaIiEED2Ev.exit84, !llfi_index !192

_ZNSt6vectorIiSaIiEED2Ev.exit84:                  ; preds = %if.then.i.i.i83, %_ZNSt6vectorIiSaIiEED2Ev.exit81
  %m_nodelist = getelementptr inbounds %struct.Mesh, ptr %this, i64 0, i32 17, !llfi_index !193
  %29 = load ptr, ptr %m_nodelist, align 8, !tbaa !149, !llfi_index !194
  call void @doProfiling(i32 32)
  %tobool.not.i.i.i85 = icmp eq ptr %29, null, !llfi_index !195
  call void @doProfiling(i32 53)
  br i1 %tobool.not.i.i.i85, label %_ZNSt6vectorIiSaIiEED2Ev.exit87, label %if.then.i.i.i86, !llfi_index !196

if.then.i.i.i86:                                  ; preds = %_ZNSt6vectorIiSaIiEED2Ev.exit84
  call void @_ZdlPv(ptr noundef nonnull %29) #2, !llfi_index !197
  br label %_ZNSt6vectorIiSaIiEED2Ev.exit87, !llfi_index !198

_ZNSt6vectorIiSaIiEED2Ev.exit87:                  ; preds = %if.then.i.i.i86, %_ZNSt6vectorIiSaIiEED2Ev.exit84
  %m_matElemlist = getelementptr inbounds %struct.Mesh, ptr %this, i64 0, i32 16, !llfi_index !199
  %30 = load ptr, ptr %m_matElemlist, align 8, !tbaa !149, !llfi_index !200
  call void @doProfiling(i32 32)
  %tobool.not.i.i.i88 = icmp eq ptr %30, null, !llfi_index !201
  call void @doProfiling(i32 53)
  br i1 %tobool.not.i.i.i88, label %_ZNSt6vectorIiSaIiEED2Ev.exit90, label %if.then.i.i.i89, !llfi_index !202

if.then.i.i.i89:                                  ; preds = %_ZNSt6vectorIiSaIiEED2Ev.exit87
  call void @_ZdlPv(ptr noundef nonnull %30) #2, !llfi_index !203
  br label %_ZNSt6vectorIiSaIiEED2Ev.exit90, !llfi_index !204

_ZNSt6vectorIiSaIiEED2Ev.exit90:                  ; preds = %if.then.i.i.i89, %_ZNSt6vectorIiSaIiEED2Ev.exit87
  %m_symmZ = getelementptr inbounds %struct.Mesh, ptr %this, i64 0, i32 15, !llfi_index !205
  %31 = load ptr, ptr %m_symmZ, align 8, !tbaa !149, !llfi_index !206
  call void @doProfiling(i32 32)
  %tobool.not.i.i.i91 = icmp eq ptr %31, null, !llfi_index !207
  call void @doProfiling(i32 53)
  br i1 %tobool.not.i.i.i91, label %_ZNSt6vectorIiSaIiEED2Ev.exit93, label %if.then.i.i.i92, !llfi_index !208

if.then.i.i.i92:                                  ; preds = %_ZNSt6vectorIiSaIiEED2Ev.exit90
  call void @_ZdlPv(ptr noundef nonnull %31) #2, !llfi_index !209
  br label %_ZNSt6vectorIiSaIiEED2Ev.exit93, !llfi_index !210

_ZNSt6vectorIiSaIiEED2Ev.exit93:                  ; preds = %if.then.i.i.i92, %_ZNSt6vectorIiSaIiEED2Ev.exit90
  %m_symmY = getelementptr inbounds %struct.Mesh, ptr %this, i64 0, i32 14, !llfi_index !211
  %32 = load ptr, ptr %m_symmY, align 8, !tbaa !149, !llfi_index !212
  call void @doProfiling(i32 32)
  %tobool.not.i.i.i94 = icmp eq ptr %32, null, !llfi_index !213
  call void @doProfiling(i32 53)
  br i1 %tobool.not.i.i.i94, label %_ZNSt6vectorIiSaIiEED2Ev.exit96, label %if.then.i.i.i95, !llfi_index !214

if.then.i.i.i95:                                  ; preds = %_ZNSt6vectorIiSaIiEED2Ev.exit93
  call void @_ZdlPv(ptr noundef nonnull %32) #2, !llfi_index !215
  br label %_ZNSt6vectorIiSaIiEED2Ev.exit96, !llfi_index !216

_ZNSt6vectorIiSaIiEED2Ev.exit96:                  ; preds = %if.then.i.i.i95, %_ZNSt6vectorIiSaIiEED2Ev.exit93
  %m_symmX = getelementptr inbounds %struct.Mesh, ptr %this, i64 0, i32 13, !llfi_index !217
  %33 = load ptr, ptr %m_symmX, align 8, !tbaa !149, !llfi_index !218
  call void @doProfiling(i32 32)
  %tobool.not.i.i.i97 = icmp eq ptr %33, null, !llfi_index !219
  call void @doProfiling(i32 53)
  br i1 %tobool.not.i.i.i97, label %_ZNSt6vectorIiSaIiEED2Ev.exit99, label %if.then.i.i.i98, !llfi_index !220

if.then.i.i.i98:                                  ; preds = %_ZNSt6vectorIiSaIiEED2Ev.exit96
  call void @_ZdlPv(ptr noundef nonnull %33) #2, !llfi_index !221
  br label %_ZNSt6vectorIiSaIiEED2Ev.exit99, !llfi_index !222

_ZNSt6vectorIiSaIiEED2Ev.exit99:                  ; preds = %if.then.i.i.i98, %_ZNSt6vectorIiSaIiEED2Ev.exit96
  %m_nodalMass = getelementptr inbounds %struct.Mesh, ptr %this, i64 0, i32 12, !llfi_index !223
  %34 = load ptr, ptr %m_nodalMass, align 8, !tbaa !11, !llfi_index !224
  call void @doProfiling(i32 32)
  %tobool.not.i.i.i100 = icmp eq ptr %34, null, !llfi_index !225
  call void @doProfiling(i32 53)
  br i1 %tobool.not.i.i.i100, label %_ZNSt6vectorIdSaIdEED2Ev.exit102, label %if.then.i.i.i101, !llfi_index !226

if.then.i.i.i101:                                 ; preds = %_ZNSt6vectorIiSaIiEED2Ev.exit99
  call void @_ZdlPv(ptr noundef nonnull %34) #2, !llfi_index !227
  br label %_ZNSt6vectorIdSaIdEED2Ev.exit102, !llfi_index !228

_ZNSt6vectorIdSaIdEED2Ev.exit102:                 ; preds = %if.then.i.i.i101, %_ZNSt6vectorIiSaIiEED2Ev.exit99
  %m_fz = getelementptr inbounds %struct.Mesh, ptr %this, i64 0, i32 11, !llfi_index !229
  %35 = load ptr, ptr %m_fz, align 8, !tbaa !11, !llfi_index !230
  call void @doProfiling(i32 32)
  %tobool.not.i.i.i103 = icmp eq ptr %35, null, !llfi_index !231
  call void @doProfiling(i32 53)
  br i1 %tobool.not.i.i.i103, label %_ZNSt6vectorIdSaIdEED2Ev.exit105, label %if.then.i.i.i104, !llfi_index !232

if.then.i.i.i104:                                 ; preds = %_ZNSt6vectorIdSaIdEED2Ev.exit102
  call void @_ZdlPv(ptr noundef nonnull %35) #2, !llfi_index !233
  br label %_ZNSt6vectorIdSaIdEED2Ev.exit105, !llfi_index !234

_ZNSt6vectorIdSaIdEED2Ev.exit105:                 ; preds = %if.then.i.i.i104, %_ZNSt6vectorIdSaIdEED2Ev.exit102
  %m_fy = getelementptr inbounds %struct.Mesh, ptr %this, i64 0, i32 10, !llfi_index !235
  %36 = load ptr, ptr %m_fy, align 8, !tbaa !11, !llfi_index !236
  call void @doProfiling(i32 32)
  %tobool.not.i.i.i106 = icmp eq ptr %36, null, !llfi_index !237
  call void @doProfiling(i32 53)
  br i1 %tobool.not.i.i.i106, label %_ZNSt6vectorIdSaIdEED2Ev.exit108, label %if.then.i.i.i107, !llfi_index !238

if.then.i.i.i107:                                 ; preds = %_ZNSt6vectorIdSaIdEED2Ev.exit105
  call void @_ZdlPv(ptr noundef nonnull %36) #2, !llfi_index !239
  br label %_ZNSt6vectorIdSaIdEED2Ev.exit108, !llfi_index !240

_ZNSt6vectorIdSaIdEED2Ev.exit108:                 ; preds = %if.then.i.i.i107, %_ZNSt6vectorIdSaIdEED2Ev.exit105
  %m_fx = getelementptr inbounds %struct.Mesh, ptr %this, i64 0, i32 9, !llfi_index !241
  %37 = load ptr, ptr %m_fx, align 8, !tbaa !11, !llfi_index !242
  call void @doProfiling(i32 32)
  %tobool.not.i.i.i109 = icmp eq ptr %37, null, !llfi_index !243
  call void @doProfiling(i32 53)
  br i1 %tobool.not.i.i.i109, label %_ZNSt6vectorIdSaIdEED2Ev.exit111, label %if.then.i.i.i110, !llfi_index !244

if.then.i.i.i110:                                 ; preds = %_ZNSt6vectorIdSaIdEED2Ev.exit108
  call void @_ZdlPv(ptr noundef nonnull %37) #2, !llfi_index !245
  br label %_ZNSt6vectorIdSaIdEED2Ev.exit111, !llfi_index !246

_ZNSt6vectorIdSaIdEED2Ev.exit111:                 ; preds = %if.then.i.i.i110, %_ZNSt6vectorIdSaIdEED2Ev.exit108
  %m_zdd = getelementptr inbounds %struct.Mesh, ptr %this, i64 0, i32 8, !llfi_index !247
  %38 = load ptr, ptr %m_zdd, align 8, !tbaa !11, !llfi_index !248
  call void @doProfiling(i32 32)
  %tobool.not.i.i.i112 = icmp eq ptr %38, null, !llfi_index !249
  call void @doProfiling(i32 53)
  br i1 %tobool.not.i.i.i112, label %_ZNSt6vectorIdSaIdEED2Ev.exit114, label %if.then.i.i.i113, !llfi_index !250

if.then.i.i.i113:                                 ; preds = %_ZNSt6vectorIdSaIdEED2Ev.exit111
  call void @_ZdlPv(ptr noundef nonnull %38) #2, !llfi_index !251
  br label %_ZNSt6vectorIdSaIdEED2Ev.exit114, !llfi_index !252

_ZNSt6vectorIdSaIdEED2Ev.exit114:                 ; preds = %if.then.i.i.i113, %_ZNSt6vectorIdSaIdEED2Ev.exit111
  %m_ydd = getelementptr inbounds %struct.Mesh, ptr %this, i64 0, i32 7, !llfi_index !253
  %39 = load ptr, ptr %m_ydd, align 8, !tbaa !11, !llfi_index !254
  call void @doProfiling(i32 32)
  %tobool.not.i.i.i115 = icmp eq ptr %39, null, !llfi_index !255
  call void @doProfiling(i32 53)
  br i1 %tobool.not.i.i.i115, label %_ZNSt6vectorIdSaIdEED2Ev.exit117, label %if.then.i.i.i116, !llfi_index !256

if.then.i.i.i116:                                 ; preds = %_ZNSt6vectorIdSaIdEED2Ev.exit114
  call void @_ZdlPv(ptr noundef nonnull %39) #2, !llfi_index !257
  br label %_ZNSt6vectorIdSaIdEED2Ev.exit117, !llfi_index !258

_ZNSt6vectorIdSaIdEED2Ev.exit117:                 ; preds = %if.then.i.i.i116, %_ZNSt6vectorIdSaIdEED2Ev.exit114
  %m_xdd = getelementptr inbounds %struct.Mesh, ptr %this, i64 0, i32 6, !llfi_index !259
  %40 = load ptr, ptr %m_xdd, align 8, !tbaa !11, !llfi_index !260
  call void @doProfiling(i32 32)
  %tobool.not.i.i.i118 = icmp eq ptr %40, null, !llfi_index !261
  call void @doProfiling(i32 53)
  br i1 %tobool.not.i.i.i118, label %_ZNSt6vectorIdSaIdEED2Ev.exit120, label %if.then.i.i.i119, !llfi_index !262

if.then.i.i.i119:                                 ; preds = %_ZNSt6vectorIdSaIdEED2Ev.exit117
  call void @_ZdlPv(ptr noundef nonnull %40) #2, !llfi_index !263
  br label %_ZNSt6vectorIdSaIdEED2Ev.exit120, !llfi_index !264

_ZNSt6vectorIdSaIdEED2Ev.exit120:                 ; preds = %if.then.i.i.i119, %_ZNSt6vectorIdSaIdEED2Ev.exit117
  %m_zd = getelementptr inbounds %struct.Mesh, ptr %this, i64 0, i32 5, !llfi_index !265
  %41 = load ptr, ptr %m_zd, align 8, !tbaa !11, !llfi_index !266
  call void @doProfiling(i32 32)
  %tobool.not.i.i.i121 = icmp eq ptr %41, null, !llfi_index !267
  call void @doProfiling(i32 53)
  br i1 %tobool.not.i.i.i121, label %_ZNSt6vectorIdSaIdEED2Ev.exit123, label %if.then.i.i.i122, !llfi_index !268

if.then.i.i.i122:                                 ; preds = %_ZNSt6vectorIdSaIdEED2Ev.exit120
  call void @_ZdlPv(ptr noundef nonnull %41) #2, !llfi_index !269
  br label %_ZNSt6vectorIdSaIdEED2Ev.exit123, !llfi_index !270

_ZNSt6vectorIdSaIdEED2Ev.exit123:                 ; preds = %if.then.i.i.i122, %_ZNSt6vectorIdSaIdEED2Ev.exit120
  %m_yd = getelementptr inbounds %struct.Mesh, ptr %this, i64 0, i32 4, !llfi_index !271
  %42 = load ptr, ptr %m_yd, align 8, !tbaa !11, !llfi_index !272
  call void @doProfiling(i32 32)
  %tobool.not.i.i.i124 = icmp eq ptr %42, null, !llfi_index !273
  call void @doProfiling(i32 53)
  br i1 %tobool.not.i.i.i124, label %_ZNSt6vectorIdSaIdEED2Ev.exit126, label %if.then.i.i.i125, !llfi_index !274

if.then.i.i.i125:                                 ; preds = %_ZNSt6vectorIdSaIdEED2Ev.exit123
  call void @_ZdlPv(ptr noundef nonnull %42) #2, !llfi_index !275
  br label %_ZNSt6vectorIdSaIdEED2Ev.exit126, !llfi_index !276

_ZNSt6vectorIdSaIdEED2Ev.exit126:                 ; preds = %if.then.i.i.i125, %_ZNSt6vectorIdSaIdEED2Ev.exit123
  %m_xd = getelementptr inbounds %struct.Mesh, ptr %this, i64 0, i32 3, !llfi_index !277
  %43 = load ptr, ptr %m_xd, align 8, !tbaa !11, !llfi_index !278
  call void @doProfiling(i32 32)
  %tobool.not.i.i.i127 = icmp eq ptr %43, null, !llfi_index !279
  call void @doProfiling(i32 53)
  br i1 %tobool.not.i.i.i127, label %_ZNSt6vectorIdSaIdEED2Ev.exit129, label %if.then.i.i.i128, !llfi_index !280

if.then.i.i.i128:                                 ; preds = %_ZNSt6vectorIdSaIdEED2Ev.exit126
  call void @_ZdlPv(ptr noundef nonnull %43) #2, !llfi_index !281
  br label %_ZNSt6vectorIdSaIdEED2Ev.exit129, !llfi_index !282

_ZNSt6vectorIdSaIdEED2Ev.exit129:                 ; preds = %if.then.i.i.i128, %_ZNSt6vectorIdSaIdEED2Ev.exit126
  %m_z = getelementptr inbounds %struct.Mesh, ptr %this, i64 0, i32 2, !llfi_index !283
  %44 = load ptr, ptr %m_z, align 8, !tbaa !11, !llfi_index !284
  call void @doProfiling(i32 32)
  %tobool.not.i.i.i130 = icmp eq ptr %44, null, !llfi_index !285
  call void @doProfiling(i32 53)
  br i1 %tobool.not.i.i.i130, label %_ZNSt6vectorIdSaIdEED2Ev.exit132, label %if.then.i.i.i131, !llfi_index !286

if.then.i.i.i131:                                 ; preds = %_ZNSt6vectorIdSaIdEED2Ev.exit129
  call void @_ZdlPv(ptr noundef nonnull %44) #2, !llfi_index !287
  br label %_ZNSt6vectorIdSaIdEED2Ev.exit132, !llfi_index !288

_ZNSt6vectorIdSaIdEED2Ev.exit132:                 ; preds = %if.then.i.i.i131, %_ZNSt6vectorIdSaIdEED2Ev.exit129
  %m_y = getelementptr inbounds %struct.Mesh, ptr %this, i64 0, i32 1, !llfi_index !289
  %45 = load ptr, ptr %m_y, align 8, !tbaa !11, !llfi_index !290
  call void @doProfiling(i32 32)
  %tobool.not.i.i.i133 = icmp eq ptr %45, null, !llfi_index !291
  call void @doProfiling(i32 53)
  br i1 %tobool.not.i.i.i133, label %_ZNSt6vectorIdSaIdEED2Ev.exit135, label %if.then.i.i.i134, !llfi_index !292

if.then.i.i.i134:                                 ; preds = %_ZNSt6vectorIdSaIdEED2Ev.exit132
  call void @_ZdlPv(ptr noundef nonnull %45) #2, !llfi_index !293
  br label %_ZNSt6vectorIdSaIdEED2Ev.exit135, !llfi_index !294

_ZNSt6vectorIdSaIdEED2Ev.exit135:                 ; preds = %if.then.i.i.i134, %_ZNSt6vectorIdSaIdEED2Ev.exit132
  %46 = load ptr, ptr %this, align 8, !tbaa !11, !llfi_index !295
  call void @doProfiling(i32 32)
  %tobool.not.i.i.i136 = icmp eq ptr %46, null, !llfi_index !296
  call void @doProfiling(i32 53)
  br i1 %tobool.not.i.i.i136, label %_ZNSt6vectorIdSaIdEED2Ev.exit138, label %if.then.i.i.i137, !llfi_index !297

if.then.i.i.i137:                                 ; preds = %_ZNSt6vectorIdSaIdEED2Ev.exit135
  call void @_ZdlPv(ptr noundef nonnull %46) #2, !llfi_index !298
  br label %_ZNSt6vectorIdSaIdEED2Ev.exit138, !llfi_index !299

_ZNSt6vectorIdSaIdEED2Ev.exit138:                 ; preds = %if.then.i.i.i137, %_ZNSt6vectorIdSaIdEED2Ev.exit135
  ret void, !llfi_index !300
}

; Function Attrs: nobuiltin nounwind
declare void @_ZdlPv(ptr noundef) local_unnamed_addr #4

; Function Attrs: mustprogress nofree noinline norecurse nosync nounwind willreturn uwtable
define dso_local void @_Z13TimeIncrementv() local_unnamed_addr #5 {
entry:
  %0 = load double, ptr getelementptr inbounds (%struct.Mesh, ptr @mesh, i64 0, i32 52), align 8, !tbaa !301, !llfi_index !303
  call void @doProfiling(i32 32)
  %1 = load double, ptr getelementptr inbounds (%struct.Mesh, ptr @mesh, i64 0, i32 48), align 8, !tbaa !301, !llfi_index !304
  call void @doProfiling(i32 32)
  %sub = fsub double %0, %1, !llfi_index !305
  call void @doProfiling(i32 16)
  %2 = load double, ptr getelementptr inbounds (%struct.Mesh, ptr @mesh, i64 0, i32 47), align 8, !tbaa !301, !llfi_index !306
  call void @doProfiling(i32 32)
  %cmp = fcmp ugt double %2, 0.000000e+00, !llfi_index !307
  call void @doProfiling(i32 54)
  %3 = load i32, ptr getelementptr inbounds (%struct.Mesh, ptr @mesh, i64 0, i32 75), align 8, !llfi_index !308
  call void @doProfiling(i32 32)
  %cmp4.not = icmp eq i32 %3, 0, !llfi_index !309
  call void @doProfiling(i32 53)
  %or.cond = select i1 %cmp, i1 true, i1 %cmp4.not, !llfi_index !310
  call void @doProfiling(i32 57)
  br i1 %or.cond, label %if.end36, label %if.then, !llfi_index !311

if.then:                                          ; preds = %entry
  %4 = load double, ptr getelementptr inbounds (%struct.Mesh, ptr @mesh, i64 0, i32 49), align 8, !tbaa !301, !llfi_index !312
  call void @doProfiling(i32 32)
  %5 = load double, ptr getelementptr inbounds (%struct.Mesh, ptr @mesh, i64 0, i32 72), align 8, !tbaa !301, !llfi_index !313
  call void @doProfiling(i32 32)
  %cmp7 = fcmp olt double %5, 1.000000e+20, !llfi_index !314
  call void @doProfiling(i32 54)
  %div = fmul double %5, 5.000000e-01, !llfi_index !315
  call void @doProfiling(i32 18)
  %newdt.0 = select i1 %cmp7, double %div, double 1.000000e+20, !llfi_index !316
  call void @doProfiling(i32 57)
  %6 = load double, ptr getelementptr inbounds (%struct.Mesh, ptr @mesh, i64 0, i32 73), align 8, !tbaa !301, !llfi_index !317
  call void @doProfiling(i32 32)
  %cmp11 = fcmp olt double %6, %newdt.0, !llfi_index !318
  call void @doProfiling(i32 54)
  br i1 %cmp11, label %if.then12, label %if.end15, !llfi_index !319

if.then12:                                        ; preds = %if.then
  %mul = fmul double %6, 2.000000e+00, !llfi_index !320
  call void @doProfiling(i32 18)
  %div14 = fdiv double %mul, 3.000000e+00, !llfi_index !321
  call void @doProfiling(i32 21)
  br label %if.end15, !llfi_index !322

if.end15:                                         ; preds = %if.then12, %if.then
  %newdt.1 = phi double [ %div14, %if.then12 ], [ %newdt.0, %if.then ], !llfi_index !323
  call void @doProfiling(i32 55)
  %div16 = fdiv double %newdt.1, %4, !llfi_index !324
  call void @doProfiling(i32 21)
  %cmp17 = fcmp ult double %div16, 1.000000e+00, !llfi_index !325
  call void @doProfiling(i32 54)
  br i1 %cmp17, label %if.end29, label %if.then18, !llfi_index !326

if.then18:                                        ; preds = %if.end15
  %7 = load double, ptr getelementptr inbounds (%struct.Mesh, ptr @mesh, i64 0, i32 50), align 8, !tbaa !301, !llfi_index !327
  call void @doProfiling(i32 32)
  %cmp20 = fcmp olt double %div16, %7, !llfi_index !328
  call void @doProfiling(i32 54)
  br i1 %cmp20, label %if.end29, label %if.else, !llfi_index !329

if.else:                                          ; preds = %if.then18
  %8 = load double, ptr getelementptr inbounds (%struct.Mesh, ptr @mesh, i64 0, i32 51), align 8, !tbaa !301, !llfi_index !330
  call void @doProfiling(i32 32)
  %cmp23 = fcmp ogt double %div16, %8, !llfi_index !331
  call void @doProfiling(i32 54)
  br i1 %cmp23, label %if.then24, label %if.end29, !llfi_index !332

if.then24:                                        ; preds = %if.else
  %mul26 = fmul double %4, %8, !llfi_index !333
  call void @doProfiling(i32 18)
  br label %if.end29, !llfi_index !334

if.end29:                                         ; preds = %if.then24, %if.else, %if.then18, %if.end15
  %newdt.2 = phi double [ %mul26, %if.then24 ], [ %newdt.1, %if.else ], [ %newdt.1, %if.end15 ], [ %4, %if.then18 ], !llfi_index !335
  call void @doProfiling(i32 55)
  %9 = load double, ptr getelementptr inbounds (%struct.Mesh, ptr @mesh, i64 0, i32 74), align 8, !tbaa !301, !llfi_index !336
  call void @doProfiling(i32 32)
  %cmp31 = fcmp ogt double %newdt.2, %9, !llfi_index !337
  call void @doProfiling(i32 54)
  %newdt.3 = select i1 %cmp31, double %9, double %newdt.2, !llfi_index !338
  call void @doProfiling(i32 57)
  store double %newdt.3, ptr getelementptr inbounds (%struct.Mesh, ptr @mesh, i64 0, i32 49), align 8, !tbaa !301, !llfi_index !339
  br label %if.end36, !llfi_index !340

if.end36:                                         ; preds = %if.end29, %entry
  %10 = load double, ptr getelementptr inbounds (%struct.Mesh, ptr @mesh, i64 0, i32 49), align 8, !tbaa !301, !llfi_index !341
  call void @doProfiling(i32 32)
  %cmp38 = fcmp ogt double %sub, %10, !llfi_index !342
  call void @doProfiling(i32 54)
  br i1 %cmp38, label %land.lhs.true39, label %if.end48, !llfi_index !343

land.lhs.true39:                                  ; preds = %if.end36
  %mul41 = fmul double %10, 4.000000e+00, !llfi_index !344
  call void @doProfiling(i32 18)
  %div42 = fdiv double %mul41, 3.000000e+00, !llfi_index !345
  call void @doProfiling(i32 21)
  %cmp43 = fcmp olt double %sub, %div42, !llfi_index !346
  call void @doProfiling(i32 54)
  br i1 %cmp43, label %if.then44, label %if.end48, !llfi_index !347

if.then44:                                        ; preds = %land.lhs.true39
  %mul46 = fmul double %10, 2.000000e+00, !llfi_index !348
  call void @doProfiling(i32 18)
  %div47 = fdiv double %mul46, 3.000000e+00, !llfi_index !349
  call void @doProfiling(i32 21)
  br label %if.end48, !llfi_index !350

if.end48:                                         ; preds = %if.then44, %land.lhs.true39, %if.end36
  %targetdt.0 = phi double [ %div47, %if.then44 ], [ %sub, %land.lhs.true39 ], [ %sub, %if.end36 ], !llfi_index !351
  call void @doProfiling(i32 55)
  %cmp50 = fcmp olt double %targetdt.0, %10, !llfi_index !352
  call void @doProfiling(i32 54)
  br i1 %cmp50, label %if.then51, label %if.end53, !llfi_index !353

if.then51:                                        ; preds = %if.end48
  store double %targetdt.0, ptr getelementptr inbounds (%struct.Mesh, ptr @mesh, i64 0, i32 49), align 8, !tbaa !301, !llfi_index !354
  br label %if.end53, !llfi_index !355

if.end53:                                         ; preds = %if.then51, %if.end48
  %11 = load double, ptr getelementptr inbounds (%struct.Mesh, ptr @mesh, i64 0, i32 49), align 8, !tbaa !301, !llfi_index !356
  call void @doProfiling(i32 32)
  %add = fadd double %1, %11, !llfi_index !357
  call void @doProfiling(i32 14)
  store double %add, ptr getelementptr inbounds (%struct.Mesh, ptr @mesh, i64 0, i32 48), align 8, !tbaa !301, !llfi_index !358
  %inc = add nsw i32 %3, 1, !llfi_index !359
  call void @doProfiling(i32 13)
  store i32 %inc, ptr getelementptr inbounds (%struct.Mesh, ptr @mesh, i64 0, i32 75), align 8, !tbaa !360, !llfi_index !362
  ret void, !llfi_index !363
}

; Function Attrs: mustprogress nofree noinline norecurse nosync nounwind uwtable
define dso_local void @_Z23InitStressTermsForElemsiPdS_S_(i32 noundef %numElem, ptr nocapture noundef writeonly %sigxx, ptr nocapture noundef writeonly %sigyy, ptr nocapture noundef writeonly %sigzz) local_unnamed_addr #6 {
entry:
  %cmp14 = icmp sgt i32 %numElem, 0, !llfi_index !364
  call void @doProfiling(i32 53)
  br i1 %cmp14, label %for.body.lr.ph, label %for.cond.cleanup, !llfi_index !365

for.body.lr.ph:                                   ; preds = %entry
  %0 = load ptr, ptr getelementptr inbounds (%struct.Mesh, ptr @mesh, i64 0, i32 35), align 8, !tbaa !11, !llfi_index !366
  call void @doProfiling(i32 32)
  %1 = load ptr, ptr getelementptr inbounds (%struct.Mesh, ptr @mesh, i64 0, i32 36), align 8, !tbaa !11, !llfi_index !367
  call void @doProfiling(i32 32)
  %wide.trip.count = zext i32 %numElem to i64, !llfi_index !368
  call void @doProfiling(i32 39)
  br label %for.body, !llfi_index !369

for.cond.cleanup:                                 ; preds = %for.body, %entry
  ret void, !llfi_index !370

for.body:                                         ; preds = %for.body, %for.body.lr.ph
  %indvars.iv = phi i64 [ 0, %for.body.lr.ph ], [ %indvars.iv.next, %for.body ], !llfi_index !371
  call void @doProfiling(i32 55)
  %add.ptr.i.i = getelementptr inbounds double, ptr %0, i64 %indvars.iv, !llfi_index !372
  %2 = load double, ptr %add.ptr.i.i, align 8, !tbaa !301, !llfi_index !373
  call void @doProfiling(i32 32)
  %fneg = fneg double %2, !llfi_index !374
  call void @doProfiling(i32 12)
  %add.ptr.i.i13 = getelementptr inbounds double, ptr %1, i64 %indvars.iv, !llfi_index !375
  %3 = load double, ptr %add.ptr.i.i13, align 8, !tbaa !301, !llfi_index !376
  call void @doProfiling(i32 32)
  %sub = fsub double %fneg, %3, !llfi_index !377
  call void @doProfiling(i32 16)
  %arrayidx = getelementptr inbounds double, ptr %sigzz, i64 %indvars.iv, !llfi_index !378
  store double %sub, ptr %arrayidx, align 8, !tbaa !301, !llfi_index !379
  %arrayidx3 = getelementptr inbounds double, ptr %sigyy, i64 %indvars.iv, !llfi_index !380
  store double %sub, ptr %arrayidx3, align 8, !tbaa !301, !llfi_index !381
  %arrayidx5 = getelementptr inbounds double, ptr %sigxx, i64 %indvars.iv, !llfi_index !382
  store double %sub, ptr %arrayidx5, align 8, !tbaa !301, !llfi_index !383
  %indvars.iv.next = add nuw nsw i64 %indvars.iv, 1, !llfi_index !384
  call void @doProfiling(i32 13)
  %exitcond.not = icmp eq i64 %indvars.iv.next, %wide.trip.count, !llfi_index !385
  call void @doProfiling(i32 53)
  br i1 %exitcond.not, label %for.cond.cleanup, label %for.body, !llvm.loop !386, !llfi_index !389
}

; Function Attrs: argmemonly mustprogress nofree noinline nosync nounwind willreturn uwtable
define dso_local void @_Z32CalcElemShapeFunctionDerivativesPKdS0_S0_PA8_dPd(ptr nocapture noundef readonly %x, ptr nocapture noundef readonly %y, ptr nocapture noundef readonly %z, ptr noundef writeonly %b, ptr nocapture noundef writeonly %volume) local_unnamed_addr #7 {
entry:
  %0 = load double, ptr %x, align 8, !tbaa !301, !llfi_index !390
  call void @doProfiling(i32 32)
  %arrayidx1 = getelementptr inbounds double, ptr %x, i64 1, !llfi_index !391
  %1 = load double, ptr %arrayidx1, align 8, !tbaa !301, !llfi_index !392
  call void @doProfiling(i32 32)
  %arrayidx2 = getelementptr inbounds double, ptr %x, i64 2, !llfi_index !393
  %2 = load double, ptr %arrayidx2, align 8, !tbaa !301, !llfi_index !394
  call void @doProfiling(i32 32)
  %arrayidx3 = getelementptr inbounds double, ptr %x, i64 3, !llfi_index !395
  %3 = load double, ptr %arrayidx3, align 8, !tbaa !301, !llfi_index !396
  call void @doProfiling(i32 32)
  %arrayidx4 = getelementptr inbounds double, ptr %x, i64 4, !llfi_index !397
  %4 = load double, ptr %arrayidx4, align 8, !tbaa !301, !llfi_index !398
  call void @doProfiling(i32 32)
  %arrayidx5 = getelementptr inbounds double, ptr %x, i64 5, !llfi_index !399
  %5 = load double, ptr %arrayidx5, align 8, !tbaa !301, !llfi_index !400
  call void @doProfiling(i32 32)
  %arrayidx6 = getelementptr inbounds double, ptr %x, i64 6, !llfi_index !401
  %6 = load double, ptr %arrayidx6, align 8, !tbaa !301, !llfi_index !402
  call void @doProfiling(i32 32)
  %arrayidx7 = getelementptr inbounds double, ptr %x, i64 7, !llfi_index !403
  %7 = load double, ptr %arrayidx7, align 8, !tbaa !301, !llfi_index !404
  call void @doProfiling(i32 32)
  %8 = load double, ptr %y, align 8, !tbaa !301, !llfi_index !405
  call void @doProfiling(i32 32)
  %arrayidx9 = getelementptr inbounds double, ptr %y, i64 1, !llfi_index !406
  %9 = load double, ptr %arrayidx9, align 8, !tbaa !301, !llfi_index !407
  call void @doProfiling(i32 32)
  %arrayidx10 = getelementptr inbounds double, ptr %y, i64 2, !llfi_index !408
  %10 = load double, ptr %arrayidx10, align 8, !tbaa !301, !llfi_index !409
  call void @doProfiling(i32 32)
  %arrayidx11 = getelementptr inbounds double, ptr %y, i64 3, !llfi_index !410
  %11 = load double, ptr %arrayidx11, align 8, !tbaa !301, !llfi_index !411
  call void @doProfiling(i32 32)
  %arrayidx12 = getelementptr inbounds double, ptr %y, i64 4, !llfi_index !412
  %12 = load double, ptr %arrayidx12, align 8, !tbaa !301, !llfi_index !413
  call void @doProfiling(i32 32)
  %arrayidx13 = getelementptr inbounds double, ptr %y, i64 5, !llfi_index !414
  %13 = load double, ptr %arrayidx13, align 8, !tbaa !301, !llfi_index !415
  call void @doProfiling(i32 32)
  %arrayidx14 = getelementptr inbounds double, ptr %y, i64 6, !llfi_index !416
  %14 = load double, ptr %arrayidx14, align 8, !tbaa !301, !llfi_index !417
  call void @doProfiling(i32 32)
  %arrayidx15 = getelementptr inbounds double, ptr %y, i64 7, !llfi_index !418
  %15 = load double, ptr %arrayidx15, align 8, !tbaa !301, !llfi_index !419
  call void @doProfiling(i32 32)
  %16 = load double, ptr %z, align 8, !tbaa !301, !llfi_index !420
  call void @doProfiling(i32 32)
  %arrayidx17 = getelementptr inbounds double, ptr %z, i64 1, !llfi_index !421
  %17 = load double, ptr %arrayidx17, align 8, !tbaa !301, !llfi_index !422
  call void @doProfiling(i32 32)
  %arrayidx18 = getelementptr inbounds double, ptr %z, i64 2, !llfi_index !423
  %18 = load double, ptr %arrayidx18, align 8, !tbaa !301, !llfi_index !424
  call void @doProfiling(i32 32)
  %arrayidx19 = getelementptr inbounds double, ptr %z, i64 3, !llfi_index !425
  %19 = load double, ptr %arrayidx19, align 8, !tbaa !301, !llfi_index !426
  call void @doProfiling(i32 32)
  %arrayidx20 = getelementptr inbounds double, ptr %z, i64 4, !llfi_index !427
  %20 = load double, ptr %arrayidx20, align 8, !tbaa !301, !llfi_index !428
  call void @doProfiling(i32 32)
  %arrayidx21 = getelementptr inbounds double, ptr %z, i64 5, !llfi_index !429
  %21 = load double, ptr %arrayidx21, align 8, !tbaa !301, !llfi_index !430
  call void @doProfiling(i32 32)
  %arrayidx22 = getelementptr inbounds double, ptr %z, i64 6, !llfi_index !431
  %22 = load double, ptr %arrayidx22, align 8, !tbaa !301, !llfi_index !432
  call void @doProfiling(i32 32)
  %arrayidx23 = getelementptr inbounds double, ptr %z, i64 7, !llfi_index !433
  %23 = load double, ptr %arrayidx23, align 8, !tbaa !301, !llfi_index !434
  call void @doProfiling(i32 32)
  %sub = fsub double %6, %0, !llfi_index !435
  call void @doProfiling(i32 16)
  %sub24 = fsub double %5, %3, !llfi_index !436
  call void @doProfiling(i32 16)
  %add = fadd double %sub24, %sub, !llfi_index !437
  call void @doProfiling(i32 14)
  %sub25 = fsub double %7, %1, !llfi_index !438
  call void @doProfiling(i32 16)
  %sub26 = fsub double %add, %sub25, !llfi_index !439
  call void @doProfiling(i32 16)
  %sub27 = fsub double %4, %2, !llfi_index !440
  call void @doProfiling(i32 16)
  %sub28 = fsub double %sub26, %sub27, !llfi_index !441
  call void @doProfiling(i32 16)
  %mul = fmul double %sub28, 1.250000e-01, !llfi_index !442
  call void @doProfiling(i32 18)
  %sub31 = fsub double %sub, %sub24, !llfi_index !443
  call void @doProfiling(i32 16)
  %add33 = fadd double %sub31, %sub25, !llfi_index !444
  call void @doProfiling(i32 14)
  %sub35 = fsub double %add33, %sub27, !llfi_index !445
  call void @doProfiling(i32 16)
  %mul36 = fmul double %sub35, 1.250000e-01, !llfi_index !446
  call void @doProfiling(i32 18)
  %add41 = fadd double %add, %sub25, !llfi_index !447
  call void @doProfiling(i32 14)
  %add43 = fadd double %sub27, %add41, !llfi_index !448
  call void @doProfiling(i32 14)
  %mul44 = fmul double %add43, 1.250000e-01, !llfi_index !449
  call void @doProfiling(i32 18)
  %sub45 = fsub double %14, %8, !llfi_index !450
  call void @doProfiling(i32 16)
  %sub46 = fsub double %13, %11, !llfi_index !451
  call void @doProfiling(i32 16)
  %add47 = fadd double %sub46, %sub45, !llfi_index !452
  call void @doProfiling(i32 14)
  %sub48 = fsub double %15, %9, !llfi_index !453
  call void @doProfiling(i32 16)
  %sub49 = fsub double %add47, %sub48, !llfi_index !454
  call void @doProfiling(i32 16)
  %sub50 = fsub double %12, %10, !llfi_index !455
  call void @doProfiling(i32 16)
  %sub51 = fsub double %sub49, %sub50, !llfi_index !456
  call void @doProfiling(i32 16)
  %mul52 = fmul double %sub51, 1.250000e-01, !llfi_index !457
  call void @doProfiling(i32 18)
  %sub55 = fsub double %sub45, %sub46, !llfi_index !458
  call void @doProfiling(i32 16)
  %add57 = fadd double %sub55, %sub48, !llfi_index !459
  call void @doProfiling(i32 14)
  %sub59 = fsub double %add57, %sub50, !llfi_index !460
  call void @doProfiling(i32 16)
  %mul60 = fmul double %sub59, 1.250000e-01, !llfi_index !461
  call void @doProfiling(i32 18)
  %add65 = fadd double %add47, %sub48, !llfi_index !462
  call void @doProfiling(i32 14)
  %add67 = fadd double %sub50, %add65, !llfi_index !463
  call void @doProfiling(i32 14)
  %mul68 = fmul double %add67, 1.250000e-01, !llfi_index !464
  call void @doProfiling(i32 18)
  %sub69 = fsub double %22, %16, !llfi_index !465
  call void @doProfiling(i32 16)
  %sub70 = fsub double %21, %19, !llfi_index !466
  call void @doProfiling(i32 16)
  %add71 = fadd double %sub70, %sub69, !llfi_index !467
  call void @doProfiling(i32 14)
  %sub72 = fsub double %23, %17, !llfi_index !468
  call void @doProfiling(i32 16)
  %sub73 = fsub double %add71, %sub72, !llfi_index !469
  call void @doProfiling(i32 16)
  %sub74 = fsub double %20, %18, !llfi_index !470
  call void @doProfiling(i32 16)
  %sub75 = fsub double %sub73, %sub74, !llfi_index !471
  call void @doProfiling(i32 16)
  %mul76 = fmul double %sub75, 1.250000e-01, !llfi_index !472
  call void @doProfiling(i32 18)
  %sub79 = fsub double %sub69, %sub70, !llfi_index !473
  call void @doProfiling(i32 16)
  %add81 = fadd double %sub79, %sub72, !llfi_index !474
  call void @doProfiling(i32 14)
  %sub83 = fsub double %add81, %sub74, !llfi_index !475
  call void @doProfiling(i32 16)
  %mul84 = fmul double %sub83, 1.250000e-01, !llfi_index !476
  call void @doProfiling(i32 18)
  %add89 = fadd double %add71, %sub72, !llfi_index !477
  call void @doProfiling(i32 14)
  %add91 = fadd double %sub74, %add89, !llfi_index !478
  call void @doProfiling(i32 14)
  %mul92 = fmul double %add91, 1.250000e-01, !llfi_index !479
  call void @doProfiling(i32 18)
  %24 = fneg double %mul84, !llfi_index !480
  call void @doProfiling(i32 12)
  %neg = fmul double %mul68, %24, !llfi_index !481
  call void @doProfiling(i32 18)
  %25 = call double @llvm.fmuladd.f64(double %mul60, double %mul92, double %neg), !llfi_index !482
  call void @doProfiling(i32 56)
  %26 = fneg double %mul52, !llfi_index !483
  call void @doProfiling(i32 12)
  %fneg = fmul double %mul92, %26, !llfi_index !484
  call void @doProfiling(i32 18)
  %27 = call double @llvm.fmuladd.f64(double %mul76, double %mul68, double %fneg), !llfi_index !485
  call void @doProfiling(i32 56)
  %28 = fneg double %mul76, !llfi_index !486
  call void @doProfiling(i32 12)
  %neg99 = fmul double %mul60, %28, !llfi_index !487
  call void @doProfiling(i32 18)
  %29 = call double @llvm.fmuladd.f64(double %mul52, double %mul84, double %neg99), !llfi_index !488
  call void @doProfiling(i32 56)
  %30 = fneg double %mul36, !llfi_index !489
  call void @doProfiling(i32 12)
  %fneg101 = fmul double %mul92, %30, !llfi_index !490
  call void @doProfiling(i32 18)
  %31 = call double @llvm.fmuladd.f64(double %mul84, double %mul44, double %fneg101), !llfi_index !491
  call void @doProfiling(i32 56)
  %neg105 = fmul double %mul44, %28, !llfi_index !492
  call void @doProfiling(i32 18)
  %32 = call double @llvm.fmuladd.f64(double %mul, double %mul92, double %neg105), !llfi_index !493
  call void @doProfiling(i32 56)
  %33 = fneg double %mul, !llfi_index !494
  call void @doProfiling(i32 12)
  %fneg107 = fmul double %mul84, %33, !llfi_index !495
  call void @doProfiling(i32 18)
  %34 = call double @llvm.fmuladd.f64(double %mul76, double %mul36, double %fneg107), !llfi_index !496
  call void @doProfiling(i32 56)
  %35 = fneg double %mul60, !llfi_index !497
  call void @doProfiling(i32 12)
  %neg111 = fmul double %mul44, %35, !llfi_index !498
  call void @doProfiling(i32 18)
  %36 = call double @llvm.fmuladd.f64(double %mul36, double %mul68, double %neg111), !llfi_index !499
  call void @doProfiling(i32 56)
  %fneg113 = fmul double %mul68, %33, !llfi_index !500
  call void @doProfiling(i32 18)
  %37 = call double @llvm.fmuladd.f64(double %mul52, double %mul44, double %fneg113), !llfi_index !501
  call void @doProfiling(i32 56)
  %neg117 = fmul double %mul36, %26, !llfi_index !502
  call void @doProfiling(i32 18)
  %38 = call double @llvm.fmuladd.f64(double %mul, double %mul60, double %neg117), !llfi_index !503
  call void @doProfiling(i32 56)
  %fneg118 = fneg double %25, !llfi_index !504
  call void @doProfiling(i32 12)
  %sub119 = fsub double %fneg118, %27, !llfi_index !505
  call void @doProfiling(i32 16)
  %sub120 = fsub double %sub119, %29, !llfi_index !506
  call void @doProfiling(i32 16)
  store double %sub120, ptr %b, align 8, !tbaa !301, !llfi_index !507
  %sub123 = fsub double %25, %27, !llfi_index !508
  call void @doProfiling(i32 16)
  %sub124 = fsub double %sub123, %29, !llfi_index !509
  call void @doProfiling(i32 16)
  %arrayidx126 = getelementptr inbounds [8 x double], ptr %b, i64 0, i64 1, !llfi_index !510
  store double %sub124, ptr %arrayidx126, align 8, !tbaa !301, !llfi_index !511
  %add127 = fadd double %25, %27, !llfi_index !512
  call void @doProfiling(i32 14)
  %sub128 = fsub double %add127, %29, !llfi_index !513
  call void @doProfiling(i32 16)
  %arrayidx130 = getelementptr inbounds [8 x double], ptr %b, i64 0, i64 2, !llfi_index !514
  store double %sub128, ptr %arrayidx130, align 8, !tbaa !301, !llfi_index !515
  %add132 = fsub double %27, %25, !llfi_index !516
  call void @doProfiling(i32 16)
  %sub133 = fsub double %add132, %29, !llfi_index !517
  call void @doProfiling(i32 16)
  %arrayidx135 = getelementptr inbounds [8 x double], ptr %b, i64 0, i64 3, !llfi_index !518
  store double %sub133, ptr %arrayidx135, align 8, !tbaa !301, !llfi_index !519
  %fneg138 = fneg double %sub128, !llfi_index !520
  call void @doProfiling(i32 12)
  %arrayidx140 = getelementptr inbounds [8 x double], ptr %b, i64 0, i64 4, !llfi_index !521
  store double %fneg138, ptr %arrayidx140, align 8, !tbaa !301, !llfi_index !522
  %fneg143 = fneg double %sub133, !llfi_index !523
  call void @doProfiling(i32 12)
  %arrayidx145 = getelementptr inbounds [8 x double], ptr %b, i64 0, i64 5, !llfi_index !524
  store double %fneg143, ptr %arrayidx145, align 8, !tbaa !301, !llfi_index !525
  %fneg148 = fneg double %sub120, !llfi_index !526
  call void @doProfiling(i32 12)
  %arrayidx150 = getelementptr inbounds [8 x double], ptr %b, i64 0, i64 6, !llfi_index !527
  store double %fneg148, ptr %arrayidx150, align 8, !tbaa !301, !llfi_index !528
  %fneg153 = fneg double %sub124, !llfi_index !529
  call void @doProfiling(i32 12)
  %arrayidx155 = getelementptr inbounds [8 x double], ptr %b, i64 0, i64 7, !llfi_index !530
  store double %fneg153, ptr %arrayidx155, align 8, !tbaa !301, !llfi_index !531
  %fneg156 = fneg double %31, !llfi_index !532
  call void @doProfiling(i32 12)
  %sub157 = fsub double %fneg156, %32, !llfi_index !533
  call void @doProfiling(i32 16)
  %sub158 = fsub double %sub157, %34, !llfi_index !534
  call void @doProfiling(i32 16)
  %arrayidx159 = getelementptr inbounds [8 x double], ptr %b, i64 1, !llfi_index !535
  store double %sub158, ptr %arrayidx159, align 8, !tbaa !301, !llfi_index !536
  %sub161 = fsub double %31, %32, !llfi_index !537
  call void @doProfiling(i32 16)
  %sub162 = fsub double %sub161, %34, !llfi_index !538
  call void @doProfiling(i32 16)
  %arrayidx164 = getelementptr inbounds [8 x double], ptr %b, i64 1, i64 1, !llfi_index !539
  store double %sub162, ptr %arrayidx164, align 8, !tbaa !301, !llfi_index !540
  %add165 = fadd double %31, %32, !llfi_index !541
  call void @doProfiling(i32 14)
  %sub166 = fsub double %add165, %34, !llfi_index !542
  call void @doProfiling(i32 16)
  %arrayidx168 = getelementptr inbounds [8 x double], ptr %b, i64 1, i64 2, !llfi_index !543
  store double %sub166, ptr %arrayidx168, align 8, !tbaa !301, !llfi_index !544
  %add170 = fsub double %32, %31, !llfi_index !545
  call void @doProfiling(i32 16)
  %sub171 = fsub double %add170, %34, !llfi_index !546
  call void @doProfiling(i32 16)
  %arrayidx173 = getelementptr inbounds [8 x double], ptr %b, i64 1, i64 3, !llfi_index !547
  store double %sub171, ptr %arrayidx173, align 8, !tbaa !301, !llfi_index !548
  %fneg176 = fneg double %sub166, !llfi_index !549
  call void @doProfiling(i32 12)
  %arrayidx178 = getelementptr inbounds [8 x double], ptr %b, i64 1, i64 4, !llfi_index !550
  store double %fneg176, ptr %arrayidx178, align 8, !tbaa !301, !llfi_index !551
  %fneg181 = fneg double %sub171, !llfi_index !552
  call void @doProfiling(i32 12)
  %arrayidx183 = getelementptr inbounds [8 x double], ptr %b, i64 1, i64 5, !llfi_index !553
  store double %fneg181, ptr %arrayidx183, align 8, !tbaa !301, !llfi_index !554
  %fneg186 = fneg double %sub158, !llfi_index !555
  call void @doProfiling(i32 12)
  %arrayidx188 = getelementptr inbounds [8 x double], ptr %b, i64 1, i64 6, !llfi_index !556
  store double %fneg186, ptr %arrayidx188, align 8, !tbaa !301, !llfi_index !557
  %fneg191 = fneg double %sub162, !llfi_index !558
  call void @doProfiling(i32 12)
  %arrayidx193 = getelementptr inbounds [8 x double], ptr %b, i64 1, i64 7, !llfi_index !559
  store double %fneg191, ptr %arrayidx193, align 8, !tbaa !301, !llfi_index !560
  %fneg194 = fneg double %36, !llfi_index !561
  call void @doProfiling(i32 12)
  %sub195 = fsub double %fneg194, %37, !llfi_index !562
  call void @doProfiling(i32 16)
  %sub196 = fsub double %sub195, %38, !llfi_index !563
  call void @doProfiling(i32 16)
  %arrayidx197 = getelementptr inbounds [8 x double], ptr %b, i64 2, !llfi_index !564
  store double %sub196, ptr %arrayidx197, align 8, !tbaa !301, !llfi_index !565
  %sub199 = fsub double %36, %37, !llfi_index !566
  call void @doProfiling(i32 16)
  %sub200 = fsub double %sub199, %38, !llfi_index !567
  call void @doProfiling(i32 16)
  %arrayidx202 = getelementptr inbounds [8 x double], ptr %b, i64 2, i64 1, !llfi_index !568
  store double %sub200, ptr %arrayidx202, align 8, !tbaa !301, !llfi_index !569
  %add203 = fadd double %36, %37, !llfi_index !570
  call void @doProfiling(i32 14)
  %sub204 = fsub double %add203, %38, !llfi_index !571
  call void @doProfiling(i32 16)
  %arrayidx206 = getelementptr inbounds [8 x double], ptr %b, i64 2, i64 2, !llfi_index !572
  store double %sub204, ptr %arrayidx206, align 8, !tbaa !301, !llfi_index !573
  %add208 = fsub double %37, %36, !llfi_index !574
  call void @doProfiling(i32 16)
  %sub209 = fsub double %add208, %38, !llfi_index !575
  call void @doProfiling(i32 16)
  %arrayidx211 = getelementptr inbounds [8 x double], ptr %b, i64 2, i64 3, !llfi_index !576
  store double %sub209, ptr %arrayidx211, align 8, !tbaa !301, !llfi_index !577
  %fneg214 = fneg double %sub204, !llfi_index !578
  call void @doProfiling(i32 12)
  %arrayidx216 = getelementptr inbounds [8 x double], ptr %b, i64 2, i64 4, !llfi_index !579
  store double %fneg214, ptr %arrayidx216, align 8, !tbaa !301, !llfi_index !580
  %fneg219 = fneg double %sub209, !llfi_index !581
  call void @doProfiling(i32 12)
  %arrayidx221 = getelementptr inbounds [8 x double], ptr %b, i64 2, i64 5, !llfi_index !582
  store double %fneg219, ptr %arrayidx221, align 8, !tbaa !301, !llfi_index !583
  %fneg224 = fneg double %sub196, !llfi_index !584
  call void @doProfiling(i32 12)
  %arrayidx226 = getelementptr inbounds [8 x double], ptr %b, i64 2, i64 6, !llfi_index !585
  store double %fneg224, ptr %arrayidx226, align 8, !tbaa !301, !llfi_index !586
  %fneg229 = fneg double %sub200, !llfi_index !587
  call void @doProfiling(i32 12)
  %arrayidx231 = getelementptr inbounds [8 x double], ptr %b, i64 2, i64 7, !llfi_index !588
  store double %fneg229, ptr %arrayidx231, align 8, !tbaa !301, !llfi_index !589
  %mul233 = fmul double %mul60, %32, !llfi_index !590
  call void @doProfiling(i32 18)
  %39 = call double @llvm.fmuladd.f64(double %mul36, double %27, double %mul233), !llfi_index !591
  call void @doProfiling(i32 56)
  %40 = call double @llvm.fmuladd.f64(double %mul84, double %37, double %39), !llfi_index !592
  call void @doProfiling(i32 56)
  %mul235 = fmul double %40, 8.000000e+00, !llfi_index !593
  call void @doProfiling(i32 18)
  store double %mul235, ptr %volume, align 8, !tbaa !301, !llfi_index !594
  ret void, !llfi_index !595
}

; Function Attrs: nocallback nofree nosync nounwind readnone speculatable willreturn
declare double @llvm.fmuladd.f64(double, double, double) #8

; Function Attrs: argmemonly mustprogress nofree noinline nosync nounwind willreturn uwtable
define dso_local void @_Z17SumElemFaceNormalPdS_S_S_S_S_S_S_S_S_S_S_dddddddddddd(ptr nocapture noundef %normalX0, ptr nocapture noundef %normalY0, ptr nocapture noundef %normalZ0, ptr nocapture noundef %normalX1, ptr nocapture noundef %normalY1, ptr nocapture noundef %normalZ1, ptr nocapture noundef %normalX2, ptr nocapture noundef %normalY2, ptr nocapture noundef %normalZ2, ptr nocapture noundef %normalX3, ptr nocapture noundef %normalY3, ptr nocapture noundef %normalZ3, double noundef %x0, double noundef %y0, double noundef %z0, double noundef %x1, double noundef %y1, double noundef %z1, double noundef %x2, double noundef %y2, double noundef %z2, double noundef %x3, double noundef %y3, double noundef %z3) local_unnamed_addr #7 {
entry:
  %add = fadd double %x2, %x3, !llfi_index !596
  call void @doProfiling(i32 14)
  %sub = fsub double %add, %x1, !llfi_index !597
  call void @doProfiling(i32 16)
  %sub1 = fsub double %sub, %x0, !llfi_index !598
  call void @doProfiling(i32 16)
  %mul = fmul double %sub1, 5.000000e-01, !llfi_index !599
  call void @doProfiling(i32 18)
  %add2 = fadd double %y2, %y3, !llfi_index !600
  call void @doProfiling(i32 14)
  %sub3 = fsub double %add2, %y1, !llfi_index !601
  call void @doProfiling(i32 16)
  %sub4 = fsub double %sub3, %y0, !llfi_index !602
  call void @doProfiling(i32 16)
  %mul5 = fmul double %sub4, 5.000000e-01, !llfi_index !603
  call void @doProfiling(i32 18)
  %add6 = fadd double %z2, %z3, !llfi_index !604
  call void @doProfiling(i32 14)
  %sub7 = fsub double %add6, %z1, !llfi_index !605
  call void @doProfiling(i32 16)
  %sub8 = fsub double %sub7, %z0, !llfi_index !606
  call void @doProfiling(i32 16)
  %mul9 = fmul double %sub8, 5.000000e-01, !llfi_index !607
  call void @doProfiling(i32 18)
  %add10 = fadd double %x1, %x2, !llfi_index !608
  call void @doProfiling(i32 14)
  %sub11 = fsub double %add10, %x3, !llfi_index !609
  call void @doProfiling(i32 16)
  %sub12 = fsub double %sub11, %x0, !llfi_index !610
  call void @doProfiling(i32 16)
  %mul13 = fmul double %sub12, 5.000000e-01, !llfi_index !611
  call void @doProfiling(i32 18)
  %add14 = fadd double %y1, %y2, !llfi_index !612
  call void @doProfiling(i32 14)
  %sub15 = fsub double %add14, %y3, !llfi_index !613
  call void @doProfiling(i32 16)
  %sub16 = fsub double %sub15, %y0, !llfi_index !614
  call void @doProfiling(i32 16)
  %mul17 = fmul double %sub16, 5.000000e-01, !llfi_index !615
  call void @doProfiling(i32 18)
  %add18 = fadd double %z1, %z2, !llfi_index !616
  call void @doProfiling(i32 14)
  %sub19 = fsub double %add18, %z3, !llfi_index !617
  call void @doProfiling(i32 16)
  %sub20 = fsub double %sub19, %z0, !llfi_index !618
  call void @doProfiling(i32 16)
  %mul21 = fmul double %sub20, 5.000000e-01, !llfi_index !619
  call void @doProfiling(i32 18)
  %0 = fneg double %mul9, !llfi_index !620
  call void @doProfiling(i32 12)
  %neg = fmul double %mul17, %0, !llfi_index !621
  call void @doProfiling(i32 18)
  %1 = call double @llvm.fmuladd.f64(double %mul5, double %mul21, double %neg), !llfi_index !622
  call void @doProfiling(i32 56)
  %mul24 = fmul double %1, 2.500000e-01, !llfi_index !623
  call void @doProfiling(i32 18)
  %2 = fneg double %mul, !llfi_index !624
  call void @doProfiling(i32 12)
  %neg27 = fmul double %mul21, %2, !llfi_index !625
  call void @doProfiling(i32 18)
  %3 = call double @llvm.fmuladd.f64(double %mul9, double %mul13, double %neg27), !llfi_index !626
  call void @doProfiling(i32 56)
  %mul28 = fmul double %3, 2.500000e-01, !llfi_index !627
  call void @doProfiling(i32 18)
  %4 = fneg double %mul5, !llfi_index !628
  call void @doProfiling(i32 12)
  %neg31 = fmul double %mul13, %4, !llfi_index !629
  call void @doProfiling(i32 18)
  %5 = call double @llvm.fmuladd.f64(double %mul, double %mul17, double %neg31), !llfi_index !630
  call void @doProfiling(i32 56)
  %mul32 = fmul double %5, 2.500000e-01, !llfi_index !631
  call void @doProfiling(i32 18)
  %6 = load double, ptr %normalX0, align 8, !tbaa !301, !llfi_index !632
  call void @doProfiling(i32 32)
  %add33 = fadd double %mul24, %6, !llfi_index !633
  call void @doProfiling(i32 14)
  store double %add33, ptr %normalX0, align 8, !tbaa !301, !llfi_index !634
  %7 = load double, ptr %normalX1, align 8, !tbaa !301, !llfi_index !635
  call void @doProfiling(i32 32)
  %add34 = fadd double %mul24, %7, !llfi_index !636
  call void @doProfiling(i32 14)
  store double %add34, ptr %normalX1, align 8, !tbaa !301, !llfi_index !637
  %8 = load double, ptr %normalX2, align 8, !tbaa !301, !llfi_index !638
  call void @doProfiling(i32 32)
  %add35 = fadd double %mul24, %8, !llfi_index !639
  call void @doProfiling(i32 14)
  store double %add35, ptr %normalX2, align 8, !tbaa !301, !llfi_index !640
  %9 = load double, ptr %normalX3, align 8, !tbaa !301, !llfi_index !641
  call void @doProfiling(i32 32)
  %add36 = fadd double %mul24, %9, !llfi_index !642
  call void @doProfiling(i32 14)
  store double %add36, ptr %normalX3, align 8, !tbaa !301, !llfi_index !643
  %10 = load double, ptr %normalY0, align 8, !tbaa !301, !llfi_index !644
  call void @doProfiling(i32 32)
  %add37 = fadd double %mul28, %10, !llfi_index !645
  call void @doProfiling(i32 14)
  store double %add37, ptr %normalY0, align 8, !tbaa !301, !llfi_index !646
  %11 = load double, ptr %normalY1, align 8, !tbaa !301, !llfi_index !647
  call void @doProfiling(i32 32)
  %add38 = fadd double %mul28, %11, !llfi_index !648
  call void @doProfiling(i32 14)
  store double %add38, ptr %normalY1, align 8, !tbaa !301, !llfi_index !649
  %12 = load double, ptr %normalY2, align 8, !tbaa !301, !llfi_index !650
  call void @doProfiling(i32 32)
  %add39 = fadd double %mul28, %12, !llfi_index !651
  call void @doProfiling(i32 14)
  store double %add39, ptr %normalY2, align 8, !tbaa !301, !llfi_index !652
  %13 = load double, ptr %normalY3, align 8, !tbaa !301, !llfi_index !653
  call void @doProfiling(i32 32)
  %add40 = fadd double %mul28, %13, !llfi_index !654
  call void @doProfiling(i32 14)
  store double %add40, ptr %normalY3, align 8, !tbaa !301, !llfi_index !655
  %14 = load double, ptr %normalZ0, align 8, !tbaa !301, !llfi_index !656
  call void @doProfiling(i32 32)
  %add41 = fadd double %mul32, %14, !llfi_index !657
  call void @doProfiling(i32 14)
  store double %add41, ptr %normalZ0, align 8, !tbaa !301, !llfi_index !658
  %15 = load double, ptr %normalZ1, align 8, !tbaa !301, !llfi_index !659
  call void @doProfiling(i32 32)
  %add42 = fadd double %mul32, %15, !llfi_index !660
  call void @doProfiling(i32 14)
  store double %add42, ptr %normalZ1, align 8, !tbaa !301, !llfi_index !661
  %16 = load double, ptr %normalZ2, align 8, !tbaa !301, !llfi_index !662
  call void @doProfiling(i32 32)
  %add43 = fadd double %mul32, %16, !llfi_index !663
  call void @doProfiling(i32 14)
  store double %add43, ptr %normalZ2, align 8, !tbaa !301, !llfi_index !664
  %17 = load double, ptr %normalZ3, align 8, !tbaa !301, !llfi_index !665
  call void @doProfiling(i32 32)
  %add44 = fadd double %mul32, %17, !llfi_index !666
  call void @doProfiling(i32 14)
  store double %add44, ptr %normalZ3, align 8, !tbaa !301, !llfi_index !667
  ret void, !llfi_index !668
}

; Function Attrs: argmemonly mustprogress nofree noinline nosync nounwind uwtable
define dso_local void @_Z19CalcElemNodeNormalsPdS_S_PKdS1_S1_(ptr nocapture noundef %pfx, ptr nocapture noundef %pfy, ptr nocapture noundef %pfz, ptr nocapture noundef readonly %x, ptr nocapture noundef readonly %y, ptr nocapture noundef readonly %z) local_unnamed_addr #9 {
entry:
  br label %for.body, !llfi_index !669

for.cond.cleanup:                                 ; preds = %for.body
  %arrayidx8 = getelementptr inbounds double, ptr %pfx, i64 1, !llfi_index !670
  %arrayidx9 = getelementptr inbounds double, ptr %pfy, i64 1, !llfi_index !671
  %arrayidx10 = getelementptr inbounds double, ptr %pfz, i64 1, !llfi_index !672
  %arrayidx11 = getelementptr inbounds double, ptr %pfx, i64 2, !llfi_index !673
  %arrayidx12 = getelementptr inbounds double, ptr %pfy, i64 2, !llfi_index !674
  %arrayidx13 = getelementptr inbounds double, ptr %pfz, i64 2, !llfi_index !675
  %arrayidx14 = getelementptr inbounds double, ptr %pfx, i64 3, !llfi_index !676
  %arrayidx15 = getelementptr inbounds double, ptr %pfy, i64 3, !llfi_index !677
  %arrayidx16 = getelementptr inbounds double, ptr %pfz, i64 3, !llfi_index !678
  %0 = load double, ptr %x, align 8, !tbaa !301, !llfi_index !679
  call void @doProfiling(i32 32)
  %1 = load double, ptr %y, align 8, !tbaa !301, !llfi_index !680
  call void @doProfiling(i32 32)
  %2 = load double, ptr %z, align 8, !tbaa !301, !llfi_index !681
  call void @doProfiling(i32 32)
  %arrayidx20 = getelementptr inbounds double, ptr %x, i64 1, !llfi_index !682
  %3 = load double, ptr %arrayidx20, align 8, !tbaa !301, !llfi_index !683
  call void @doProfiling(i32 32)
  %arrayidx21 = getelementptr inbounds double, ptr %y, i64 1, !llfi_index !684
  %4 = load double, ptr %arrayidx21, align 8, !tbaa !301, !llfi_index !685
  call void @doProfiling(i32 32)
  %arrayidx22 = getelementptr inbounds double, ptr %z, i64 1, !llfi_index !686
  %5 = load double, ptr %arrayidx22, align 8, !tbaa !301, !llfi_index !687
  call void @doProfiling(i32 32)
  %arrayidx23 = getelementptr inbounds double, ptr %x, i64 2, !llfi_index !688
  %6 = load double, ptr %arrayidx23, align 8, !tbaa !301, !llfi_index !689
  call void @doProfiling(i32 32)
  %arrayidx24 = getelementptr inbounds double, ptr %y, i64 2, !llfi_index !690
  %7 = load double, ptr %arrayidx24, align 8, !tbaa !301, !llfi_index !691
  call void @doProfiling(i32 32)
  %arrayidx25 = getelementptr inbounds double, ptr %z, i64 2, !llfi_index !692
  %8 = load double, ptr %arrayidx25, align 8, !tbaa !301, !llfi_index !693
  call void @doProfiling(i32 32)
  %arrayidx26 = getelementptr inbounds double, ptr %x, i64 3, !llfi_index !694
  %9 = load double, ptr %arrayidx26, align 8, !tbaa !301, !llfi_index !695
  call void @doProfiling(i32 32)
  %arrayidx27 = getelementptr inbounds double, ptr %y, i64 3, !llfi_index !696
  %10 = load double, ptr %arrayidx27, align 8, !tbaa !301, !llfi_index !697
  call void @doProfiling(i32 32)
  %arrayidx28 = getelementptr inbounds double, ptr %z, i64 3, !llfi_index !698
  %11 = load double, ptr %arrayidx28, align 8, !tbaa !301, !llfi_index !699
  call void @doProfiling(i32 32)
  call void @_Z17SumElemFaceNormalPdS_S_S_S_S_S_S_S_S_S_S_dddddddddddd(ptr noundef %pfx, ptr noundef %pfy, ptr noundef %pfz, ptr noundef nonnull %arrayidx8, ptr noundef nonnull %arrayidx9, ptr noundef nonnull %arrayidx10, ptr noundef nonnull %arrayidx11, ptr noundef nonnull %arrayidx12, ptr noundef nonnull %arrayidx13, ptr noundef nonnull %arrayidx14, ptr noundef nonnull %arrayidx15, ptr noundef nonnull %arrayidx16, double noundef %0, double noundef %1, double noundef %2, double noundef %3, double noundef %4, double noundef %5, double noundef %6, double noundef %7, double noundef %8, double noundef %9, double noundef %10, double noundef %11), !llfi_index !700
  %arrayidx32 = getelementptr inbounds double, ptr %pfx, i64 4, !llfi_index !701
  %arrayidx33 = getelementptr inbounds double, ptr %pfy, i64 4, !llfi_index !702
  %arrayidx34 = getelementptr inbounds double, ptr %pfz, i64 4, !llfi_index !703
  %arrayidx35 = getelementptr inbounds double, ptr %pfx, i64 5, !llfi_index !704
  %arrayidx36 = getelementptr inbounds double, ptr %pfy, i64 5, !llfi_index !705
  %arrayidx37 = getelementptr inbounds double, ptr %pfz, i64 5, !llfi_index !706
  %12 = load double, ptr %x, align 8, !tbaa !301, !llfi_index !707
  call void @doProfiling(i32 32)
  %13 = load double, ptr %y, align 8, !tbaa !301, !llfi_index !708
  call void @doProfiling(i32 32)
  %14 = load double, ptr %z, align 8, !tbaa !301, !llfi_index !709
  call void @doProfiling(i32 32)
  %arrayidx44 = getelementptr inbounds double, ptr %x, i64 4, !llfi_index !710
  %15 = load double, ptr %arrayidx44, align 8, !tbaa !301, !llfi_index !711
  call void @doProfiling(i32 32)
  %arrayidx45 = getelementptr inbounds double, ptr %y, i64 4, !llfi_index !712
  %16 = load double, ptr %arrayidx45, align 8, !tbaa !301, !llfi_index !713
  call void @doProfiling(i32 32)
  %arrayidx46 = getelementptr inbounds double, ptr %z, i64 4, !llfi_index !714
  %17 = load double, ptr %arrayidx46, align 8, !tbaa !301, !llfi_index !715
  call void @doProfiling(i32 32)
  %arrayidx47 = getelementptr inbounds double, ptr %x, i64 5, !llfi_index !716
  %18 = load double, ptr %arrayidx47, align 8, !tbaa !301, !llfi_index !717
  call void @doProfiling(i32 32)
  %arrayidx48 = getelementptr inbounds double, ptr %y, i64 5, !llfi_index !718
  %19 = load double, ptr %arrayidx48, align 8, !tbaa !301, !llfi_index !719
  call void @doProfiling(i32 32)
  %arrayidx49 = getelementptr inbounds double, ptr %z, i64 5, !llfi_index !720
  %20 = load double, ptr %arrayidx49, align 8, !tbaa !301, !llfi_index !721
  call void @doProfiling(i32 32)
  %21 = load double, ptr %arrayidx20, align 8, !tbaa !301, !llfi_index !722
  call void @doProfiling(i32 32)
  %22 = load double, ptr %arrayidx21, align 8, !tbaa !301, !llfi_index !723
  call void @doProfiling(i32 32)
  %23 = load double, ptr %arrayidx22, align 8, !tbaa !301, !llfi_index !724
  call void @doProfiling(i32 32)
  call void @_Z17SumElemFaceNormalPdS_S_S_S_S_S_S_S_S_S_S_dddddddddddd(ptr noundef %pfx, ptr noundef %pfy, ptr noundef %pfz, ptr noundef nonnull %arrayidx32, ptr noundef nonnull %arrayidx33, ptr noundef nonnull %arrayidx34, ptr noundef nonnull %arrayidx35, ptr noundef nonnull %arrayidx36, ptr noundef nonnull %arrayidx37, ptr noundef nonnull %arrayidx8, ptr noundef nonnull %arrayidx9, ptr noundef nonnull %arrayidx10, double noundef %12, double noundef %13, double noundef %14, double noundef %15, double noundef %16, double noundef %17, double noundef %18, double noundef %19, double noundef %20, double noundef %21, double noundef %22, double noundef %23), !llfi_index !725
  %arrayidx59 = getelementptr inbounds double, ptr %pfx, i64 6, !llfi_index !726
  %arrayidx60 = getelementptr inbounds double, ptr %pfy, i64 6, !llfi_index !727
  %arrayidx61 = getelementptr inbounds double, ptr %pfz, i64 6, !llfi_index !728
  %24 = load double, ptr %arrayidx20, align 8, !tbaa !301, !llfi_index !729
  call void @doProfiling(i32 32)
  %25 = load double, ptr %arrayidx21, align 8, !tbaa !301, !llfi_index !730
  call void @doProfiling(i32 32)
  %26 = load double, ptr %arrayidx22, align 8, !tbaa !301, !llfi_index !731
  call void @doProfiling(i32 32)
  %27 = load double, ptr %arrayidx47, align 8, !tbaa !301, !llfi_index !732
  call void @doProfiling(i32 32)
  %28 = load double, ptr %arrayidx48, align 8, !tbaa !301, !llfi_index !733
  call void @doProfiling(i32 32)
  %29 = load double, ptr %arrayidx49, align 8, !tbaa !301, !llfi_index !734
  call void @doProfiling(i32 32)
  %arrayidx71 = getelementptr inbounds double, ptr %x, i64 6, !llfi_index !735
  %30 = load double, ptr %arrayidx71, align 8, !tbaa !301, !llfi_index !736
  call void @doProfiling(i32 32)
  %arrayidx72 = getelementptr inbounds double, ptr %y, i64 6, !llfi_index !737
  %31 = load double, ptr %arrayidx72, align 8, !tbaa !301, !llfi_index !738
  call void @doProfiling(i32 32)
  %arrayidx73 = getelementptr inbounds double, ptr %z, i64 6, !llfi_index !739
  %32 = load double, ptr %arrayidx73, align 8, !tbaa !301, !llfi_index !740
  call void @doProfiling(i32 32)
  %33 = load double, ptr %arrayidx23, align 8, !tbaa !301, !llfi_index !741
  call void @doProfiling(i32 32)
  %34 = load double, ptr %arrayidx24, align 8, !tbaa !301, !llfi_index !742
  call void @doProfiling(i32 32)
  %35 = load double, ptr %arrayidx25, align 8, !tbaa !301, !llfi_index !743
  call void @doProfiling(i32 32)
  call void @_Z17SumElemFaceNormalPdS_S_S_S_S_S_S_S_S_S_S_dddddddddddd(ptr noundef nonnull %arrayidx8, ptr noundef nonnull %arrayidx9, ptr noundef nonnull %arrayidx10, ptr noundef nonnull %arrayidx35, ptr noundef nonnull %arrayidx36, ptr noundef nonnull %arrayidx37, ptr noundef nonnull %arrayidx59, ptr noundef nonnull %arrayidx60, ptr noundef nonnull %arrayidx61, ptr noundef nonnull %arrayidx11, ptr noundef nonnull %arrayidx12, ptr noundef nonnull %arrayidx13, double noundef %24, double noundef %25, double noundef %26, double noundef %27, double noundef %28, double noundef %29, double noundef %30, double noundef %31, double noundef %32, double noundef %33, double noundef %34, double noundef %35), !llfi_index !744
  %arrayidx83 = getelementptr inbounds double, ptr %pfx, i64 7, !llfi_index !745
  %arrayidx84 = getelementptr inbounds double, ptr %pfy, i64 7, !llfi_index !746
  %arrayidx85 = getelementptr inbounds double, ptr %pfz, i64 7, !llfi_index !747
  %36 = load double, ptr %arrayidx23, align 8, !tbaa !301, !llfi_index !748
  call void @doProfiling(i32 32)
  %37 = load double, ptr %arrayidx24, align 8, !tbaa !301, !llfi_index !749
  call void @doProfiling(i32 32)
  %38 = load double, ptr %arrayidx25, align 8, !tbaa !301, !llfi_index !750
  call void @doProfiling(i32 32)
  %39 = load double, ptr %arrayidx71, align 8, !tbaa !301, !llfi_index !751
  call void @doProfiling(i32 32)
  %40 = load double, ptr %arrayidx72, align 8, !tbaa !301, !llfi_index !752
  call void @doProfiling(i32 32)
  %41 = load double, ptr %arrayidx73, align 8, !tbaa !301, !llfi_index !753
  call void @doProfiling(i32 32)
  %arrayidx95 = getelementptr inbounds double, ptr %x, i64 7, !llfi_index !754
  %42 = load double, ptr %arrayidx95, align 8, !tbaa !301, !llfi_index !755
  call void @doProfiling(i32 32)
  %arrayidx96 = getelementptr inbounds double, ptr %y, i64 7, !llfi_index !756
  %43 = load double, ptr %arrayidx96, align 8, !tbaa !301, !llfi_index !757
  call void @doProfiling(i32 32)
  %arrayidx97 = getelementptr inbounds double, ptr %z, i64 7, !llfi_index !758
  %44 = load double, ptr %arrayidx97, align 8, !tbaa !301, !llfi_index !759
  call void @doProfiling(i32 32)
  %45 = load double, ptr %arrayidx26, align 8, !tbaa !301, !llfi_index !760
  call void @doProfiling(i32 32)
  %46 = load double, ptr %arrayidx27, align 8, !tbaa !301, !llfi_index !761
  call void @doProfiling(i32 32)
  %47 = load double, ptr %arrayidx28, align 8, !tbaa !301, !llfi_index !762
  call void @doProfiling(i32 32)
  call void @_Z17SumElemFaceNormalPdS_S_S_S_S_S_S_S_S_S_S_dddddddddddd(ptr noundef nonnull %arrayidx11, ptr noundef nonnull %arrayidx12, ptr noundef nonnull %arrayidx13, ptr noundef nonnull %arrayidx59, ptr noundef nonnull %arrayidx60, ptr noundef nonnull %arrayidx61, ptr noundef nonnull %arrayidx83, ptr noundef nonnull %arrayidx84, ptr noundef nonnull %arrayidx85, ptr noundef nonnull %arrayidx14, ptr noundef nonnull %arrayidx15, ptr noundef nonnull %arrayidx16, double noundef %36, double noundef %37, double noundef %38, double noundef %39, double noundef %40, double noundef %41, double noundef %42, double noundef %43, double noundef %44, double noundef %45, double noundef %46, double noundef %47), !llfi_index !763
  %48 = load double, ptr %arrayidx26, align 8, !tbaa !301, !llfi_index !764
  call void @doProfiling(i32 32)
  %49 = load double, ptr %arrayidx27, align 8, !tbaa !301, !llfi_index !765
  call void @doProfiling(i32 32)
  %50 = load double, ptr %arrayidx28, align 8, !tbaa !301, !llfi_index !766
  call void @doProfiling(i32 32)
  %51 = load double, ptr %arrayidx95, align 8, !tbaa !301, !llfi_index !767
  call void @doProfiling(i32 32)
  %52 = load double, ptr %arrayidx96, align 8, !tbaa !301, !llfi_index !768
  call void @doProfiling(i32 32)
  %53 = load double, ptr %arrayidx97, align 8, !tbaa !301, !llfi_index !769
  call void @doProfiling(i32 32)
  %54 = load double, ptr %arrayidx44, align 8, !tbaa !301, !llfi_index !770
  call void @doProfiling(i32 32)
  %55 = load double, ptr %arrayidx45, align 8, !tbaa !301, !llfi_index !771
  call void @doProfiling(i32 32)
  %56 = load double, ptr %arrayidx46, align 8, !tbaa !301, !llfi_index !772
  call void @doProfiling(i32 32)
  %57 = load double, ptr %x, align 8, !tbaa !301, !llfi_index !773
  call void @doProfiling(i32 32)
  %58 = load double, ptr %y, align 8, !tbaa !301, !llfi_index !774
  call void @doProfiling(i32 32)
  %59 = load double, ptr %z, align 8, !tbaa !301, !llfi_index !775
  call void @doProfiling(i32 32)
  call void @_Z17SumElemFaceNormalPdS_S_S_S_S_S_S_S_S_S_S_dddddddddddd(ptr noundef nonnull %arrayidx14, ptr noundef nonnull %arrayidx15, ptr noundef nonnull %arrayidx16, ptr noundef nonnull %arrayidx83, ptr noundef nonnull %arrayidx84, ptr noundef nonnull %arrayidx85, ptr noundef nonnull %arrayidx32, ptr noundef nonnull %arrayidx33, ptr noundef nonnull %arrayidx34, ptr noundef %pfx, ptr noundef %pfy, ptr noundef %pfz, double noundef %48, double noundef %49, double noundef %50, double noundef %51, double noundef %52, double noundef %53, double noundef %54, double noundef %55, double noundef %56, double noundef %57, double noundef %58, double noundef %59), !llfi_index !776
  %60 = load double, ptr %arrayidx44, align 8, !tbaa !301, !llfi_index !777
  call void @doProfiling(i32 32)
  %61 = load double, ptr %arrayidx45, align 8, !tbaa !301, !llfi_index !778
  call void @doProfiling(i32 32)
  %62 = load double, ptr %arrayidx46, align 8, !tbaa !301, !llfi_index !779
  call void @doProfiling(i32 32)
  %63 = load double, ptr %arrayidx95, align 8, !tbaa !301, !llfi_index !780
  call void @doProfiling(i32 32)
  %64 = load double, ptr %arrayidx96, align 8, !tbaa !301, !llfi_index !781
  call void @doProfiling(i32 32)
  %65 = load double, ptr %arrayidx97, align 8, !tbaa !301, !llfi_index !782
  call void @doProfiling(i32 32)
  %66 = load double, ptr %arrayidx71, align 8, !tbaa !301, !llfi_index !783
  call void @doProfiling(i32 32)
  %67 = load double, ptr %arrayidx72, align 8, !tbaa !301, !llfi_index !784
  call void @doProfiling(i32 32)
  %68 = load double, ptr %arrayidx73, align 8, !tbaa !301, !llfi_index !785
  call void @doProfiling(i32 32)
  %69 = load double, ptr %arrayidx47, align 8, !tbaa !301, !llfi_index !786
  call void @doProfiling(i32 32)
  %70 = load double, ptr %arrayidx48, align 8, !tbaa !301, !llfi_index !787
  call void @doProfiling(i32 32)
  %71 = load double, ptr %arrayidx49, align 8, !tbaa !301, !llfi_index !788
  call void @doProfiling(i32 32)
  call void @_Z17SumElemFaceNormalPdS_S_S_S_S_S_S_S_S_S_S_dddddddddddd(ptr noundef nonnull %arrayidx32, ptr noundef nonnull %arrayidx33, ptr noundef nonnull %arrayidx34, ptr noundef nonnull %arrayidx83, ptr noundef nonnull %arrayidx84, ptr noundef nonnull %arrayidx85, ptr noundef nonnull %arrayidx59, ptr noundef nonnull %arrayidx60, ptr noundef nonnull %arrayidx61, ptr noundef nonnull %arrayidx35, ptr noundef nonnull %arrayidx36, ptr noundef nonnull %arrayidx37, double noundef %60, double noundef %61, double noundef %62, double noundef %63, double noundef %64, double noundef %65, double noundef %66, double noundef %67, double noundef %68, double noundef %69, double noundef %70, double noundef %71), !llfi_index !789
  ret void, !llfi_index !790

for.body:                                         ; preds = %for.body, %entry
  %indvars.iv = phi i64 [ 0, %entry ], [ %indvars.iv.next, %for.body ], !llfi_index !791
  call void @doProfiling(i32 55)
  %arrayidx = getelementptr inbounds double, ptr %pfx, i64 %indvars.iv, !llfi_index !792
  store double 0.000000e+00, ptr %arrayidx, align 8, !tbaa !301, !llfi_index !793
  %arrayidx2 = getelementptr inbounds double, ptr %pfy, i64 %indvars.iv, !llfi_index !794
  store double 0.000000e+00, ptr %arrayidx2, align 8, !tbaa !301, !llfi_index !795
  %arrayidx4 = getelementptr inbounds double, ptr %pfz, i64 %indvars.iv, !llfi_index !796
  store double 0.000000e+00, ptr %arrayidx4, align 8, !tbaa !301, !llfi_index !797
  %indvars.iv.next = add nuw nsw i64 %indvars.iv, 1, !llfi_index !798
  call void @doProfiling(i32 13)
  %exitcond.not = icmp eq i64 %indvars.iv.next, 8, !llfi_index !799
  call void @doProfiling(i32 53)
  br i1 %exitcond.not, label %for.cond.cleanup, label %for.body, !llvm.loop !800, !llfi_index !801
}

; Function Attrs: argmemonly mustprogress nofree noinline norecurse nosync nounwind willreturn uwtable
define dso_local void @_Z27SumElemStressesToNodeForcesPA8_KddddPdS2_S2_(ptr noundef readonly %B, double noundef %stress_xx, double noundef %stress_yy, double noundef %stress_zz, ptr nocapture noundef writeonly %fx, ptr nocapture noundef writeonly %fy, ptr nocapture noundef writeonly %fz) local_unnamed_addr #10 {
entry:
  %0 = load double, ptr %B, align 8, !tbaa !301, !llfi_index !802
  call void @doProfiling(i32 32)
  %arrayidx3 = getelementptr inbounds [8 x double], ptr %B, i64 0, i64 1, !llfi_index !803
  %1 = load double, ptr %arrayidx3, align 8, !tbaa !301, !llfi_index !804
  call void @doProfiling(i32 32)
  %arrayidx5 = getelementptr inbounds [8 x double], ptr %B, i64 0, i64 2, !llfi_index !805
  %2 = load double, ptr %arrayidx5, align 8, !tbaa !301, !llfi_index !806
  call void @doProfiling(i32 32)
  %arrayidx7 = getelementptr inbounds [8 x double], ptr %B, i64 0, i64 3, !llfi_index !807
  %3 = load double, ptr %arrayidx7, align 8, !tbaa !301, !llfi_index !808
  call void @doProfiling(i32 32)
  %arrayidx9 = getelementptr inbounds [8 x double], ptr %B, i64 0, i64 4, !llfi_index !809
  %4 = load double, ptr %arrayidx9, align 8, !tbaa !301, !llfi_index !810
  call void @doProfiling(i32 32)
  %arrayidx11 = getelementptr inbounds [8 x double], ptr %B, i64 0, i64 5, !llfi_index !811
  %5 = load double, ptr %arrayidx11, align 8, !tbaa !301, !llfi_index !812
  call void @doProfiling(i32 32)
  %arrayidx13 = getelementptr inbounds [8 x double], ptr %B, i64 0, i64 6, !llfi_index !813
  %6 = load double, ptr %arrayidx13, align 8, !tbaa !301, !llfi_index !814
  call void @doProfiling(i32 32)
  %arrayidx15 = getelementptr inbounds [8 x double], ptr %B, i64 0, i64 7, !llfi_index !815
  %7 = load double, ptr %arrayidx15, align 8, !tbaa !301, !llfi_index !816
  call void @doProfiling(i32 32)
  %arrayidx16 = getelementptr inbounds [8 x double], ptr %B, i64 1, !llfi_index !817
  %8 = load double, ptr %arrayidx16, align 8, !tbaa !301, !llfi_index !818
  call void @doProfiling(i32 32)
  %arrayidx19 = getelementptr inbounds [8 x double], ptr %B, i64 1, i64 1, !llfi_index !819
  %9 = load double, ptr %arrayidx19, align 8, !tbaa !301, !llfi_index !820
  call void @doProfiling(i32 32)
  %arrayidx21 = getelementptr inbounds [8 x double], ptr %B, i64 1, i64 2, !llfi_index !821
  %10 = load double, ptr %arrayidx21, align 8, !tbaa !301, !llfi_index !822
  call void @doProfiling(i32 32)
  %arrayidx23 = getelementptr inbounds [8 x double], ptr %B, i64 1, i64 3, !llfi_index !823
  %11 = load double, ptr %arrayidx23, align 8, !tbaa !301, !llfi_index !824
  call void @doProfiling(i32 32)
  %arrayidx25 = getelementptr inbounds [8 x double], ptr %B, i64 1, i64 4, !llfi_index !825
  %12 = load double, ptr %arrayidx25, align 8, !tbaa !301, !llfi_index !826
  call void @doProfiling(i32 32)
  %arrayidx27 = getelementptr inbounds [8 x double], ptr %B, i64 1, i64 5, !llfi_index !827
  %13 = load double, ptr %arrayidx27, align 8, !tbaa !301, !llfi_index !828
  call void @doProfiling(i32 32)
  %arrayidx29 = getelementptr inbounds [8 x double], ptr %B, i64 1, i64 6, !llfi_index !829
  %14 = load double, ptr %arrayidx29, align 8, !tbaa !301, !llfi_index !830
  call void @doProfiling(i32 32)
  %arrayidx31 = getelementptr inbounds [8 x double], ptr %B, i64 1, i64 7, !llfi_index !831
  %15 = load double, ptr %arrayidx31, align 8, !tbaa !301, !llfi_index !832
  call void @doProfiling(i32 32)
  %arrayidx32 = getelementptr inbounds [8 x double], ptr %B, i64 2, !llfi_index !833
  %16 = load double, ptr %arrayidx32, align 8, !tbaa !301, !llfi_index !834
  call void @doProfiling(i32 32)
  %arrayidx35 = getelementptr inbounds [8 x double], ptr %B, i64 2, i64 1, !llfi_index !835
  %17 = load double, ptr %arrayidx35, align 8, !tbaa !301, !llfi_index !836
  call void @doProfiling(i32 32)
  %arrayidx37 = getelementptr inbounds [8 x double], ptr %B, i64 2, i64 2, !llfi_index !837
  %18 = load double, ptr %arrayidx37, align 8, !tbaa !301, !llfi_index !838
  call void @doProfiling(i32 32)
  %arrayidx39 = getelementptr inbounds [8 x double], ptr %B, i64 2, i64 3, !llfi_index !839
  %19 = load double, ptr %arrayidx39, align 8, !tbaa !301, !llfi_index !840
  call void @doProfiling(i32 32)
  %arrayidx41 = getelementptr inbounds [8 x double], ptr %B, i64 2, i64 4, !llfi_index !841
  %20 = load double, ptr %arrayidx41, align 8, !tbaa !301, !llfi_index !842
  call void @doProfiling(i32 32)
  %arrayidx43 = getelementptr inbounds [8 x double], ptr %B, i64 2, i64 5, !llfi_index !843
  %21 = load double, ptr %arrayidx43, align 8, !tbaa !301, !llfi_index !844
  call void @doProfiling(i32 32)
  %arrayidx45 = getelementptr inbounds [8 x double], ptr %B, i64 2, i64 6, !llfi_index !845
  %22 = load double, ptr %arrayidx45, align 8, !tbaa !301, !llfi_index !846
  call void @doProfiling(i32 32)
  %arrayidx47 = getelementptr inbounds [8 x double], ptr %B, i64 2, i64 7, !llfi_index !847
  %23 = load double, ptr %arrayidx47, align 8, !tbaa !301, !llfi_index !848
  call void @doProfiling(i32 32)
  %24 = fneg double %0, !llfi_index !849
  call void @doProfiling(i32 12)
  %fneg = fmul double %24, %stress_xx, !llfi_index !850
  call void @doProfiling(i32 18)
  store double %fneg, ptr %fx, align 8, !tbaa !301, !llfi_index !851
  %25 = fneg double %1, !llfi_index !852
  call void @doProfiling(i32 12)
  %fneg50 = fmul double %25, %stress_xx, !llfi_index !853
  call void @doProfiling(i32 18)
  %arrayidx51 = getelementptr inbounds double, ptr %fx, i64 1, !llfi_index !854
  store double %fneg50, ptr %arrayidx51, align 8, !tbaa !301, !llfi_index !855
  %26 = fneg double %2, !llfi_index !856
  call void @doProfiling(i32 12)
  %fneg53 = fmul double %26, %stress_xx, !llfi_index !857
  call void @doProfiling(i32 18)
  %arrayidx54 = getelementptr inbounds double, ptr %fx, i64 2, !llfi_index !858
  store double %fneg53, ptr %arrayidx54, align 8, !tbaa !301, !llfi_index !859
  %27 = fneg double %3, !llfi_index !860
  call void @doProfiling(i32 12)
  %fneg56 = fmul double %27, %stress_xx, !llfi_index !861
  call void @doProfiling(i32 18)
  %arrayidx57 = getelementptr inbounds double, ptr %fx, i64 3, !llfi_index !862
  store double %fneg56, ptr %arrayidx57, align 8, !tbaa !301, !llfi_index !863
  %28 = fneg double %4, !llfi_index !864
  call void @doProfiling(i32 12)
  %fneg59 = fmul double %28, %stress_xx, !llfi_index !865
  call void @doProfiling(i32 18)
  %arrayidx60 = getelementptr inbounds double, ptr %fx, i64 4, !llfi_index !866
  store double %fneg59, ptr %arrayidx60, align 8, !tbaa !301, !llfi_index !867
  %29 = fneg double %5, !llfi_index !868
  call void @doProfiling(i32 12)
  %fneg62 = fmul double %29, %stress_xx, !llfi_index !869
  call void @doProfiling(i32 18)
  %arrayidx63 = getelementptr inbounds double, ptr %fx, i64 5, !llfi_index !870
  store double %fneg62, ptr %arrayidx63, align 8, !tbaa !301, !llfi_index !871
  %30 = fneg double %6, !llfi_index !872
  call void @doProfiling(i32 12)
  %fneg65 = fmul double %30, %stress_xx, !llfi_index !873
  call void @doProfiling(i32 18)
  %arrayidx66 = getelementptr inbounds double, ptr %fx, i64 6, !llfi_index !874
  store double %fneg65, ptr %arrayidx66, align 8, !tbaa !301, !llfi_index !875
  %31 = fneg double %7, !llfi_index !876
  call void @doProfiling(i32 12)
  %fneg68 = fmul double %31, %stress_xx, !llfi_index !877
  call void @doProfiling(i32 18)
  %arrayidx69 = getelementptr inbounds double, ptr %fx, i64 7, !llfi_index !878
  store double %fneg68, ptr %arrayidx69, align 8, !tbaa !301, !llfi_index !879
  %32 = fneg double %8, !llfi_index !880
  call void @doProfiling(i32 12)
  %fneg71 = fmul double %32, %stress_yy, !llfi_index !881
  call void @doProfiling(i32 18)
  store double %fneg71, ptr %fy, align 8, !tbaa !301, !llfi_index !882
  %33 = fneg double %9, !llfi_index !883
  call void @doProfiling(i32 12)
  %fneg74 = fmul double %33, %stress_yy, !llfi_index !884
  call void @doProfiling(i32 18)
  %arrayidx75 = getelementptr inbounds double, ptr %fy, i64 1, !llfi_index !885
  store double %fneg74, ptr %arrayidx75, align 8, !tbaa !301, !llfi_index !886
  %34 = fneg double %10, !llfi_index !887
  call void @doProfiling(i32 12)
  %fneg77 = fmul double %34, %stress_yy, !llfi_index !888
  call void @doProfiling(i32 18)
  %arrayidx78 = getelementptr inbounds double, ptr %fy, i64 2, !llfi_index !889
  store double %fneg77, ptr %arrayidx78, align 8, !tbaa !301, !llfi_index !890
  %35 = fneg double %11, !llfi_index !891
  call void @doProfiling(i32 12)
  %fneg80 = fmul double %35, %stress_yy, !llfi_index !892
  call void @doProfiling(i32 18)
  %arrayidx81 = getelementptr inbounds double, ptr %fy, i64 3, !llfi_index !893
  store double %fneg80, ptr %arrayidx81, align 8, !tbaa !301, !llfi_index !894
  %36 = fneg double %12, !llfi_index !895
  call void @doProfiling(i32 12)
  %fneg83 = fmul double %36, %stress_yy, !llfi_index !896
  call void @doProfiling(i32 18)
  %arrayidx84 = getelementptr inbounds double, ptr %fy, i64 4, !llfi_index !897
  store double %fneg83, ptr %arrayidx84, align 8, !tbaa !301, !llfi_index !898
  %37 = fneg double %13, !llfi_index !899
  call void @doProfiling(i32 12)
  %fneg86 = fmul double %37, %stress_yy, !llfi_index !900
  call void @doProfiling(i32 18)
  %arrayidx87 = getelementptr inbounds double, ptr %fy, i64 5, !llfi_index !901
  store double %fneg86, ptr %arrayidx87, align 8, !tbaa !301, !llfi_index !902
  %38 = fneg double %14, !llfi_index !903
  call void @doProfiling(i32 12)
  %fneg89 = fmul double %38, %stress_yy, !llfi_index !904
  call void @doProfiling(i32 18)
  %arrayidx90 = getelementptr inbounds double, ptr %fy, i64 6, !llfi_index !905
  store double %fneg89, ptr %arrayidx90, align 8, !tbaa !301, !llfi_index !906
  %39 = fneg double %15, !llfi_index !907
  call void @doProfiling(i32 12)
  %fneg92 = fmul double %39, %stress_yy, !llfi_index !908
  call void @doProfiling(i32 18)
  %arrayidx93 = getelementptr inbounds double, ptr %fy, i64 7, !llfi_index !909
  store double %fneg92, ptr %arrayidx93, align 8, !tbaa !301, !llfi_index !910
  %40 = fneg double %16, !llfi_index !911
  call void @doProfiling(i32 12)
  %fneg95 = fmul double %40, %stress_zz, !llfi_index !912
  call void @doProfiling(i32 18)
  store double %fneg95, ptr %fz, align 8, !tbaa !301, !llfi_index !913
  %41 = fneg double %17, !llfi_index !914
  call void @doProfiling(i32 12)
  %fneg98 = fmul double %41, %stress_zz, !llfi_index !915
  call void @doProfiling(i32 18)
  %arrayidx99 = getelementptr inbounds double, ptr %fz, i64 1, !llfi_index !916
  store double %fneg98, ptr %arrayidx99, align 8, !tbaa !301, !llfi_index !917
  %42 = fneg double %18, !llfi_index !918
  call void @doProfiling(i32 12)
  %fneg101 = fmul double %42, %stress_zz, !llfi_index !919
  call void @doProfiling(i32 18)
  %arrayidx102 = getelementptr inbounds double, ptr %fz, i64 2, !llfi_index !920
  store double %fneg101, ptr %arrayidx102, align 8, !tbaa !301, !llfi_index !921
  %43 = fneg double %19, !llfi_index !922
  call void @doProfiling(i32 12)
  %fneg104 = fmul double %43, %stress_zz, !llfi_index !923
  call void @doProfiling(i32 18)
  %arrayidx105 = getelementptr inbounds double, ptr %fz, i64 3, !llfi_index !924
  store double %fneg104, ptr %arrayidx105, align 8, !tbaa !301, !llfi_index !925
  %44 = fneg double %20, !llfi_index !926
  call void @doProfiling(i32 12)
  %fneg107 = fmul double %44, %stress_zz, !llfi_index !927
  call void @doProfiling(i32 18)
  %arrayidx108 = getelementptr inbounds double, ptr %fz, i64 4, !llfi_index !928
  store double %fneg107, ptr %arrayidx108, align 8, !tbaa !301, !llfi_index !929
  %45 = fneg double %21, !llfi_index !930
  call void @doProfiling(i32 12)
  %fneg110 = fmul double %45, %stress_zz, !llfi_index !931
  call void @doProfiling(i32 18)
  %arrayidx111 = getelementptr inbounds double, ptr %fz, i64 5, !llfi_index !932
  store double %fneg110, ptr %arrayidx111, align 8, !tbaa !301, !llfi_index !933
  %46 = fneg double %22, !llfi_index !934
  call void @doProfiling(i32 12)
  %fneg113 = fmul double %46, %stress_zz, !llfi_index !935
  call void @doProfiling(i32 18)
  %arrayidx114 = getelementptr inbounds double, ptr %fz, i64 6, !llfi_index !936
  store double %fneg113, ptr %arrayidx114, align 8, !tbaa !301, !llfi_index !937
  %47 = fneg double %23, !llfi_index !938
  call void @doProfiling(i32 12)
  %fneg116 = fmul double %47, %stress_zz, !llfi_index !939
  call void @doProfiling(i32 18)
  %arrayidx117 = getelementptr inbounds double, ptr %fz, i64 7, !llfi_index !940
  store double %fneg116, ptr %arrayidx117, align 8, !tbaa !301, !llfi_index !941
  ret void, !llfi_index !942
}

; Function Attrs: mustprogress nofree noinline nosync nounwind uwtable
define dso_local void @_Z23IntegrateStressForElemsiPdS_S_S_(i32 noundef %numElem, ptr nocapture noundef readonly %sigxx, ptr nocapture noundef readonly %sigyy, ptr nocapture noundef readonly %sigzz, ptr nocapture noundef writeonly %determ) local_unnamed_addr #11 {
entry:
  %B = alloca [3 x [8 x double]], align 16, !llfi_index !943
  call void @doProfiling(i32 31)
  %x_local = alloca [8 x double], align 16, !llfi_index !944
  call void @doProfiling(i32 31)
  %y_local = alloca [8 x double], align 16, !llfi_index !945
  call void @doProfiling(i32 31)
  %z_local = alloca [8 x double], align 16, !llfi_index !946
  call void @doProfiling(i32 31)
  %fx_local = alloca [8 x double], align 16, !llfi_index !947
  call void @doProfiling(i32 31)
  %fy_local = alloca [8 x double], align 16, !llfi_index !948
  call void @doProfiling(i32 31)
  %fz_local = alloca [8 x double], align 16, !llfi_index !949
  call void @doProfiling(i32 31)
  call void @llvm.lifetime.start.p0(i64 192, ptr nonnull %B) #2, !llfi_index !950
  call void @llvm.lifetime.start.p0(i64 64, ptr nonnull %x_local) #2, !llfi_index !951
  call void @llvm.lifetime.start.p0(i64 64, ptr nonnull %y_local) #2, !llfi_index !952
  call void @llvm.lifetime.start.p0(i64 64, ptr nonnull %z_local) #2, !llfi_index !953
  call void @llvm.lifetime.start.p0(i64 64, ptr nonnull %fx_local) #2, !llfi_index !954
  call void @llvm.lifetime.start.p0(i64 64, ptr nonnull %fy_local) #2, !llfi_index !955
  call void @llvm.lifetime.start.p0(i64 64, ptr nonnull %fz_local) #2, !llfi_index !956
  %cmp98 = icmp sgt i32 %numElem, 0, !llfi_index !957
  call void @doProfiling(i32 53)
  br i1 %cmp98, label %for.body.lr.ph, label %for.cond.cleanup, !llfi_index !958

for.body.lr.ph:                                   ; preds = %entry
  %arrayidx21 = getelementptr inbounds [3 x [8 x double]], ptr %B, i64 0, i64 1, !llfi_index !959
  %arrayidx23 = getelementptr inbounds [3 x [8 x double]], ptr %B, i64 0, i64 2, !llfi_index !960
  %wide.trip.count = zext i32 %numElem to i64, !llfi_index !961
  call void @doProfiling(i32 39)
  br label %for.body, !llfi_index !962

for.cond.cleanup:                                 ; preds = %for.cond.cleanup41, %entry
  call void @llvm.lifetime.end.p0(i64 64, ptr nonnull %fz_local) #2, !llfi_index !963
  call void @llvm.lifetime.end.p0(i64 64, ptr nonnull %fy_local) #2, !llfi_index !964
  call void @llvm.lifetime.end.p0(i64 64, ptr nonnull %fx_local) #2, !llfi_index !965
  call void @llvm.lifetime.end.p0(i64 64, ptr nonnull %z_local) #2, !llfi_index !966
  call void @llvm.lifetime.end.p0(i64 64, ptr nonnull %y_local) #2, !llfi_index !967
  call void @llvm.lifetime.end.p0(i64 64, ptr nonnull %x_local) #2, !llfi_index !968
  call void @llvm.lifetime.end.p0(i64 192, ptr nonnull %B) #2, !llfi_index !969
  ret void, !llfi_index !970

for.body:                                         ; preds = %for.cond.cleanup41, %for.body.lr.ph
  %indvars.iv105 = phi i64 [ 0, %for.body.lr.ph ], [ %indvars.iv.next106, %for.cond.cleanup41 ], !llfi_index !971
  call void @doProfiling(i32 55)
  %0 = shl nsw i64 %indvars.iv105, 3, !llfi_index !972
  call void @doProfiling(i32 25)
  %1 = load ptr, ptr getelementptr inbounds (%struct.Mesh, ptr @mesh, i64 0, i32 17), align 8, !tbaa !149, !llfi_index !973
  call void @doProfiling(i32 32)
  %add.ptr.i.i = getelementptr inbounds i32, ptr %1, i64 %0, !llfi_index !974
  %2 = load ptr, ptr @mesh, align 8, !tbaa !11, !llfi_index !975
  call void @doProfiling(i32 32)
  %3 = load ptr, ptr getelementptr inbounds (%struct.Mesh, ptr @mesh, i64 0, i32 1), align 8, !tbaa !11, !llfi_index !976
  call void @doProfiling(i32 32)
  %4 = load ptr, ptr getelementptr inbounds (%struct.Mesh, ptr @mesh, i64 0, i32 2), align 8, !tbaa !11, !llfi_index !977
  call void @doProfiling(i32 32)
  br label %for.body4, !llfi_index !978

for.cond.cleanup3:                                ; preds = %for.body4
  %arrayidx18 = getelementptr inbounds double, ptr %determ, i64 %indvars.iv105, !llfi_index !979
  call void @_Z32CalcElemShapeFunctionDerivativesPKdS0_S0_PA8_dPd(ptr noundef nonnull %x_local, ptr noundef nonnull %y_local, ptr noundef nonnull %z_local, ptr noundef nonnull %B, ptr noundef %arrayidx18), !llfi_index !980
  call void @_Z19CalcElemNodeNormalsPdS_S_PKdS1_S1_(ptr noundef nonnull %B, ptr noundef nonnull %arrayidx21, ptr noundef nonnull %arrayidx23, ptr noundef nonnull %x_local, ptr noundef nonnull %y_local, ptr noundef nonnull %z_local), !llfi_index !981
  %arrayidx30 = getelementptr inbounds double, ptr %sigxx, i64 %indvars.iv105, !llfi_index !982
  %5 = load double, ptr %arrayidx30, align 8, !tbaa !301, !llfi_index !983
  call void @doProfiling(i32 32)
  %arrayidx32 = getelementptr inbounds double, ptr %sigyy, i64 %indvars.iv105, !llfi_index !984
  %6 = load double, ptr %arrayidx32, align 8, !tbaa !301, !llfi_index !985
  call void @doProfiling(i32 32)
  %arrayidx34 = getelementptr inbounds double, ptr %sigzz, i64 %indvars.iv105, !llfi_index !986
  %7 = load double, ptr %arrayidx34, align 8, !tbaa !301, !llfi_index !987
  call void @doProfiling(i32 32)
  call void @_Z27SumElemStressesToNodeForcesPA8_KddddPdS2_S2_(ptr noundef nonnull %B, double noundef %5, double noundef %6, double noundef %7, ptr noundef nonnull %fx_local, ptr noundef nonnull %fy_local, ptr noundef nonnull %fz_local), !llfi_index !988
  %8 = load ptr, ptr getelementptr inbounds (%struct.Mesh, ptr @mesh, i64 0, i32 9), align 8, !tbaa !11, !llfi_index !989
  call void @doProfiling(i32 32)
  %9 = load ptr, ptr getelementptr inbounds (%struct.Mesh, ptr @mesh, i64 0, i32 10), align 8, !tbaa !11, !llfi_index !990
  call void @doProfiling(i32 32)
  %10 = load ptr, ptr getelementptr inbounds (%struct.Mesh, ptr @mesh, i64 0, i32 11), align 8, !tbaa !11, !llfi_index !991
  call void @doProfiling(i32 32)
  br label %for.body42, !llfi_index !992

for.body4:                                        ; preds = %for.body4, %for.body
  %indvars.iv = phi i64 [ 0, %for.body ], [ %indvars.iv.next, %for.body4 ], !llfi_index !993
  call void @doProfiling(i32 55)
  %arrayidx = getelementptr inbounds i32, ptr %add.ptr.i.i, i64 %indvars.iv, !llfi_index !994
  %11 = load i32, ptr %arrayidx, align 4, !tbaa !360, !llfi_index !995
  call void @doProfiling(i32 32)
  %conv.i84 = sext i32 %11 to i64, !llfi_index !996
  call void @doProfiling(i32 40)
  %add.ptr.i.i85 = getelementptr inbounds double, ptr %2, i64 %conv.i84, !llfi_index !997
  %12 = load double, ptr %add.ptr.i.i85, align 8, !tbaa !301, !llfi_index !998
  call void @doProfiling(i32 32)
  %arrayidx7 = getelementptr inbounds [8 x double], ptr %x_local, i64 0, i64 %indvars.iv, !llfi_index !999
  store double %12, ptr %arrayidx7, align 8, !tbaa !301, !llfi_index !1000
  %add.ptr.i.i87 = getelementptr inbounds double, ptr %3, i64 %conv.i84, !llfi_index !1001
  %13 = load double, ptr %add.ptr.i.i87, align 8, !tbaa !301, !llfi_index !1002
  call void @doProfiling(i32 32)
  %arrayidx10 = getelementptr inbounds [8 x double], ptr %y_local, i64 0, i64 %indvars.iv, !llfi_index !1003
  store double %13, ptr %arrayidx10, align 8, !tbaa !301, !llfi_index !1004
  %add.ptr.i.i89 = getelementptr inbounds double, ptr %4, i64 %conv.i84, !llfi_index !1005
  %14 = load double, ptr %add.ptr.i.i89, align 8, !tbaa !301, !llfi_index !1006
  call void @doProfiling(i32 32)
  %arrayidx13 = getelementptr inbounds [8 x double], ptr %z_local, i64 0, i64 %indvars.iv, !llfi_index !1007
  store double %14, ptr %arrayidx13, align 8, !tbaa !301, !llfi_index !1008
  %indvars.iv.next = add nuw nsw i64 %indvars.iv, 1, !llfi_index !1009
  call void @doProfiling(i32 13)
  %exitcond.not = icmp eq i64 %indvars.iv.next, 8, !llfi_index !1010
  call void @doProfiling(i32 53)
  br i1 %exitcond.not, label %for.cond.cleanup3, label %for.body4, !llvm.loop !1011, !llfi_index !1012

for.cond.cleanup41:                               ; preds = %for.body42
  %indvars.iv.next106 = add nuw nsw i64 %indvars.iv105, 1, !llfi_index !1013
  call void @doProfiling(i32 13)
  %exitcond109.not = icmp eq i64 %indvars.iv.next106, %wide.trip.count, !llfi_index !1014
  call void @doProfiling(i32 53)
  br i1 %exitcond109.not, label %for.cond.cleanup, label %for.body, !llvm.loop !1015, !llfi_index !1016

for.body42:                                       ; preds = %for.body42, %for.cond.cleanup3
  %indvars.iv101 = phi i64 [ 0, %for.cond.cleanup3 ], [ %indvars.iv.next102, %for.body42 ], !llfi_index !1017
  call void @doProfiling(i32 55)
  %arrayidx45 = getelementptr inbounds i32, ptr %add.ptr.i.i, i64 %indvars.iv101, !llfi_index !1018
  %15 = load i32, ptr %arrayidx45, align 4, !tbaa !360, !llfi_index !1019
  call void @doProfiling(i32 32)
  %arrayidx47 = getelementptr inbounds [8 x double], ptr %fx_local, i64 0, i64 %indvars.iv101, !llfi_index !1020
  %16 = load double, ptr %arrayidx47, align 8, !tbaa !301, !llfi_index !1021
  call void @doProfiling(i32 32)
  %conv.i90 = sext i32 %15 to i64, !llfi_index !1022
  call void @doProfiling(i32 40)
  %add.ptr.i.i91 = getelementptr inbounds double, ptr %8, i64 %conv.i90, !llfi_index !1023
  %17 = load double, ptr %add.ptr.i.i91, align 8, !tbaa !301, !llfi_index !1024
  call void @doProfiling(i32 32)
  %add = fadd double %16, %17, !llfi_index !1025
  call void @doProfiling(i32 14)
  store double %add, ptr %add.ptr.i.i91, align 8, !tbaa !301, !llfi_index !1026
  %arrayidx50 = getelementptr inbounds [8 x double], ptr %fy_local, i64 0, i64 %indvars.iv101, !llfi_index !1027
  %18 = load double, ptr %arrayidx50, align 8, !tbaa !301, !llfi_index !1028
  call void @doProfiling(i32 32)
  %add.ptr.i.i93 = getelementptr inbounds double, ptr %9, i64 %conv.i90, !llfi_index !1029
  %19 = load double, ptr %add.ptr.i.i93, align 8, !tbaa !301, !llfi_index !1030
  call void @doProfiling(i32 32)
  %add52 = fadd double %18, %19, !llfi_index !1031
  call void @doProfiling(i32 14)
  store double %add52, ptr %add.ptr.i.i93, align 8, !tbaa !301, !llfi_index !1032
  %arrayidx54 = getelementptr inbounds [8 x double], ptr %fz_local, i64 0, i64 %indvars.iv101, !llfi_index !1033
  %20 = load double, ptr %arrayidx54, align 8, !tbaa !301, !llfi_index !1034
  call void @doProfiling(i32 32)
  %add.ptr.i.i95 = getelementptr inbounds double, ptr %10, i64 %conv.i90, !llfi_index !1035
  %21 = load double, ptr %add.ptr.i.i95, align 8, !tbaa !301, !llfi_index !1036
  call void @doProfiling(i32 32)
  %add56 = fadd double %20, %21, !llfi_index !1037
  call void @doProfiling(i32 14)
  store double %add56, ptr %add.ptr.i.i95, align 8, !tbaa !301, !llfi_index !1038
  %indvars.iv.next102 = add nuw nsw i64 %indvars.iv101, 1, !llfi_index !1039
  call void @doProfiling(i32 13)
  %exitcond104.not = icmp eq i64 %indvars.iv.next102, 8, !llfi_index !1040
  call void @doProfiling(i32 53)
  br i1 %exitcond104.not, label %for.cond.cleanup41, label %for.body42, !llvm.loop !1041, !llfi_index !1042
}

; Function Attrs: argmemonly nocallback nofree nosync nounwind willreturn
declare void @llvm.lifetime.start.p0(i64 immarg, ptr nocapture) #12

; Function Attrs: argmemonly nocallback nofree nosync nounwind willreturn
declare void @llvm.lifetime.end.p0(i64 immarg, ptr nocapture) #12

; Function Attrs: mustprogress nofree noinline norecurse nosync nounwind willreturn uwtable
define dso_local void @_Z29CollectDomainNodesToElemNodesPKiPdS1_S1_(ptr nocapture noundef readonly %elemToNode, ptr nocapture noundef writeonly %elemX, ptr nocapture noundef writeonly %elemY, ptr nocapture noundef writeonly %elemZ) local_unnamed_addr #5 {
entry:
  %0 = load i32, ptr %elemToNode, align 4, !tbaa !360, !llfi_index !1043
  call void @doProfiling(i32 32)
  %arrayidx1 = getelementptr inbounds i32, ptr %elemToNode, i64 1, !llfi_index !1044
  %1 = load i32, ptr %arrayidx1, align 4, !tbaa !360, !llfi_index !1045
  call void @doProfiling(i32 32)
  %arrayidx2 = getelementptr inbounds i32, ptr %elemToNode, i64 2, !llfi_index !1046
  %2 = load i32, ptr %arrayidx2, align 4, !tbaa !360, !llfi_index !1047
  call void @doProfiling(i32 32)
  %arrayidx3 = getelementptr inbounds i32, ptr %elemToNode, i64 3, !llfi_index !1048
  %3 = load i32, ptr %arrayidx3, align 4, !tbaa !360, !llfi_index !1049
  call void @doProfiling(i32 32)
  %arrayidx4 = getelementptr inbounds i32, ptr %elemToNode, i64 4, !llfi_index !1050
  %4 = load i32, ptr %arrayidx4, align 4, !tbaa !360, !llfi_index !1051
  call void @doProfiling(i32 32)
  %arrayidx5 = getelementptr inbounds i32, ptr %elemToNode, i64 5, !llfi_index !1052
  %5 = load i32, ptr %arrayidx5, align 4, !tbaa !360, !llfi_index !1053
  call void @doProfiling(i32 32)
  %arrayidx6 = getelementptr inbounds i32, ptr %elemToNode, i64 6, !llfi_index !1054
  %6 = load i32, ptr %arrayidx6, align 4, !tbaa !360, !llfi_index !1055
  call void @doProfiling(i32 32)
  %arrayidx7 = getelementptr inbounds i32, ptr %elemToNode, i64 7, !llfi_index !1056
  %7 = load i32, ptr %arrayidx7, align 4, !tbaa !360, !llfi_index !1057
  call void @doProfiling(i32 32)
  %conv.i = sext i32 %0 to i64, !llfi_index !1058
  call void @doProfiling(i32 40)
  %8 = load ptr, ptr @mesh, align 8, !tbaa !11, !llfi_index !1059
  call void @doProfiling(i32 32)
  %add.ptr.i.i = getelementptr inbounds double, ptr %8, i64 %conv.i, !llfi_index !1060
  %9 = load double, ptr %add.ptr.i.i, align 8, !tbaa !301, !llfi_index !1061
  call void @doProfiling(i32 32)
  store double %9, ptr %elemX, align 8, !tbaa !301, !llfi_index !1062
  %conv.i99 = sext i32 %1 to i64, !llfi_index !1063
  call void @doProfiling(i32 40)
  %add.ptr.i.i100 = getelementptr inbounds double, ptr %8, i64 %conv.i99, !llfi_index !1064
  %10 = load double, ptr %add.ptr.i.i100, align 8, !tbaa !301, !llfi_index !1065
  call void @doProfiling(i32 32)
  %arrayidx10 = getelementptr inbounds double, ptr %elemX, i64 1, !llfi_index !1066
  store double %10, ptr %arrayidx10, align 8, !tbaa !301, !llfi_index !1067
  %conv.i101 = sext i32 %2 to i64, !llfi_index !1068
  call void @doProfiling(i32 40)
  %add.ptr.i.i102 = getelementptr inbounds double, ptr %8, i64 %conv.i101, !llfi_index !1069
  %11 = load double, ptr %add.ptr.i.i102, align 8, !tbaa !301, !llfi_index !1070
  call void @doProfiling(i32 32)
  %arrayidx12 = getelementptr inbounds double, ptr %elemX, i64 2, !llfi_index !1071
  store double %11, ptr %arrayidx12, align 8, !tbaa !301, !llfi_index !1072
  %conv.i103 = sext i32 %3 to i64, !llfi_index !1073
  call void @doProfiling(i32 40)
  %add.ptr.i.i104 = getelementptr inbounds double, ptr %8, i64 %conv.i103, !llfi_index !1074
  %12 = load double, ptr %add.ptr.i.i104, align 8, !tbaa !301, !llfi_index !1075
  call void @doProfiling(i32 32)
  %arrayidx14 = getelementptr inbounds double, ptr %elemX, i64 3, !llfi_index !1076
  store double %12, ptr %arrayidx14, align 8, !tbaa !301, !llfi_index !1077
  %conv.i105 = sext i32 %4 to i64, !llfi_index !1078
  call void @doProfiling(i32 40)
  %add.ptr.i.i106 = getelementptr inbounds double, ptr %8, i64 %conv.i105, !llfi_index !1079
  %13 = load double, ptr %add.ptr.i.i106, align 8, !tbaa !301, !llfi_index !1080
  call void @doProfiling(i32 32)
  %arrayidx16 = getelementptr inbounds double, ptr %elemX, i64 4, !llfi_index !1081
  store double %13, ptr %arrayidx16, align 8, !tbaa !301, !llfi_index !1082
  %conv.i107 = sext i32 %5 to i64, !llfi_index !1083
  call void @doProfiling(i32 40)
  %add.ptr.i.i108 = getelementptr inbounds double, ptr %8, i64 %conv.i107, !llfi_index !1084
  %14 = load double, ptr %add.ptr.i.i108, align 8, !tbaa !301, !llfi_index !1085
  call void @doProfiling(i32 32)
  %arrayidx18 = getelementptr inbounds double, ptr %elemX, i64 5, !llfi_index !1086
  store double %14, ptr %arrayidx18, align 8, !tbaa !301, !llfi_index !1087
  %conv.i109 = sext i32 %6 to i64, !llfi_index !1088
  call void @doProfiling(i32 40)
  %add.ptr.i.i110 = getelementptr inbounds double, ptr %8, i64 %conv.i109, !llfi_index !1089
  %15 = load double, ptr %add.ptr.i.i110, align 8, !tbaa !301, !llfi_index !1090
  call void @doProfiling(i32 32)
  %arrayidx20 = getelementptr inbounds double, ptr %elemX, i64 6, !llfi_index !1091
  store double %15, ptr %arrayidx20, align 8, !tbaa !301, !llfi_index !1092
  %conv.i111 = sext i32 %7 to i64, !llfi_index !1093
  call void @doProfiling(i32 40)
  %add.ptr.i.i112 = getelementptr inbounds double, ptr %8, i64 %conv.i111, !llfi_index !1094
  %16 = load double, ptr %add.ptr.i.i112, align 8, !tbaa !301, !llfi_index !1095
  call void @doProfiling(i32 32)
  %arrayidx22 = getelementptr inbounds double, ptr %elemX, i64 7, !llfi_index !1096
  store double %16, ptr %arrayidx22, align 8, !tbaa !301, !llfi_index !1097
  %17 = load ptr, ptr getelementptr inbounds (%struct.Mesh, ptr @mesh, i64 0, i32 1), align 8, !tbaa !11, !llfi_index !1098
  call void @doProfiling(i32 32)
  %add.ptr.i.i114 = getelementptr inbounds double, ptr %17, i64 %conv.i, !llfi_index !1099
  %18 = load double, ptr %add.ptr.i.i114, align 8, !tbaa !301, !llfi_index !1100
  call void @doProfiling(i32 32)
  store double %18, ptr %elemY, align 8, !tbaa !301, !llfi_index !1101
  %add.ptr.i.i116 = getelementptr inbounds double, ptr %17, i64 %conv.i99, !llfi_index !1102
  %19 = load double, ptr %add.ptr.i.i116, align 8, !tbaa !301, !llfi_index !1103
  call void @doProfiling(i32 32)
  %arrayidx26 = getelementptr inbounds double, ptr %elemY, i64 1, !llfi_index !1104
  store double %19, ptr %arrayidx26, align 8, !tbaa !301, !llfi_index !1105
  %add.ptr.i.i118 = getelementptr inbounds double, ptr %17, i64 %conv.i101, !llfi_index !1106
  %20 = load double, ptr %add.ptr.i.i118, align 8, !tbaa !301, !llfi_index !1107
  call void @doProfiling(i32 32)
  %arrayidx28 = getelementptr inbounds double, ptr %elemY, i64 2, !llfi_index !1108
  store double %20, ptr %arrayidx28, align 8, !tbaa !301, !llfi_index !1109
  %add.ptr.i.i120 = getelementptr inbounds double, ptr %17, i64 %conv.i103, !llfi_index !1110
  %21 = load double, ptr %add.ptr.i.i120, align 8, !tbaa !301, !llfi_index !1111
  call void @doProfiling(i32 32)
  %arrayidx30 = getelementptr inbounds double, ptr %elemY, i64 3, !llfi_index !1112
  store double %21, ptr %arrayidx30, align 8, !tbaa !301, !llfi_index !1113
  %add.ptr.i.i122 = getelementptr inbounds double, ptr %17, i64 %conv.i105, !llfi_index !1114
  %22 = load double, ptr %add.ptr.i.i122, align 8, !tbaa !301, !llfi_index !1115
  call void @doProfiling(i32 32)
  %arrayidx32 = getelementptr inbounds double, ptr %elemY, i64 4, !llfi_index !1116
  store double %22, ptr %arrayidx32, align 8, !tbaa !301, !llfi_index !1117
  %add.ptr.i.i124 = getelementptr inbounds double, ptr %17, i64 %conv.i107, !llfi_index !1118
  %23 = load double, ptr %add.ptr.i.i124, align 8, !tbaa !301, !llfi_index !1119
  call void @doProfiling(i32 32)
  %arrayidx34 = getelementptr inbounds double, ptr %elemY, i64 5, !llfi_index !1120
  store double %23, ptr %arrayidx34, align 8, !tbaa !301, !llfi_index !1121
  %add.ptr.i.i126 = getelementptr inbounds double, ptr %17, i64 %conv.i109, !llfi_index !1122
  %24 = load double, ptr %add.ptr.i.i126, align 8, !tbaa !301, !llfi_index !1123
  call void @doProfiling(i32 32)
  %arrayidx36 = getelementptr inbounds double, ptr %elemY, i64 6, !llfi_index !1124
  store double %24, ptr %arrayidx36, align 8, !tbaa !301, !llfi_index !1125
  %add.ptr.i.i128 = getelementptr inbounds double, ptr %17, i64 %conv.i111, !llfi_index !1126
  %25 = load double, ptr %add.ptr.i.i128, align 8, !tbaa !301, !llfi_index !1127
  call void @doProfiling(i32 32)
  %arrayidx38 = getelementptr inbounds double, ptr %elemY, i64 7, !llfi_index !1128
  store double %25, ptr %arrayidx38, align 8, !tbaa !301, !llfi_index !1129
  %26 = load ptr, ptr getelementptr inbounds (%struct.Mesh, ptr @mesh, i64 0, i32 2), align 8, !tbaa !11, !llfi_index !1130
  call void @doProfiling(i32 32)
  %add.ptr.i.i130 = getelementptr inbounds double, ptr %26, i64 %conv.i, !llfi_index !1131
  %27 = load double, ptr %add.ptr.i.i130, align 8, !tbaa !301, !llfi_index !1132
  call void @doProfiling(i32 32)
  store double %27, ptr %elemZ, align 8, !tbaa !301, !llfi_index !1133
  %add.ptr.i.i132 = getelementptr inbounds double, ptr %26, i64 %conv.i99, !llfi_index !1134
  %28 = load double, ptr %add.ptr.i.i132, align 8, !tbaa !301, !llfi_index !1135
  call void @doProfiling(i32 32)
  %arrayidx42 = getelementptr inbounds double, ptr %elemZ, i64 1, !llfi_index !1136
  store double %28, ptr %arrayidx42, align 8, !tbaa !301, !llfi_index !1137
  %add.ptr.i.i134 = getelementptr inbounds double, ptr %26, i64 %conv.i101, !llfi_index !1138
  %29 = load double, ptr %add.ptr.i.i134, align 8, !tbaa !301, !llfi_index !1139
  call void @doProfiling(i32 32)
  %arrayidx44 = getelementptr inbounds double, ptr %elemZ, i64 2, !llfi_index !1140
  store double %29, ptr %arrayidx44, align 8, !tbaa !301, !llfi_index !1141
  %add.ptr.i.i136 = getelementptr inbounds double, ptr %26, i64 %conv.i103, !llfi_index !1142
  %30 = load double, ptr %add.ptr.i.i136, align 8, !tbaa !301, !llfi_index !1143
  call void @doProfiling(i32 32)
  %arrayidx46 = getelementptr inbounds double, ptr %elemZ, i64 3, !llfi_index !1144
  store double %30, ptr %arrayidx46, align 8, !tbaa !301, !llfi_index !1145
  %add.ptr.i.i138 = getelementptr inbounds double, ptr %26, i64 %conv.i105, !llfi_index !1146
  %31 = load double, ptr %add.ptr.i.i138, align 8, !tbaa !301, !llfi_index !1147
  call void @doProfiling(i32 32)
  %arrayidx48 = getelementptr inbounds double, ptr %elemZ, i64 4, !llfi_index !1148
  store double %31, ptr %arrayidx48, align 8, !tbaa !301, !llfi_index !1149
  %add.ptr.i.i140 = getelementptr inbounds double, ptr %26, i64 %conv.i107, !llfi_index !1150
  %32 = load double, ptr %add.ptr.i.i140, align 8, !tbaa !301, !llfi_index !1151
  call void @doProfiling(i32 32)
  %arrayidx50 = getelementptr inbounds double, ptr %elemZ, i64 5, !llfi_index !1152
  store double %32, ptr %arrayidx50, align 8, !tbaa !301, !llfi_index !1153
  %add.ptr.i.i142 = getelementptr inbounds double, ptr %26, i64 %conv.i109, !llfi_index !1154
  %33 = load double, ptr %add.ptr.i.i142, align 8, !tbaa !301, !llfi_index !1155
  call void @doProfiling(i32 32)
  %arrayidx52 = getelementptr inbounds double, ptr %elemZ, i64 6, !llfi_index !1156
  store double %33, ptr %arrayidx52, align 8, !tbaa !301, !llfi_index !1157
  %add.ptr.i.i144 = getelementptr inbounds double, ptr %26, i64 %conv.i111, !llfi_index !1158
  %34 = load double, ptr %add.ptr.i.i144, align 8, !tbaa !301, !llfi_index !1159
  call void @doProfiling(i32 32)
  %arrayidx54 = getelementptr inbounds double, ptr %elemZ, i64 7, !llfi_index !1160
  store double %34, ptr %arrayidx54, align 8, !tbaa !301, !llfi_index !1161
  ret void, !llfi_index !1162
}

; Function Attrs: argmemonly mustprogress nofree noinline nosync nounwind willreturn uwtable
define dso_local void @_Z7VoluDerddddddddddddddddddPdS_S_(double noundef %x0, double noundef %x1, double noundef %x2, double noundef %x3, double noundef %x4, double noundef %x5, double noundef %y0, double noundef %y1, double noundef %y2, double noundef %y3, double noundef %y4, double noundef %y5, double noundef %z0, double noundef %z1, double noundef %z2, double noundef %z3, double noundef %z4, double noundef %z5, ptr nocapture noundef %dvdx, ptr nocapture noundef %dvdy, ptr nocapture noundef %dvdz) local_unnamed_addr #7 {
entry:
  %add = fadd double %y1, %y2, !llfi_index !1163
  call void @doProfiling(i32 14)
  %add1 = fadd double %z0, %z1, !llfi_index !1164
  call void @doProfiling(i32 14)
  %add2 = fadd double %y0, %y1, !llfi_index !1165
  call void @doProfiling(i32 14)
  %add3 = fadd double %z1, %z2, !llfi_index !1166
  call void @doProfiling(i32 14)
  %0 = fneg double %add2, !llfi_index !1167
  call void @doProfiling(i32 12)
  %neg = fmul double %add3, %0, !llfi_index !1168
  call void @doProfiling(i32 18)
  %1 = call double @llvm.fmuladd.f64(double %add, double %add1, double %neg), !llfi_index !1169
  call void @doProfiling(i32 56)
  %add5 = fadd double %y0, %y4, !llfi_index !1170
  call void @doProfiling(i32 14)
  %add6 = fadd double %z3, %z4, !llfi_index !1171
  call void @doProfiling(i32 14)
  %2 = call double @llvm.fmuladd.f64(double %add5, double %add6, double %1), !llfi_index !1172
  call void @doProfiling(i32 56)
  %add7 = fadd double %y3, %y4, !llfi_index !1173
  call void @doProfiling(i32 14)
  %add8 = fadd double %z0, %z4, !llfi_index !1174
  call void @doProfiling(i32 14)
  %neg9 = fneg double %add7, !llfi_index !1175
  call void @doProfiling(i32 12)
  %3 = call double @llvm.fmuladd.f64(double %neg9, double %add8, double %2), !llfi_index !1176
  call void @doProfiling(i32 56)
  %add10 = fadd double %y2, %y5, !llfi_index !1177
  call void @doProfiling(i32 14)
  %add11 = fadd double %z3, %z5, !llfi_index !1178
  call void @doProfiling(i32 14)
  %neg12 = fneg double %add10, !llfi_index !1179
  call void @doProfiling(i32 12)
  %4 = call double @llvm.fmuladd.f64(double %neg12, double %add11, double %3), !llfi_index !1180
  call void @doProfiling(i32 56)
  %add13 = fadd double %y3, %y5, !llfi_index !1181
  call void @doProfiling(i32 14)
  %add14 = fadd double %z2, %z5, !llfi_index !1182
  call void @doProfiling(i32 14)
  %5 = call double @llvm.fmuladd.f64(double %add13, double %add14, double %4), !llfi_index !1183
  call void @doProfiling(i32 56)
  store double %5, ptr %dvdx, align 8, !tbaa !301, !llfi_index !1184
  %add15 = fadd double %x1, %x2, !llfi_index !1185
  call void @doProfiling(i32 14)
  %fneg = fneg double %add15, !llfi_index !1186
  call void @doProfiling(i32 12)
  %add17 = fadd double %x0, %x1, !llfi_index !1187
  call void @doProfiling(i32 14)
  %mul19 = fmul double %add17, %add3, !llfi_index !1188
  call void @doProfiling(i32 18)
  %6 = call double @llvm.fmuladd.f64(double %fneg, double %add1, double %mul19), !llfi_index !1189
  call void @doProfiling(i32 56)
  %add20 = fadd double %x0, %x4, !llfi_index !1190
  call void @doProfiling(i32 14)
  %neg22 = fneg double %add20, !llfi_index !1191
  call void @doProfiling(i32 12)
  %7 = call double @llvm.fmuladd.f64(double %neg22, double %add6, double %6), !llfi_index !1192
  call void @doProfiling(i32 56)
  %add23 = fadd double %x3, %x4, !llfi_index !1193
  call void @doProfiling(i32 14)
  %8 = call double @llvm.fmuladd.f64(double %add23, double %add8, double %7), !llfi_index !1194
  call void @doProfiling(i32 56)
  %add25 = fadd double %x2, %x5, !llfi_index !1195
  call void @doProfiling(i32 14)
  %9 = call double @llvm.fmuladd.f64(double %add25, double %add11, double %8), !llfi_index !1196
  call void @doProfiling(i32 56)
  %add27 = fadd double %x3, %x5, !llfi_index !1197
  call void @doProfiling(i32 14)
  %neg29 = fneg double %add27, !llfi_index !1198
  call void @doProfiling(i32 12)
  %10 = call double @llvm.fmuladd.f64(double %neg29, double %add14, double %9), !llfi_index !1199
  call void @doProfiling(i32 56)
  store double %10, ptr %dvdy, align 8, !tbaa !301, !llfi_index !1200
  %fneg31 = fneg double %add, !llfi_index !1201
  call void @doProfiling(i32 12)
  %mul35 = fmul double %add15, %add2, !llfi_index !1202
  call void @doProfiling(i32 18)
  %11 = call double @llvm.fmuladd.f64(double %fneg31, double %add17, double %mul35), !llfi_index !1203
  call void @doProfiling(i32 56)
  %neg38 = fneg double %add5, !llfi_index !1204
  call void @doProfiling(i32 12)
  %12 = call double @llvm.fmuladd.f64(double %neg38, double %add23, double %11), !llfi_index !1205
  call void @doProfiling(i32 56)
  %13 = call double @llvm.fmuladd.f64(double %add7, double %add20, double %12), !llfi_index !1206
  call void @doProfiling(i32 56)
  %14 = call double @llvm.fmuladd.f64(double %add10, double %add27, double %13), !llfi_index !1207
  call void @doProfiling(i32 56)
  %neg45 = fneg double %add13, !llfi_index !1208
  call void @doProfiling(i32 12)
  %15 = call double @llvm.fmuladd.f64(double %neg45, double %add25, double %14), !llfi_index !1209
  call void @doProfiling(i32 56)
  store double %15, ptr %dvdz, align 8, !tbaa !301, !llfi_index !1210
  %16 = load double, ptr %dvdx, align 8, !tbaa !301, !llfi_index !1211
  call void @doProfiling(i32 32)
  %mul = fmul double %16, 0x3FB5555555555555, !llfi_index !1212
  call void @doProfiling(i32 18)
  store double %mul, ptr %dvdx, align 8, !tbaa !301, !llfi_index !1213
  %17 = load double, ptr %dvdy, align 8, !tbaa !301, !llfi_index !1214
  call void @doProfiling(i32 32)
  %mul46 = fmul double %17, 0x3FB5555555555555, !llfi_index !1215
  call void @doProfiling(i32 18)
  store double %mul46, ptr %dvdy, align 8, !tbaa !301, !llfi_index !1216
  %18 = load double, ptr %dvdz, align 8, !tbaa !301, !llfi_index !1217
  call void @doProfiling(i32 32)
  %mul47 = fmul double %18, 0x3FB5555555555555, !llfi_index !1218
  call void @doProfiling(i32 18)
  store double %mul47, ptr %dvdz, align 8, !tbaa !301, !llfi_index !1219
  ret void, !llfi_index !1220
}

; Function Attrs: argmemonly mustprogress nofree noinline nosync nounwind willreturn uwtable
define dso_local void @_Z24CalcElemVolumeDerivativePdS_S_PKdS1_S1_(ptr nocapture noundef %dvdx, ptr nocapture noundef %dvdy, ptr nocapture noundef %dvdz, ptr nocapture noundef readonly %x, ptr nocapture noundef readonly %y, ptr nocapture noundef readonly %z) local_unnamed_addr #7 {
entry:
  %arrayidx = getelementptr inbounds double, ptr %x, i64 1, !llfi_index !1221
  %0 = load double, ptr %arrayidx, align 8, !tbaa !301, !llfi_index !1222
  call void @doProfiling(i32 32)
  %arrayidx1 = getelementptr inbounds double, ptr %x, i64 2, !llfi_index !1223
  %1 = load double, ptr %arrayidx1, align 8, !tbaa !301, !llfi_index !1224
  call void @doProfiling(i32 32)
  %arrayidx2 = getelementptr inbounds double, ptr %x, i64 3, !llfi_index !1225
  %2 = load double, ptr %arrayidx2, align 8, !tbaa !301, !llfi_index !1226
  call void @doProfiling(i32 32)
  %arrayidx3 = getelementptr inbounds double, ptr %x, i64 4, !llfi_index !1227
  %3 = load double, ptr %arrayidx3, align 8, !tbaa !301, !llfi_index !1228
  call void @doProfiling(i32 32)
  %arrayidx4 = getelementptr inbounds double, ptr %x, i64 5, !llfi_index !1229
  %4 = load double, ptr %arrayidx4, align 8, !tbaa !301, !llfi_index !1230
  call void @doProfiling(i32 32)
  %arrayidx5 = getelementptr inbounds double, ptr %x, i64 7, !llfi_index !1231
  %5 = load double, ptr %arrayidx5, align 8, !tbaa !301, !llfi_index !1232
  call void @doProfiling(i32 32)
  %arrayidx6 = getelementptr inbounds double, ptr %y, i64 1, !llfi_index !1233
  %6 = load double, ptr %arrayidx6, align 8, !tbaa !301, !llfi_index !1234
  call void @doProfiling(i32 32)
  %arrayidx7 = getelementptr inbounds double, ptr %y, i64 2, !llfi_index !1235
  %7 = load double, ptr %arrayidx7, align 8, !tbaa !301, !llfi_index !1236
  call void @doProfiling(i32 32)
  %arrayidx8 = getelementptr inbounds double, ptr %y, i64 3, !llfi_index !1237
  %8 = load double, ptr %arrayidx8, align 8, !tbaa !301, !llfi_index !1238
  call void @doProfiling(i32 32)
  %arrayidx9 = getelementptr inbounds double, ptr %y, i64 4, !llfi_index !1239
  %9 = load double, ptr %arrayidx9, align 8, !tbaa !301, !llfi_index !1240
  call void @doProfiling(i32 32)
  %arrayidx10 = getelementptr inbounds double, ptr %y, i64 5, !llfi_index !1241
  %10 = load double, ptr %arrayidx10, align 8, !tbaa !301, !llfi_index !1242
  call void @doProfiling(i32 32)
  %arrayidx11 = getelementptr inbounds double, ptr %y, i64 7, !llfi_index !1243
  %11 = load double, ptr %arrayidx11, align 8, !tbaa !301, !llfi_index !1244
  call void @doProfiling(i32 32)
  %arrayidx12 = getelementptr inbounds double, ptr %z, i64 1, !llfi_index !1245
  %12 = load double, ptr %arrayidx12, align 8, !tbaa !301, !llfi_index !1246
  call void @doProfiling(i32 32)
  %arrayidx13 = getelementptr inbounds double, ptr %z, i64 2, !llfi_index !1247
  %13 = load double, ptr %arrayidx13, align 8, !tbaa !301, !llfi_index !1248
  call void @doProfiling(i32 32)
  %arrayidx14 = getelementptr inbounds double, ptr %z, i64 3, !llfi_index !1249
  %14 = load double, ptr %arrayidx14, align 8, !tbaa !301, !llfi_index !1250
  call void @doProfiling(i32 32)
  %arrayidx15 = getelementptr inbounds double, ptr %z, i64 4, !llfi_index !1251
  %15 = load double, ptr %arrayidx15, align 8, !tbaa !301, !llfi_index !1252
  call void @doProfiling(i32 32)
  %arrayidx16 = getelementptr inbounds double, ptr %z, i64 5, !llfi_index !1253
  %16 = load double, ptr %arrayidx16, align 8, !tbaa !301, !llfi_index !1254
  call void @doProfiling(i32 32)
  %arrayidx17 = getelementptr inbounds double, ptr %z, i64 7, !llfi_index !1255
  %17 = load double, ptr %arrayidx17, align 8, !tbaa !301, !llfi_index !1256
  call void @doProfiling(i32 32)
  call void @_Z7VoluDerddddddddddddddddddPdS_S_(double noundef %0, double noundef %1, double noundef %2, double noundef %3, double noundef %4, double noundef %5, double noundef %6, double noundef %7, double noundef %8, double noundef %9, double noundef %10, double noundef %11, double noundef %12, double noundef %13, double noundef %14, double noundef %15, double noundef %16, double noundef %17, ptr noundef %dvdx, ptr noundef %dvdy, ptr noundef %dvdz), !llfi_index !1257
  %18 = load double, ptr %x, align 8, !tbaa !301, !llfi_index !1258
  call void @doProfiling(i32 32)
  %19 = load double, ptr %arrayidx, align 8, !tbaa !301, !llfi_index !1259
  call void @doProfiling(i32 32)
  %20 = load double, ptr %arrayidx1, align 8, !tbaa !301, !llfi_index !1260
  call void @doProfiling(i32 32)
  %21 = load double, ptr %arrayidx5, align 8, !tbaa !301, !llfi_index !1261
  call void @doProfiling(i32 32)
  %22 = load double, ptr %arrayidx3, align 8, !tbaa !301, !llfi_index !1262
  call void @doProfiling(i32 32)
  %arrayidx26 = getelementptr inbounds double, ptr %x, i64 6, !llfi_index !1263
  %23 = load double, ptr %arrayidx26, align 8, !tbaa !301, !llfi_index !1264
  call void @doProfiling(i32 32)
  %24 = load double, ptr %y, align 8, !tbaa !301, !llfi_index !1265
  call void @doProfiling(i32 32)
  %25 = load double, ptr %arrayidx6, align 8, !tbaa !301, !llfi_index !1266
  call void @doProfiling(i32 32)
  %26 = load double, ptr %arrayidx7, align 8, !tbaa !301, !llfi_index !1267
  call void @doProfiling(i32 32)
  %27 = load double, ptr %arrayidx11, align 8, !tbaa !301, !llfi_index !1268
  call void @doProfiling(i32 32)
  %28 = load double, ptr %arrayidx9, align 8, !tbaa !301, !llfi_index !1269
  call void @doProfiling(i32 32)
  %arrayidx32 = getelementptr inbounds double, ptr %y, i64 6, !llfi_index !1270
  %29 = load double, ptr %arrayidx32, align 8, !tbaa !301, !llfi_index !1271
  call void @doProfiling(i32 32)
  %30 = load double, ptr %z, align 8, !tbaa !301, !llfi_index !1272
  call void @doProfiling(i32 32)
  %31 = load double, ptr %arrayidx12, align 8, !tbaa !301, !llfi_index !1273
  call void @doProfiling(i32 32)
  %32 = load double, ptr %arrayidx13, align 8, !tbaa !301, !llfi_index !1274
  call void @doProfiling(i32 32)
  %33 = load double, ptr %arrayidx17, align 8, !tbaa !301, !llfi_index !1275
  call void @doProfiling(i32 32)
  %34 = load double, ptr %arrayidx15, align 8, !tbaa !301, !llfi_index !1276
  call void @doProfiling(i32 32)
  %arrayidx38 = getelementptr inbounds double, ptr %z, i64 6, !llfi_index !1277
  %35 = load double, ptr %arrayidx38, align 8, !tbaa !301, !llfi_index !1278
  call void @doProfiling(i32 32)
  %arrayidx39 = getelementptr inbounds double, ptr %dvdx, i64 3, !llfi_index !1279
  %arrayidx40 = getelementptr inbounds double, ptr %dvdy, i64 3, !llfi_index !1280
  %arrayidx41 = getelementptr inbounds double, ptr %dvdz, i64 3, !llfi_index !1281
  call void @_Z7VoluDerddddddddddddddddddPdS_S_(double noundef %18, double noundef %19, double noundef %20, double noundef %21, double noundef %22, double noundef %23, double noundef %24, double noundef %25, double noundef %26, double noundef %27, double noundef %28, double noundef %29, double noundef %30, double noundef %31, double noundef %32, double noundef %33, double noundef %34, double noundef %35, ptr noundef nonnull %arrayidx39, ptr noundef nonnull %arrayidx40, ptr noundef nonnull %arrayidx41), !llfi_index !1282
  %36 = load double, ptr %arrayidx2, align 8, !tbaa !301, !llfi_index !1283
  call void @doProfiling(i32 32)
  %37 = load double, ptr %x, align 8, !tbaa !301, !llfi_index !1284
  call void @doProfiling(i32 32)
  %38 = load double, ptr %arrayidx, align 8, !tbaa !301, !llfi_index !1285
  call void @doProfiling(i32 32)
  %39 = load double, ptr %arrayidx26, align 8, !tbaa !301, !llfi_index !1286
  call void @doProfiling(i32 32)
  %40 = load double, ptr %arrayidx5, align 8, !tbaa !301, !llfi_index !1287
  call void @doProfiling(i32 32)
  %41 = load double, ptr %arrayidx4, align 8, !tbaa !301, !llfi_index !1288
  call void @doProfiling(i32 32)
  %42 = load double, ptr %arrayidx8, align 8, !tbaa !301, !llfi_index !1289
  call void @doProfiling(i32 32)
  %43 = load double, ptr %y, align 8, !tbaa !301, !llfi_index !1290
  call void @doProfiling(i32 32)
  %44 = load double, ptr %arrayidx6, align 8, !tbaa !301, !llfi_index !1291
  call void @doProfiling(i32 32)
  %45 = load double, ptr %arrayidx32, align 8, !tbaa !301, !llfi_index !1292
  call void @doProfiling(i32 32)
  %46 = load double, ptr %arrayidx11, align 8, !tbaa !301, !llfi_index !1293
  call void @doProfiling(i32 32)
  %47 = load double, ptr %arrayidx10, align 8, !tbaa !301, !llfi_index !1294
  call void @doProfiling(i32 32)
  %48 = load double, ptr %arrayidx14, align 8, !tbaa !301, !llfi_index !1295
  call void @doProfiling(i32 32)
  %49 = load double, ptr %z, align 8, !tbaa !301, !llfi_index !1296
  call void @doProfiling(i32 32)
  %50 = load double, ptr %arrayidx12, align 8, !tbaa !301, !llfi_index !1297
  call void @doProfiling(i32 32)
  %51 = load double, ptr %arrayidx38, align 8, !tbaa !301, !llfi_index !1298
  call void @doProfiling(i32 32)
  %52 = load double, ptr %arrayidx17, align 8, !tbaa !301, !llfi_index !1299
  call void @doProfiling(i32 32)
  %53 = load double, ptr %arrayidx16, align 8, !tbaa !301, !llfi_index !1300
  call void @doProfiling(i32 32)
  %arrayidx60 = getelementptr inbounds double, ptr %dvdx, i64 2, !llfi_index !1301
  %arrayidx61 = getelementptr inbounds double, ptr %dvdy, i64 2, !llfi_index !1302
  %arrayidx62 = getelementptr inbounds double, ptr %dvdz, i64 2, !llfi_index !1303
  call void @_Z7VoluDerddddddddddddddddddPdS_S_(double noundef %36, double noundef %37, double noundef %38, double noundef %39, double noundef %40, double noundef %41, double noundef %42, double noundef %43, double noundef %44, double noundef %45, double noundef %46, double noundef %47, double noundef %48, double noundef %49, double noundef %50, double noundef %51, double noundef %52, double noundef %53, ptr noundef nonnull %arrayidx60, ptr noundef nonnull %arrayidx61, ptr noundef nonnull %arrayidx62), !llfi_index !1304
  %54 = load double, ptr %arrayidx1, align 8, !tbaa !301, !llfi_index !1305
  call void @doProfiling(i32 32)
  %55 = load double, ptr %arrayidx2, align 8, !tbaa !301, !llfi_index !1306
  call void @doProfiling(i32 32)
  %56 = load double, ptr %x, align 8, !tbaa !301, !llfi_index !1307
  call void @doProfiling(i32 32)
  %57 = load double, ptr %arrayidx4, align 8, !tbaa !301, !llfi_index !1308
  call void @doProfiling(i32 32)
  %58 = load double, ptr %arrayidx26, align 8, !tbaa !301, !llfi_index !1309
  call void @doProfiling(i32 32)
  %59 = load double, ptr %arrayidx3, align 8, !tbaa !301, !llfi_index !1310
  call void @doProfiling(i32 32)
  %60 = load double, ptr %arrayidx7, align 8, !tbaa !301, !llfi_index !1311
  call void @doProfiling(i32 32)
  %61 = load double, ptr %arrayidx8, align 8, !tbaa !301, !llfi_index !1312
  call void @doProfiling(i32 32)
  %62 = load double, ptr %y, align 8, !tbaa !301, !llfi_index !1313
  call void @doProfiling(i32 32)
  %63 = load double, ptr %arrayidx10, align 8, !tbaa !301, !llfi_index !1314
  call void @doProfiling(i32 32)
  %64 = load double, ptr %arrayidx32, align 8, !tbaa !301, !llfi_index !1315
  call void @doProfiling(i32 32)
  %65 = load double, ptr %arrayidx9, align 8, !tbaa !301, !llfi_index !1316
  call void @doProfiling(i32 32)
  %66 = load double, ptr %arrayidx13, align 8, !tbaa !301, !llfi_index !1317
  call void @doProfiling(i32 32)
  %67 = load double, ptr %arrayidx14, align 8, !tbaa !301, !llfi_index !1318
  call void @doProfiling(i32 32)
  %68 = load double, ptr %z, align 8, !tbaa !301, !llfi_index !1319
  call void @doProfiling(i32 32)
  %69 = load double, ptr %arrayidx16, align 8, !tbaa !301, !llfi_index !1320
  call void @doProfiling(i32 32)
  %70 = load double, ptr %arrayidx38, align 8, !tbaa !301, !llfi_index !1321
  call void @doProfiling(i32 32)
  %71 = load double, ptr %arrayidx15, align 8, !tbaa !301, !llfi_index !1322
  call void @doProfiling(i32 32)
  %arrayidx81 = getelementptr inbounds double, ptr %dvdx, i64 1, !llfi_index !1323
  %arrayidx82 = getelementptr inbounds double, ptr %dvdy, i64 1, !llfi_index !1324
  %arrayidx83 = getelementptr inbounds double, ptr %dvdz, i64 1, !llfi_index !1325
  call void @_Z7VoluDerddddddddddddddddddPdS_S_(double noundef %54, double noundef %55, double noundef %56, double noundef %57, double noundef %58, double noundef %59, double noundef %60, double noundef %61, double noundef %62, double noundef %63, double noundef %64, double noundef %65, double noundef %66, double noundef %67, double noundef %68, double noundef %69, double noundef %70, double noundef %71, ptr noundef nonnull %arrayidx81, ptr noundef nonnull %arrayidx82, ptr noundef nonnull %arrayidx83), !llfi_index !1326
  %72 = load double, ptr %arrayidx5, align 8, !tbaa !301, !llfi_index !1327
  call void @doProfiling(i32 32)
  %73 = load double, ptr %arrayidx26, align 8, !tbaa !301, !llfi_index !1328
  call void @doProfiling(i32 32)
  %74 = load double, ptr %arrayidx4, align 8, !tbaa !301, !llfi_index !1329
  call void @doProfiling(i32 32)
  %75 = load double, ptr %x, align 8, !tbaa !301, !llfi_index !1330
  call void @doProfiling(i32 32)
  %76 = load double, ptr %arrayidx2, align 8, !tbaa !301, !llfi_index !1331
  call void @doProfiling(i32 32)
  %77 = load double, ptr %arrayidx, align 8, !tbaa !301, !llfi_index !1332
  call void @doProfiling(i32 32)
  %78 = load double, ptr %arrayidx11, align 8, !tbaa !301, !llfi_index !1333
  call void @doProfiling(i32 32)
  %79 = load double, ptr %arrayidx32, align 8, !tbaa !301, !llfi_index !1334
  call void @doProfiling(i32 32)
  %80 = load double, ptr %arrayidx10, align 8, !tbaa !301, !llfi_index !1335
  call void @doProfiling(i32 32)
  %81 = load double, ptr %y, align 8, !tbaa !301, !llfi_index !1336
  call void @doProfiling(i32 32)
  %82 = load double, ptr %arrayidx8, align 8, !tbaa !301, !llfi_index !1337
  call void @doProfiling(i32 32)
  %83 = load double, ptr %arrayidx6, align 8, !tbaa !301, !llfi_index !1338
  call void @doProfiling(i32 32)
  %84 = load double, ptr %arrayidx17, align 8, !tbaa !301, !llfi_index !1339
  call void @doProfiling(i32 32)
  %85 = load double, ptr %arrayidx38, align 8, !tbaa !301, !llfi_index !1340
  call void @doProfiling(i32 32)
  %86 = load double, ptr %arrayidx16, align 8, !tbaa !301, !llfi_index !1341
  call void @doProfiling(i32 32)
  %87 = load double, ptr %z, align 8, !tbaa !301, !llfi_index !1342
  call void @doProfiling(i32 32)
  %88 = load double, ptr %arrayidx14, align 8, !tbaa !301, !llfi_index !1343
  call void @doProfiling(i32 32)
  %89 = load double, ptr %arrayidx12, align 8, !tbaa !301, !llfi_index !1344
  call void @doProfiling(i32 32)
  %arrayidx102 = getelementptr inbounds double, ptr %dvdx, i64 4, !llfi_index !1345
  %arrayidx103 = getelementptr inbounds double, ptr %dvdy, i64 4, !llfi_index !1346
  %arrayidx104 = getelementptr inbounds double, ptr %dvdz, i64 4, !llfi_index !1347
  call void @_Z7VoluDerddddddddddddddddddPdS_S_(double noundef %72, double noundef %73, double noundef %74, double noundef %75, double noundef %76, double noundef %77, double noundef %78, double noundef %79, double noundef %80, double noundef %81, double noundef %82, double noundef %83, double noundef %84, double noundef %85, double noundef %86, double noundef %87, double noundef %88, double noundef %89, ptr noundef nonnull %arrayidx102, ptr noundef nonnull %arrayidx103, ptr noundef nonnull %arrayidx104), !llfi_index !1348
  %90 = load double, ptr %arrayidx3, align 8, !tbaa !301, !llfi_index !1349
  call void @doProfiling(i32 32)
  %91 = load double, ptr %arrayidx5, align 8, !tbaa !301, !llfi_index !1350
  call void @doProfiling(i32 32)
  %92 = load double, ptr %arrayidx26, align 8, !tbaa !301, !llfi_index !1351
  call void @doProfiling(i32 32)
  %93 = load double, ptr %arrayidx, align 8, !tbaa !301, !llfi_index !1352
  call void @doProfiling(i32 32)
  %94 = load double, ptr %x, align 8, !tbaa !301, !llfi_index !1353
  call void @doProfiling(i32 32)
  %95 = load double, ptr %arrayidx1, align 8, !tbaa !301, !llfi_index !1354
  call void @doProfiling(i32 32)
  %96 = load double, ptr %arrayidx9, align 8, !tbaa !301, !llfi_index !1355
  call void @doProfiling(i32 32)
  %97 = load double, ptr %arrayidx11, align 8, !tbaa !301, !llfi_index !1356
  call void @doProfiling(i32 32)
  %98 = load double, ptr %arrayidx32, align 8, !tbaa !301, !llfi_index !1357
  call void @doProfiling(i32 32)
  %99 = load double, ptr %arrayidx6, align 8, !tbaa !301, !llfi_index !1358
  call void @doProfiling(i32 32)
  %100 = load double, ptr %y, align 8, !tbaa !301, !llfi_index !1359
  call void @doProfiling(i32 32)
  %101 = load double, ptr %arrayidx7, align 8, !tbaa !301, !llfi_index !1360
  call void @doProfiling(i32 32)
  %102 = load double, ptr %arrayidx15, align 8, !tbaa !301, !llfi_index !1361
  call void @doProfiling(i32 32)
  %103 = load double, ptr %arrayidx17, align 8, !tbaa !301, !llfi_index !1362
  call void @doProfiling(i32 32)
  %104 = load double, ptr %arrayidx38, align 8, !tbaa !301, !llfi_index !1363
  call void @doProfiling(i32 32)
  %105 = load double, ptr %arrayidx12, align 8, !tbaa !301, !llfi_index !1364
  call void @doProfiling(i32 32)
  %106 = load double, ptr %z, align 8, !tbaa !301, !llfi_index !1365
  call void @doProfiling(i32 32)
  %107 = load double, ptr %arrayidx13, align 8, !tbaa !301, !llfi_index !1366
  call void @doProfiling(i32 32)
  %arrayidx123 = getelementptr inbounds double, ptr %dvdx, i64 5, !llfi_index !1367
  %arrayidx124 = getelementptr inbounds double, ptr %dvdy, i64 5, !llfi_index !1368
  %arrayidx125 = getelementptr inbounds double, ptr %dvdz, i64 5, !llfi_index !1369
  call void @_Z7VoluDerddddddddddddddddddPdS_S_(double noundef %90, double noundef %91, double noundef %92, double noundef %93, double noundef %94, double noundef %95, double noundef %96, double noundef %97, double noundef %98, double noundef %99, double noundef %100, double noundef %101, double noundef %102, double noundef %103, double noundef %104, double noundef %105, double noundef %106, double noundef %107, ptr noundef nonnull %arrayidx123, ptr noundef nonnull %arrayidx124, ptr noundef nonnull %arrayidx125), !llfi_index !1370
  %108 = load double, ptr %arrayidx4, align 8, !tbaa !301, !llfi_index !1371
  call void @doProfiling(i32 32)
  %109 = load double, ptr %arrayidx3, align 8, !tbaa !301, !llfi_index !1372
  call void @doProfiling(i32 32)
  %110 = load double, ptr %arrayidx5, align 8, !tbaa !301, !llfi_index !1373
  call void @doProfiling(i32 32)
  %111 = load double, ptr %arrayidx1, align 8, !tbaa !301, !llfi_index !1374
  call void @doProfiling(i32 32)
  %112 = load double, ptr %arrayidx, align 8, !tbaa !301, !llfi_index !1375
  call void @doProfiling(i32 32)
  %113 = load double, ptr %arrayidx2, align 8, !tbaa !301, !llfi_index !1376
  call void @doProfiling(i32 32)
  %114 = load double, ptr %arrayidx10, align 8, !tbaa !301, !llfi_index !1377
  call void @doProfiling(i32 32)
  %115 = load double, ptr %arrayidx9, align 8, !tbaa !301, !llfi_index !1378
  call void @doProfiling(i32 32)
  %116 = load double, ptr %arrayidx11, align 8, !tbaa !301, !llfi_index !1379
  call void @doProfiling(i32 32)
  %117 = load double, ptr %arrayidx7, align 8, !tbaa !301, !llfi_index !1380
  call void @doProfiling(i32 32)
  %118 = load double, ptr %arrayidx6, align 8, !tbaa !301, !llfi_index !1381
  call void @doProfiling(i32 32)
  %119 = load double, ptr %arrayidx8, align 8, !tbaa !301, !llfi_index !1382
  call void @doProfiling(i32 32)
  %120 = load double, ptr %arrayidx16, align 8, !tbaa !301, !llfi_index !1383
  call void @doProfiling(i32 32)
  %121 = load double, ptr %arrayidx15, align 8, !tbaa !301, !llfi_index !1384
  call void @doProfiling(i32 32)
  %122 = load double, ptr %arrayidx17, align 8, !tbaa !301, !llfi_index !1385
  call void @doProfiling(i32 32)
  %123 = load double, ptr %arrayidx13, align 8, !tbaa !301, !llfi_index !1386
  call void @doProfiling(i32 32)
  %124 = load double, ptr %arrayidx12, align 8, !tbaa !301, !llfi_index !1387
  call void @doProfiling(i32 32)
  %125 = load double, ptr %arrayidx14, align 8, !tbaa !301, !llfi_index !1388
  call void @doProfiling(i32 32)
  %arrayidx144 = getelementptr inbounds double, ptr %dvdx, i64 6, !llfi_index !1389
  %arrayidx145 = getelementptr inbounds double, ptr %dvdy, i64 6, !llfi_index !1390
  %arrayidx146 = getelementptr inbounds double, ptr %dvdz, i64 6, !llfi_index !1391
  call void @_Z7VoluDerddddddddddddddddddPdS_S_(double noundef %108, double noundef %109, double noundef %110, double noundef %111, double noundef %112, double noundef %113, double noundef %114, double noundef %115, double noundef %116, double noundef %117, double noundef %118, double noundef %119, double noundef %120, double noundef %121, double noundef %122, double noundef %123, double noundef %124, double noundef %125, ptr noundef nonnull %arrayidx144, ptr noundef nonnull %arrayidx145, ptr noundef nonnull %arrayidx146), !llfi_index !1392
  %126 = load double, ptr %arrayidx26, align 8, !tbaa !301, !llfi_index !1393
  call void @doProfiling(i32 32)
  %127 = load double, ptr %arrayidx4, align 8, !tbaa !301, !llfi_index !1394
  call void @doProfiling(i32 32)
  %128 = load double, ptr %arrayidx3, align 8, !tbaa !301, !llfi_index !1395
  call void @doProfiling(i32 32)
  %129 = load double, ptr %arrayidx2, align 8, !tbaa !301, !llfi_index !1396
  call void @doProfiling(i32 32)
  %130 = load double, ptr %arrayidx1, align 8, !tbaa !301, !llfi_index !1397
  call void @doProfiling(i32 32)
  %131 = load double, ptr %x, align 8, !tbaa !301, !llfi_index !1398
  call void @doProfiling(i32 32)
  %132 = load double, ptr %arrayidx32, align 8, !tbaa !301, !llfi_index !1399
  call void @doProfiling(i32 32)
  %133 = load double, ptr %arrayidx10, align 8, !tbaa !301, !llfi_index !1400
  call void @doProfiling(i32 32)
  %134 = load double, ptr %arrayidx9, align 8, !tbaa !301, !llfi_index !1401
  call void @doProfiling(i32 32)
  %135 = load double, ptr %arrayidx8, align 8, !tbaa !301, !llfi_index !1402
  call void @doProfiling(i32 32)
  %136 = load double, ptr %arrayidx7, align 8, !tbaa !301, !llfi_index !1403
  call void @doProfiling(i32 32)
  %137 = load double, ptr %y, align 8, !tbaa !301, !llfi_index !1404
  call void @doProfiling(i32 32)
  %138 = load double, ptr %arrayidx38, align 8, !tbaa !301, !llfi_index !1405
  call void @doProfiling(i32 32)
  %139 = load double, ptr %arrayidx16, align 8, !tbaa !301, !llfi_index !1406
  call void @doProfiling(i32 32)
  %140 = load double, ptr %arrayidx15, align 8, !tbaa !301, !llfi_index !1407
  call void @doProfiling(i32 32)
  %141 = load double, ptr %arrayidx14, align 8, !tbaa !301, !llfi_index !1408
  call void @doProfiling(i32 32)
  %142 = load double, ptr %arrayidx13, align 8, !tbaa !301, !llfi_index !1409
  call void @doProfiling(i32 32)
  %143 = load double, ptr %z, align 8, !tbaa !301, !llfi_index !1410
  call void @doProfiling(i32 32)
  %arrayidx165 = getelementptr inbounds double, ptr %dvdx, i64 7, !llfi_index !1411
  %arrayidx166 = getelementptr inbounds double, ptr %dvdy, i64 7, !llfi_index !1412
  %arrayidx167 = getelementptr inbounds double, ptr %dvdz, i64 7, !llfi_index !1413
  call void @_Z7VoluDerddddddddddddddddddPdS_S_(double noundef %126, double noundef %127, double noundef %128, double noundef %129, double noundef %130, double noundef %131, double noundef %132, double noundef %133, double noundef %134, double noundef %135, double noundef %136, double noundef %137, double noundef %138, double noundef %139, double noundef %140, double noundef %141, double noundef %142, double noundef %143, ptr noundef nonnull %arrayidx165, ptr noundef nonnull %arrayidx166, ptr noundef nonnull %arrayidx167), !llfi_index !1414
  ret void, !llfi_index !1415
}

; Function Attrs: argmemonly mustprogress nofree noinline nosync nounwind willreturn uwtable
define dso_local void @_Z24CalcElemFBHourglassForcePdS_S_S_S_S_S_S_S_S_S_dS_S_S_(ptr nocapture noundef readonly %xd, ptr nocapture noundef readonly %yd, ptr nocapture noundef readonly %zd, ptr nocapture noundef readonly %hourgam0, ptr nocapture noundef readonly %hourgam1, ptr nocapture noundef readonly %hourgam2, ptr nocapture noundef readonly %hourgam3, ptr nocapture noundef readonly %hourgam4, ptr nocapture noundef readonly %hourgam5, ptr nocapture noundef readonly %hourgam6, ptr nocapture noundef readonly %hourgam7, double noundef %coefficient, ptr nocapture noundef writeonly %hgfx, ptr nocapture noundef writeonly %hgfy, ptr nocapture noundef writeonly %hgfz) local_unnamed_addr #7 {
entry:
  %0 = load double, ptr %hourgam0, align 8, !tbaa !301, !llfi_index !1416
  call void @doProfiling(i32 32)
  %1 = load double, ptr %xd, align 8, !tbaa !301, !llfi_index !1417
  call void @doProfiling(i32 32)
  %2 = load double, ptr %hourgam1, align 8, !tbaa !301, !llfi_index !1418
  call void @doProfiling(i32 32)
  %arrayidx4 = getelementptr inbounds double, ptr %xd, i64 1, !llfi_index !1419
  %3 = load double, ptr %arrayidx4, align 8, !tbaa !301, !llfi_index !1420
  call void @doProfiling(i32 32)
  %mul5 = fmul double %2, %3, !llfi_index !1421
  call void @doProfiling(i32 18)
  %4 = call double @llvm.fmuladd.f64(double %0, double %1, double %mul5), !llfi_index !1422
  call void @doProfiling(i32 56)
  %5 = load double, ptr %hourgam2, align 8, !tbaa !301, !llfi_index !1423
  call void @doProfiling(i32 32)
  %arrayidx8 = getelementptr inbounds double, ptr %xd, i64 2, !llfi_index !1424
  %6 = load double, ptr %arrayidx8, align 8, !tbaa !301, !llfi_index !1425
  call void @doProfiling(i32 32)
  %7 = call double @llvm.fmuladd.f64(double %5, double %6, double %4), !llfi_index !1426
  call void @doProfiling(i32 56)
  %8 = load double, ptr %hourgam3, align 8, !tbaa !301, !llfi_index !1427
  call void @doProfiling(i32 32)
  %arrayidx11 = getelementptr inbounds double, ptr %xd, i64 3, !llfi_index !1428
  %9 = load double, ptr %arrayidx11, align 8, !tbaa !301, !llfi_index !1429
  call void @doProfiling(i32 32)
  %10 = call double @llvm.fmuladd.f64(double %8, double %9, double %7), !llfi_index !1430
  call void @doProfiling(i32 56)
  %11 = load double, ptr %hourgam4, align 8, !tbaa !301, !llfi_index !1431
  call void @doProfiling(i32 32)
  %arrayidx14 = getelementptr inbounds double, ptr %xd, i64 4, !llfi_index !1432
  %12 = load double, ptr %arrayidx14, align 8, !tbaa !301, !llfi_index !1433
  call void @doProfiling(i32 32)
  %13 = call double @llvm.fmuladd.f64(double %11, double %12, double %10), !llfi_index !1434
  call void @doProfiling(i32 56)
  %14 = load double, ptr %hourgam5, align 8, !tbaa !301, !llfi_index !1435
  call void @doProfiling(i32 32)
  %arrayidx17 = getelementptr inbounds double, ptr %xd, i64 5, !llfi_index !1436
  %15 = load double, ptr %arrayidx17, align 8, !tbaa !301, !llfi_index !1437
  call void @doProfiling(i32 32)
  %16 = call double @llvm.fmuladd.f64(double %14, double %15, double %13), !llfi_index !1438
  call void @doProfiling(i32 56)
  %17 = load double, ptr %hourgam6, align 8, !tbaa !301, !llfi_index !1439
  call void @doProfiling(i32 32)
  %arrayidx20 = getelementptr inbounds double, ptr %xd, i64 6, !llfi_index !1440
  %18 = load double, ptr %arrayidx20, align 8, !tbaa !301, !llfi_index !1441
  call void @doProfiling(i32 32)
  %19 = call double @llvm.fmuladd.f64(double %17, double %18, double %16), !llfi_index !1442
  call void @doProfiling(i32 56)
  %20 = load double, ptr %hourgam7, align 8, !tbaa !301, !llfi_index !1443
  call void @doProfiling(i32 32)
  %arrayidx23 = getelementptr inbounds double, ptr %xd, i64 7, !llfi_index !1444
  %21 = load double, ptr %arrayidx23, align 8, !tbaa !301, !llfi_index !1445
  call void @doProfiling(i32 32)
  %22 = call double @llvm.fmuladd.f64(double %20, double %21, double %19), !llfi_index !1446
  call void @doProfiling(i32 56)
  %arrayidx25 = getelementptr inbounds double, ptr %hourgam0, i64 1, !llfi_index !1447
  %23 = load double, ptr %arrayidx25, align 8, !tbaa !301, !llfi_index !1448
  call void @doProfiling(i32 32)
  %arrayidx28 = getelementptr inbounds double, ptr %hourgam1, i64 1, !llfi_index !1449
  %24 = load double, ptr %arrayidx28, align 8, !tbaa !301, !llfi_index !1450
  call void @doProfiling(i32 32)
  %mul30 = fmul double %3, %24, !llfi_index !1451
  call void @doProfiling(i32 18)
  %25 = call double @llvm.fmuladd.f64(double %23, double %1, double %mul30), !llfi_index !1452
  call void @doProfiling(i32 56)
  %arrayidx32 = getelementptr inbounds double, ptr %hourgam2, i64 1, !llfi_index !1453
  %26 = load double, ptr %arrayidx32, align 8, !tbaa !301, !llfi_index !1454
  call void @doProfiling(i32 32)
  %27 = call double @llvm.fmuladd.f64(double %26, double %6, double %25), !llfi_index !1455
  call void @doProfiling(i32 56)
  %arrayidx35 = getelementptr inbounds double, ptr %hourgam3, i64 1, !llfi_index !1456
  %28 = load double, ptr %arrayidx35, align 8, !tbaa !301, !llfi_index !1457
  call void @doProfiling(i32 32)
  %29 = call double @llvm.fmuladd.f64(double %28, double %9, double %27), !llfi_index !1458
  call void @doProfiling(i32 56)
  %arrayidx38 = getelementptr inbounds double, ptr %hourgam4, i64 1, !llfi_index !1459
  %30 = load double, ptr %arrayidx38, align 8, !tbaa !301, !llfi_index !1460
  call void @doProfiling(i32 32)
  %31 = call double @llvm.fmuladd.f64(double %30, double %12, double %29), !llfi_index !1461
  call void @doProfiling(i32 56)
  %arrayidx41 = getelementptr inbounds double, ptr %hourgam5, i64 1, !llfi_index !1462
  %32 = load double, ptr %arrayidx41, align 8, !tbaa !301, !llfi_index !1463
  call void @doProfiling(i32 32)
  %33 = call double @llvm.fmuladd.f64(double %32, double %15, double %31), !llfi_index !1464
  call void @doProfiling(i32 56)
  %arrayidx44 = getelementptr inbounds double, ptr %hourgam6, i64 1, !llfi_index !1465
  %34 = load double, ptr %arrayidx44, align 8, !tbaa !301, !llfi_index !1466
  call void @doProfiling(i32 32)
  %35 = call double @llvm.fmuladd.f64(double %34, double %18, double %33), !llfi_index !1467
  call void @doProfiling(i32 56)
  %arrayidx47 = getelementptr inbounds double, ptr %hourgam7, i64 1, !llfi_index !1468
  %36 = load double, ptr %arrayidx47, align 8, !tbaa !301, !llfi_index !1469
  call void @doProfiling(i32 32)
  %37 = call double @llvm.fmuladd.f64(double %36, double %21, double %35), !llfi_index !1470
  call void @doProfiling(i32 56)
  %arrayidx50 = getelementptr inbounds double, ptr %hourgam0, i64 2, !llfi_index !1471
  %38 = load double, ptr %arrayidx50, align 8, !tbaa !301, !llfi_index !1472
  call void @doProfiling(i32 32)
  %arrayidx53 = getelementptr inbounds double, ptr %hourgam1, i64 2, !llfi_index !1473
  %39 = load double, ptr %arrayidx53, align 8, !tbaa !301, !llfi_index !1474
  call void @doProfiling(i32 32)
  %mul55 = fmul double %3, %39, !llfi_index !1475
  call void @doProfiling(i32 18)
  %40 = call double @llvm.fmuladd.f64(double %38, double %1, double %mul55), !llfi_index !1476
  call void @doProfiling(i32 56)
  %arrayidx57 = getelementptr inbounds double, ptr %hourgam2, i64 2, !llfi_index !1477
  %41 = load double, ptr %arrayidx57, align 8, !tbaa !301, !llfi_index !1478
  call void @doProfiling(i32 32)
  %42 = call double @llvm.fmuladd.f64(double %41, double %6, double %40), !llfi_index !1479
  call void @doProfiling(i32 56)
  %arrayidx60 = getelementptr inbounds double, ptr %hourgam3, i64 2, !llfi_index !1480
  %43 = load double, ptr %arrayidx60, align 8, !tbaa !301, !llfi_index !1481
  call void @doProfiling(i32 32)
  %44 = call double @llvm.fmuladd.f64(double %43, double %9, double %42), !llfi_index !1482
  call void @doProfiling(i32 56)
  %arrayidx63 = getelementptr inbounds double, ptr %hourgam4, i64 2, !llfi_index !1483
  %45 = load double, ptr %arrayidx63, align 8, !tbaa !301, !llfi_index !1484
  call void @doProfiling(i32 32)
  %46 = call double @llvm.fmuladd.f64(double %45, double %12, double %44), !llfi_index !1485
  call void @doProfiling(i32 56)
  %arrayidx66 = getelementptr inbounds double, ptr %hourgam5, i64 2, !llfi_index !1486
  %47 = load double, ptr %arrayidx66, align 8, !tbaa !301, !llfi_index !1487
  call void @doProfiling(i32 32)
  %48 = call double @llvm.fmuladd.f64(double %47, double %15, double %46), !llfi_index !1488
  call void @doProfiling(i32 56)
  %arrayidx69 = getelementptr inbounds double, ptr %hourgam6, i64 2, !llfi_index !1489
  %49 = load double, ptr %arrayidx69, align 8, !tbaa !301, !llfi_index !1490
  call void @doProfiling(i32 32)
  %50 = call double @llvm.fmuladd.f64(double %49, double %18, double %48), !llfi_index !1491
  call void @doProfiling(i32 56)
  %arrayidx72 = getelementptr inbounds double, ptr %hourgam7, i64 2, !llfi_index !1492
  %51 = load double, ptr %arrayidx72, align 8, !tbaa !301, !llfi_index !1493
  call void @doProfiling(i32 32)
  %52 = call double @llvm.fmuladd.f64(double %51, double %21, double %50), !llfi_index !1494
  call void @doProfiling(i32 56)
  %arrayidx75 = getelementptr inbounds double, ptr %hourgam0, i64 3, !llfi_index !1495
  %53 = load double, ptr %arrayidx75, align 8, !tbaa !301, !llfi_index !1496
  call void @doProfiling(i32 32)
  %arrayidx78 = getelementptr inbounds double, ptr %hourgam1, i64 3, !llfi_index !1497
  %54 = load double, ptr %arrayidx78, align 8, !tbaa !301, !llfi_index !1498
  call void @doProfiling(i32 32)
  %mul80 = fmul double %3, %54, !llfi_index !1499
  call void @doProfiling(i32 18)
  %55 = call double @llvm.fmuladd.f64(double %53, double %1, double %mul80), !llfi_index !1500
  call void @doProfiling(i32 56)
  %arrayidx82 = getelementptr inbounds double, ptr %hourgam2, i64 3, !llfi_index !1501
  %56 = load double, ptr %arrayidx82, align 8, !tbaa !301, !llfi_index !1502
  call void @doProfiling(i32 32)
  %57 = call double @llvm.fmuladd.f64(double %56, double %6, double %55), !llfi_index !1503
  call void @doProfiling(i32 56)
  %arrayidx85 = getelementptr inbounds double, ptr %hourgam3, i64 3, !llfi_index !1504
  %58 = load double, ptr %arrayidx85, align 8, !tbaa !301, !llfi_index !1505
  call void @doProfiling(i32 32)
  %59 = call double @llvm.fmuladd.f64(double %58, double %9, double %57), !llfi_index !1506
  call void @doProfiling(i32 56)
  %arrayidx88 = getelementptr inbounds double, ptr %hourgam4, i64 3, !llfi_index !1507
  %60 = load double, ptr %arrayidx88, align 8, !tbaa !301, !llfi_index !1508
  call void @doProfiling(i32 32)
  %61 = call double @llvm.fmuladd.f64(double %60, double %12, double %59), !llfi_index !1509
  call void @doProfiling(i32 56)
  %arrayidx91 = getelementptr inbounds double, ptr %hourgam5, i64 3, !llfi_index !1510
  %62 = load double, ptr %arrayidx91, align 8, !tbaa !301, !llfi_index !1511
  call void @doProfiling(i32 32)
  %63 = call double @llvm.fmuladd.f64(double %62, double %15, double %61), !llfi_index !1512
  call void @doProfiling(i32 56)
  %arrayidx94 = getelementptr inbounds double, ptr %hourgam6, i64 3, !llfi_index !1513
  %64 = load double, ptr %arrayidx94, align 8, !tbaa !301, !llfi_index !1514
  call void @doProfiling(i32 32)
  %65 = call double @llvm.fmuladd.f64(double %64, double %18, double %63), !llfi_index !1515
  call void @doProfiling(i32 56)
  %arrayidx97 = getelementptr inbounds double, ptr %hourgam7, i64 3, !llfi_index !1516
  %66 = load double, ptr %arrayidx97, align 8, !tbaa !301, !llfi_index !1517
  call void @doProfiling(i32 32)
  %67 = call double @llvm.fmuladd.f64(double %66, double %21, double %65), !llfi_index !1518
  call void @doProfiling(i32 56)
  %mul103 = fmul double %23, %37, !llfi_index !1519
  call void @doProfiling(i32 18)
  %68 = call double @llvm.fmuladd.f64(double %0, double %22, double %mul103), !llfi_index !1520
  call void @doProfiling(i32 56)
  %69 = call double @llvm.fmuladd.f64(double %38, double %52, double %68), !llfi_index !1521
  call void @doProfiling(i32 56)
  %70 = call double @llvm.fmuladd.f64(double %53, double %67, double %69), !llfi_index !1522
  call void @doProfiling(i32 56)
  %mul = fmul double %70, %coefficient, !llfi_index !1523
  call void @doProfiling(i32 18)
  store double %mul, ptr %hgfx, align 8, !tbaa !301, !llfi_index !1524
  %71 = load double, ptr %hourgam1, align 8, !tbaa !301, !llfi_index !1525
  call void @doProfiling(i32 32)
  %72 = load double, ptr %arrayidx28, align 8, !tbaa !301, !llfi_index !1526
  call void @doProfiling(i32 32)
  %mul114 = fmul double %37, %72, !llfi_index !1527
  call void @doProfiling(i32 18)
  %73 = call double @llvm.fmuladd.f64(double %71, double %22, double %mul114), !llfi_index !1528
  call void @doProfiling(i32 56)
  %74 = load double, ptr %arrayidx53, align 8, !tbaa !301, !llfi_index !1529
  call void @doProfiling(i32 32)
  %75 = call double @llvm.fmuladd.f64(double %74, double %52, double %73), !llfi_index !1530
  call void @doProfiling(i32 56)
  %76 = load double, ptr %arrayidx78, align 8, !tbaa !301, !llfi_index !1531
  call void @doProfiling(i32 32)
  %77 = call double @llvm.fmuladd.f64(double %76, double %67, double %75), !llfi_index !1532
  call void @doProfiling(i32 56)
  %mul121 = fmul double %77, %coefficient, !llfi_index !1533
  call void @doProfiling(i32 18)
  %arrayidx122 = getelementptr inbounds double, ptr %hgfx, i64 1, !llfi_index !1534
  store double %mul121, ptr %arrayidx122, align 8, !tbaa !301, !llfi_index !1535
  %78 = load double, ptr %hourgam2, align 8, !tbaa !301, !llfi_index !1536
  call void @doProfiling(i32 32)
  %79 = load double, ptr %arrayidx32, align 8, !tbaa !301, !llfi_index !1537
  call void @doProfiling(i32 32)
  %mul128 = fmul double %37, %79, !llfi_index !1538
  call void @doProfiling(i32 18)
  %80 = call double @llvm.fmuladd.f64(double %78, double %22, double %mul128), !llfi_index !1539
  call void @doProfiling(i32 56)
  %81 = load double, ptr %arrayidx57, align 8, !tbaa !301, !llfi_index !1540
  call void @doProfiling(i32 32)
  %82 = call double @llvm.fmuladd.f64(double %81, double %52, double %80), !llfi_index !1541
  call void @doProfiling(i32 56)
  %83 = load double, ptr %arrayidx82, align 8, !tbaa !301, !llfi_index !1542
  call void @doProfiling(i32 32)
  %84 = call double @llvm.fmuladd.f64(double %83, double %67, double %82), !llfi_index !1543
  call void @doProfiling(i32 56)
  %mul135 = fmul double %84, %coefficient, !llfi_index !1544
  call void @doProfiling(i32 18)
  %arrayidx136 = getelementptr inbounds double, ptr %hgfx, i64 2, !llfi_index !1545
  store double %mul135, ptr %arrayidx136, align 8, !tbaa !301, !llfi_index !1546
  %85 = load double, ptr %hourgam3, align 8, !tbaa !301, !llfi_index !1547
  call void @doProfiling(i32 32)
  %86 = load double, ptr %arrayidx35, align 8, !tbaa !301, !llfi_index !1548
  call void @doProfiling(i32 32)
  %mul142 = fmul double %37, %86, !llfi_index !1549
  call void @doProfiling(i32 18)
  %87 = call double @llvm.fmuladd.f64(double %85, double %22, double %mul142), !llfi_index !1550
  call void @doProfiling(i32 56)
  %88 = load double, ptr %arrayidx60, align 8, !tbaa !301, !llfi_index !1551
  call void @doProfiling(i32 32)
  %89 = call double @llvm.fmuladd.f64(double %88, double %52, double %87), !llfi_index !1552
  call void @doProfiling(i32 56)
  %90 = load double, ptr %arrayidx85, align 8, !tbaa !301, !llfi_index !1553
  call void @doProfiling(i32 32)
  %91 = call double @llvm.fmuladd.f64(double %90, double %67, double %89), !llfi_index !1554
  call void @doProfiling(i32 56)
  %mul149 = fmul double %91, %coefficient, !llfi_index !1555
  call void @doProfiling(i32 18)
  %arrayidx150 = getelementptr inbounds double, ptr %hgfx, i64 3, !llfi_index !1556
  store double %mul149, ptr %arrayidx150, align 8, !tbaa !301, !llfi_index !1557
  %92 = load double, ptr %hourgam4, align 8, !tbaa !301, !llfi_index !1558
  call void @doProfiling(i32 32)
  %93 = load double, ptr %arrayidx38, align 8, !tbaa !301, !llfi_index !1559
  call void @doProfiling(i32 32)
  %mul156 = fmul double %37, %93, !llfi_index !1560
  call void @doProfiling(i32 18)
  %94 = call double @llvm.fmuladd.f64(double %92, double %22, double %mul156), !llfi_index !1561
  call void @doProfiling(i32 56)
  %95 = load double, ptr %arrayidx63, align 8, !tbaa !301, !llfi_index !1562
  call void @doProfiling(i32 32)
  %96 = call double @llvm.fmuladd.f64(double %95, double %52, double %94), !llfi_index !1563
  call void @doProfiling(i32 56)
  %97 = load double, ptr %arrayidx88, align 8, !tbaa !301, !llfi_index !1564
  call void @doProfiling(i32 32)
  %98 = call double @llvm.fmuladd.f64(double %97, double %67, double %96), !llfi_index !1565
  call void @doProfiling(i32 56)
  %mul163 = fmul double %98, %coefficient, !llfi_index !1566
  call void @doProfiling(i32 18)
  %arrayidx164 = getelementptr inbounds double, ptr %hgfx, i64 4, !llfi_index !1567
  store double %mul163, ptr %arrayidx164, align 8, !tbaa !301, !llfi_index !1568
  %99 = load double, ptr %hourgam5, align 8, !tbaa !301, !llfi_index !1569
  call void @doProfiling(i32 32)
  %100 = load double, ptr %arrayidx41, align 8, !tbaa !301, !llfi_index !1570
  call void @doProfiling(i32 32)
  %mul170 = fmul double %37, %100, !llfi_index !1571
  call void @doProfiling(i32 18)
  %101 = call double @llvm.fmuladd.f64(double %99, double %22, double %mul170), !llfi_index !1572
  call void @doProfiling(i32 56)
  %102 = load double, ptr %arrayidx66, align 8, !tbaa !301, !llfi_index !1573
  call void @doProfiling(i32 32)
  %103 = call double @llvm.fmuladd.f64(double %102, double %52, double %101), !llfi_index !1574
  call void @doProfiling(i32 56)
  %104 = load double, ptr %arrayidx91, align 8, !tbaa !301, !llfi_index !1575
  call void @doProfiling(i32 32)
  %105 = call double @llvm.fmuladd.f64(double %104, double %67, double %103), !llfi_index !1576
  call void @doProfiling(i32 56)
  %mul177 = fmul double %105, %coefficient, !llfi_index !1577
  call void @doProfiling(i32 18)
  %arrayidx178 = getelementptr inbounds double, ptr %hgfx, i64 5, !llfi_index !1578
  store double %mul177, ptr %arrayidx178, align 8, !tbaa !301, !llfi_index !1579
  %106 = load double, ptr %hourgam6, align 8, !tbaa !301, !llfi_index !1580
  call void @doProfiling(i32 32)
  %107 = load double, ptr %arrayidx44, align 8, !tbaa !301, !llfi_index !1581
  call void @doProfiling(i32 32)
  %mul184 = fmul double %37, %107, !llfi_index !1582
  call void @doProfiling(i32 18)
  %108 = call double @llvm.fmuladd.f64(double %106, double %22, double %mul184), !llfi_index !1583
  call void @doProfiling(i32 56)
  %109 = load double, ptr %arrayidx69, align 8, !tbaa !301, !llfi_index !1584
  call void @doProfiling(i32 32)
  %110 = call double @llvm.fmuladd.f64(double %109, double %52, double %108), !llfi_index !1585
  call void @doProfiling(i32 56)
  %111 = load double, ptr %arrayidx94, align 8, !tbaa !301, !llfi_index !1586
  call void @doProfiling(i32 32)
  %112 = call double @llvm.fmuladd.f64(double %111, double %67, double %110), !llfi_index !1587
  call void @doProfiling(i32 56)
  %mul191 = fmul double %112, %coefficient, !llfi_index !1588
  call void @doProfiling(i32 18)
  %arrayidx192 = getelementptr inbounds double, ptr %hgfx, i64 6, !llfi_index !1589
  store double %mul191, ptr %arrayidx192, align 8, !tbaa !301, !llfi_index !1590
  %113 = load double, ptr %hourgam7, align 8, !tbaa !301, !llfi_index !1591
  call void @doProfiling(i32 32)
  %114 = load double, ptr %arrayidx47, align 8, !tbaa !301, !llfi_index !1592
  call void @doProfiling(i32 32)
  %mul198 = fmul double %37, %114, !llfi_index !1593
  call void @doProfiling(i32 18)
  %115 = call double @llvm.fmuladd.f64(double %113, double %22, double %mul198), !llfi_index !1594
  call void @doProfiling(i32 56)
  %116 = load double, ptr %arrayidx72, align 8, !tbaa !301, !llfi_index !1595
  call void @doProfiling(i32 32)
  %117 = call double @llvm.fmuladd.f64(double %116, double %52, double %115), !llfi_index !1596
  call void @doProfiling(i32 56)
  %118 = load double, ptr %arrayidx97, align 8, !tbaa !301, !llfi_index !1597
  call void @doProfiling(i32 32)
  %119 = call double @llvm.fmuladd.f64(double %118, double %67, double %117), !llfi_index !1598
  call void @doProfiling(i32 56)
  %mul205 = fmul double %119, %coefficient, !llfi_index !1599
  call void @doProfiling(i32 18)
  %arrayidx206 = getelementptr inbounds double, ptr %hgfx, i64 7, !llfi_index !1600
  store double %mul205, ptr %arrayidx206, align 8, !tbaa !301, !llfi_index !1601
  %120 = load double, ptr %hourgam0, align 8, !tbaa !301, !llfi_index !1602
  call void @doProfiling(i32 32)
  %121 = load double, ptr %yd, align 8, !tbaa !301, !llfi_index !1603
  call void @doProfiling(i32 32)
  %122 = load double, ptr %hourgam1, align 8, !tbaa !301, !llfi_index !1604
  call void @doProfiling(i32 32)
  %arrayidx213 = getelementptr inbounds double, ptr %yd, i64 1, !llfi_index !1605
  %123 = load double, ptr %arrayidx213, align 8, !tbaa !301, !llfi_index !1606
  call void @doProfiling(i32 32)
  %mul214 = fmul double %122, %123, !llfi_index !1607
  call void @doProfiling(i32 18)
  %124 = call double @llvm.fmuladd.f64(double %120, double %121, double %mul214), !llfi_index !1608
  call void @doProfiling(i32 56)
  %125 = load double, ptr %hourgam2, align 8, !tbaa !301, !llfi_index !1609
  call void @doProfiling(i32 32)
  %arrayidx217 = getelementptr inbounds double, ptr %yd, i64 2, !llfi_index !1610
  %126 = load double, ptr %arrayidx217, align 8, !tbaa !301, !llfi_index !1611
  call void @doProfiling(i32 32)
  %127 = call double @llvm.fmuladd.f64(double %125, double %126, double %124), !llfi_index !1612
  call void @doProfiling(i32 56)
  %128 = load double, ptr %hourgam3, align 8, !tbaa !301, !llfi_index !1613
  call void @doProfiling(i32 32)
  %arrayidx221 = getelementptr inbounds double, ptr %yd, i64 3, !llfi_index !1614
  %129 = load double, ptr %arrayidx221, align 8, !tbaa !301, !llfi_index !1615
  call void @doProfiling(i32 32)
  %130 = call double @llvm.fmuladd.f64(double %128, double %129, double %127), !llfi_index !1616
  call void @doProfiling(i32 56)
  %131 = load double, ptr %hourgam4, align 8, !tbaa !301, !llfi_index !1617
  call void @doProfiling(i32 32)
  %arrayidx225 = getelementptr inbounds double, ptr %yd, i64 4, !llfi_index !1618
  %132 = load double, ptr %arrayidx225, align 8, !tbaa !301, !llfi_index !1619
  call void @doProfiling(i32 32)
  %133 = call double @llvm.fmuladd.f64(double %131, double %132, double %130), !llfi_index !1620
  call void @doProfiling(i32 56)
  %134 = load double, ptr %hourgam5, align 8, !tbaa !301, !llfi_index !1621
  call void @doProfiling(i32 32)
  %arrayidx229 = getelementptr inbounds double, ptr %yd, i64 5, !llfi_index !1622
  %135 = load double, ptr %arrayidx229, align 8, !tbaa !301, !llfi_index !1623
  call void @doProfiling(i32 32)
  %136 = call double @llvm.fmuladd.f64(double %134, double %135, double %133), !llfi_index !1624
  call void @doProfiling(i32 56)
  %137 = load double, ptr %hourgam6, align 8, !tbaa !301, !llfi_index !1625
  call void @doProfiling(i32 32)
  %arrayidx233 = getelementptr inbounds double, ptr %yd, i64 6, !llfi_index !1626
  %138 = load double, ptr %arrayidx233, align 8, !tbaa !301, !llfi_index !1627
  call void @doProfiling(i32 32)
  %139 = call double @llvm.fmuladd.f64(double %137, double %138, double %136), !llfi_index !1628
  call void @doProfiling(i32 56)
  %140 = load double, ptr %hourgam7, align 8, !tbaa !301, !llfi_index !1629
  call void @doProfiling(i32 32)
  %arrayidx237 = getelementptr inbounds double, ptr %yd, i64 7, !llfi_index !1630
  %141 = load double, ptr %arrayidx237, align 8, !tbaa !301, !llfi_index !1631
  call void @doProfiling(i32 32)
  %142 = call double @llvm.fmuladd.f64(double %140, double %141, double %139), !llfi_index !1632
  call void @doProfiling(i32 56)
  %143 = load double, ptr %arrayidx25, align 8, !tbaa !301, !llfi_index !1633
  call void @doProfiling(i32 32)
  %144 = load double, ptr %arrayidx28, align 8, !tbaa !301, !llfi_index !1634
  call void @doProfiling(i32 32)
  %mul246 = fmul double %123, %144, !llfi_index !1635
  call void @doProfiling(i32 18)
  %145 = call double @llvm.fmuladd.f64(double %143, double %121, double %mul246), !llfi_index !1636
  call void @doProfiling(i32 56)
  %146 = load double, ptr %arrayidx32, align 8, !tbaa !301, !llfi_index !1637
  call void @doProfiling(i32 32)
  %147 = call double @llvm.fmuladd.f64(double %146, double %126, double %145), !llfi_index !1638
  call void @doProfiling(i32 56)
  %148 = load double, ptr %arrayidx35, align 8, !tbaa !301, !llfi_index !1639
  call void @doProfiling(i32 32)
  %149 = call double @llvm.fmuladd.f64(double %148, double %129, double %147), !llfi_index !1640
  call void @doProfiling(i32 56)
  %150 = load double, ptr %arrayidx38, align 8, !tbaa !301, !llfi_index !1641
  call void @doProfiling(i32 32)
  %151 = call double @llvm.fmuladd.f64(double %150, double %132, double %149), !llfi_index !1642
  call void @doProfiling(i32 56)
  %152 = load double, ptr %arrayidx41, align 8, !tbaa !301, !llfi_index !1643
  call void @doProfiling(i32 32)
  %153 = call double @llvm.fmuladd.f64(double %152, double %135, double %151), !llfi_index !1644
  call void @doProfiling(i32 56)
  %154 = load double, ptr %arrayidx44, align 8, !tbaa !301, !llfi_index !1645
  call void @doProfiling(i32 32)
  %155 = call double @llvm.fmuladd.f64(double %154, double %138, double %153), !llfi_index !1646
  call void @doProfiling(i32 56)
  %156 = load double, ptr %arrayidx47, align 8, !tbaa !301, !llfi_index !1647
  call void @doProfiling(i32 32)
  %157 = call double @llvm.fmuladd.f64(double %156, double %141, double %155), !llfi_index !1648
  call void @doProfiling(i32 56)
  %158 = load double, ptr %arrayidx50, align 8, !tbaa !301, !llfi_index !1649
  call void @doProfiling(i32 32)
  %159 = load double, ptr %arrayidx53, align 8, !tbaa !301, !llfi_index !1650
  call void @doProfiling(i32 32)
  %mul278 = fmul double %123, %159, !llfi_index !1651
  call void @doProfiling(i32 18)
  %160 = call double @llvm.fmuladd.f64(double %158, double %121, double %mul278), !llfi_index !1652
  call void @doProfiling(i32 56)
  %161 = load double, ptr %arrayidx57, align 8, !tbaa !301, !llfi_index !1653
  call void @doProfiling(i32 32)
  %162 = call double @llvm.fmuladd.f64(double %161, double %126, double %160), !llfi_index !1654
  call void @doProfiling(i32 56)
  %163 = load double, ptr %arrayidx60, align 8, !tbaa !301, !llfi_index !1655
  call void @doProfiling(i32 32)
  %164 = call double @llvm.fmuladd.f64(double %163, double %129, double %162), !llfi_index !1656
  call void @doProfiling(i32 56)
  %165 = load double, ptr %arrayidx63, align 8, !tbaa !301, !llfi_index !1657
  call void @doProfiling(i32 32)
  %166 = call double @llvm.fmuladd.f64(double %165, double %132, double %164), !llfi_index !1658
  call void @doProfiling(i32 56)
  %167 = load double, ptr %arrayidx66, align 8, !tbaa !301, !llfi_index !1659
  call void @doProfiling(i32 32)
  %168 = call double @llvm.fmuladd.f64(double %167, double %135, double %166), !llfi_index !1660
  call void @doProfiling(i32 56)
  %169 = load double, ptr %arrayidx69, align 8, !tbaa !301, !llfi_index !1661
  call void @doProfiling(i32 32)
  %170 = call double @llvm.fmuladd.f64(double %169, double %138, double %168), !llfi_index !1662
  call void @doProfiling(i32 56)
  %171 = load double, ptr %arrayidx72, align 8, !tbaa !301, !llfi_index !1663
  call void @doProfiling(i32 32)
  %172 = call double @llvm.fmuladd.f64(double %171, double %141, double %170), !llfi_index !1664
  call void @doProfiling(i32 56)
  %173 = load double, ptr %arrayidx75, align 8, !tbaa !301, !llfi_index !1665
  call void @doProfiling(i32 32)
  %174 = load double, ptr %arrayidx78, align 8, !tbaa !301, !llfi_index !1666
  call void @doProfiling(i32 32)
  %mul310 = fmul double %123, %174, !llfi_index !1667
  call void @doProfiling(i32 18)
  %175 = call double @llvm.fmuladd.f64(double %173, double %121, double %mul310), !llfi_index !1668
  call void @doProfiling(i32 56)
  %176 = load double, ptr %arrayidx82, align 8, !tbaa !301, !llfi_index !1669
  call void @doProfiling(i32 32)
  %177 = call double @llvm.fmuladd.f64(double %176, double %126, double %175), !llfi_index !1670
  call void @doProfiling(i32 56)
  %178 = load double, ptr %arrayidx85, align 8, !tbaa !301, !llfi_index !1671
  call void @doProfiling(i32 32)
  %179 = call double @llvm.fmuladd.f64(double %178, double %129, double %177), !llfi_index !1672
  call void @doProfiling(i32 56)
  %180 = load double, ptr %arrayidx88, align 8, !tbaa !301, !llfi_index !1673
  call void @doProfiling(i32 32)
  %181 = call double @llvm.fmuladd.f64(double %180, double %132, double %179), !llfi_index !1674
  call void @doProfiling(i32 56)
  %182 = load double, ptr %arrayidx91, align 8, !tbaa !301, !llfi_index !1675
  call void @doProfiling(i32 32)
  %183 = call double @llvm.fmuladd.f64(double %182, double %135, double %181), !llfi_index !1676
  call void @doProfiling(i32 56)
  %184 = load double, ptr %arrayidx94, align 8, !tbaa !301, !llfi_index !1677
  call void @doProfiling(i32 32)
  %185 = call double @llvm.fmuladd.f64(double %184, double %138, double %183), !llfi_index !1678
  call void @doProfiling(i32 56)
  %186 = load double, ptr %arrayidx97, align 8, !tbaa !301, !llfi_index !1679
  call void @doProfiling(i32 32)
  %187 = call double @llvm.fmuladd.f64(double %186, double %141, double %185), !llfi_index !1680
  call void @doProfiling(i32 56)
  %mul340 = fmul double %143, %157, !llfi_index !1681
  call void @doProfiling(i32 18)
  %188 = call double @llvm.fmuladd.f64(double %120, double %142, double %mul340), !llfi_index !1682
  call void @doProfiling(i32 56)
  %189 = call double @llvm.fmuladd.f64(double %158, double %172, double %188), !llfi_index !1683
  call void @doProfiling(i32 56)
  %190 = call double @llvm.fmuladd.f64(double %173, double %187, double %189), !llfi_index !1684
  call void @doProfiling(i32 56)
  %mul347 = fmul double %190, %coefficient, !llfi_index !1685
  call void @doProfiling(i32 18)
  store double %mul347, ptr %hgfy, align 8, !tbaa !301, !llfi_index !1686
  %191 = load double, ptr %hourgam1, align 8, !tbaa !301, !llfi_index !1687
  call void @doProfiling(i32 32)
  %192 = load double, ptr %arrayidx28, align 8, !tbaa !301, !llfi_index !1688
  call void @doProfiling(i32 32)
  %mul354 = fmul double %157, %192, !llfi_index !1689
  call void @doProfiling(i32 18)
  %193 = call double @llvm.fmuladd.f64(double %191, double %142, double %mul354), !llfi_index !1690
  call void @doProfiling(i32 56)
  %194 = load double, ptr %arrayidx53, align 8, !tbaa !301, !llfi_index !1691
  call void @doProfiling(i32 32)
  %195 = call double @llvm.fmuladd.f64(double %194, double %172, double %193), !llfi_index !1692
  call void @doProfiling(i32 56)
  %196 = load double, ptr %arrayidx78, align 8, !tbaa !301, !llfi_index !1693
  call void @doProfiling(i32 32)
  %197 = call double @llvm.fmuladd.f64(double %196, double %187, double %195), !llfi_index !1694
  call void @doProfiling(i32 56)
  %mul361 = fmul double %197, %coefficient, !llfi_index !1695
  call void @doProfiling(i32 18)
  %arrayidx362 = getelementptr inbounds double, ptr %hgfy, i64 1, !llfi_index !1696
  store double %mul361, ptr %arrayidx362, align 8, !tbaa !301, !llfi_index !1697
  %198 = load double, ptr %hourgam2, align 8, !tbaa !301, !llfi_index !1698
  call void @doProfiling(i32 32)
  %199 = load double, ptr %arrayidx32, align 8, !tbaa !301, !llfi_index !1699
  call void @doProfiling(i32 32)
  %mul368 = fmul double %157, %199, !llfi_index !1700
  call void @doProfiling(i32 18)
  %200 = call double @llvm.fmuladd.f64(double %198, double %142, double %mul368), !llfi_index !1701
  call void @doProfiling(i32 56)
  %201 = load double, ptr %arrayidx57, align 8, !tbaa !301, !llfi_index !1702
  call void @doProfiling(i32 32)
  %202 = call double @llvm.fmuladd.f64(double %201, double %172, double %200), !llfi_index !1703
  call void @doProfiling(i32 56)
  %203 = load double, ptr %arrayidx82, align 8, !tbaa !301, !llfi_index !1704
  call void @doProfiling(i32 32)
  %204 = call double @llvm.fmuladd.f64(double %203, double %187, double %202), !llfi_index !1705
  call void @doProfiling(i32 56)
  %mul375 = fmul double %204, %coefficient, !llfi_index !1706
  call void @doProfiling(i32 18)
  %arrayidx376 = getelementptr inbounds double, ptr %hgfy, i64 2, !llfi_index !1707
  store double %mul375, ptr %arrayidx376, align 8, !tbaa !301, !llfi_index !1708
  %205 = load double, ptr %hourgam3, align 8, !tbaa !301, !llfi_index !1709
  call void @doProfiling(i32 32)
  %206 = load double, ptr %arrayidx35, align 8, !tbaa !301, !llfi_index !1710
  call void @doProfiling(i32 32)
  %mul382 = fmul double %157, %206, !llfi_index !1711
  call void @doProfiling(i32 18)
  %207 = call double @llvm.fmuladd.f64(double %205, double %142, double %mul382), !llfi_index !1712
  call void @doProfiling(i32 56)
  %208 = load double, ptr %arrayidx60, align 8, !tbaa !301, !llfi_index !1713
  call void @doProfiling(i32 32)
  %209 = call double @llvm.fmuladd.f64(double %208, double %172, double %207), !llfi_index !1714
  call void @doProfiling(i32 56)
  %210 = load double, ptr %arrayidx85, align 8, !tbaa !301, !llfi_index !1715
  call void @doProfiling(i32 32)
  %211 = call double @llvm.fmuladd.f64(double %210, double %187, double %209), !llfi_index !1716
  call void @doProfiling(i32 56)
  %mul389 = fmul double %211, %coefficient, !llfi_index !1717
  call void @doProfiling(i32 18)
  %arrayidx390 = getelementptr inbounds double, ptr %hgfy, i64 3, !llfi_index !1718
  store double %mul389, ptr %arrayidx390, align 8, !tbaa !301, !llfi_index !1719
  %212 = load double, ptr %hourgam4, align 8, !tbaa !301, !llfi_index !1720
  call void @doProfiling(i32 32)
  %213 = load double, ptr %arrayidx38, align 8, !tbaa !301, !llfi_index !1721
  call void @doProfiling(i32 32)
  %mul396 = fmul double %157, %213, !llfi_index !1722
  call void @doProfiling(i32 18)
  %214 = call double @llvm.fmuladd.f64(double %212, double %142, double %mul396), !llfi_index !1723
  call void @doProfiling(i32 56)
  %215 = load double, ptr %arrayidx63, align 8, !tbaa !301, !llfi_index !1724
  call void @doProfiling(i32 32)
  %216 = call double @llvm.fmuladd.f64(double %215, double %172, double %214), !llfi_index !1725
  call void @doProfiling(i32 56)
  %217 = load double, ptr %arrayidx88, align 8, !tbaa !301, !llfi_index !1726
  call void @doProfiling(i32 32)
  %218 = call double @llvm.fmuladd.f64(double %217, double %187, double %216), !llfi_index !1727
  call void @doProfiling(i32 56)
  %mul403 = fmul double %218, %coefficient, !llfi_index !1728
  call void @doProfiling(i32 18)
  %arrayidx404 = getelementptr inbounds double, ptr %hgfy, i64 4, !llfi_index !1729
  store double %mul403, ptr %arrayidx404, align 8, !tbaa !301, !llfi_index !1730
  %219 = load double, ptr %hourgam5, align 8, !tbaa !301, !llfi_index !1731
  call void @doProfiling(i32 32)
  %220 = load double, ptr %arrayidx41, align 8, !tbaa !301, !llfi_index !1732
  call void @doProfiling(i32 32)
  %mul410 = fmul double %157, %220, !llfi_index !1733
  call void @doProfiling(i32 18)
  %221 = call double @llvm.fmuladd.f64(double %219, double %142, double %mul410), !llfi_index !1734
  call void @doProfiling(i32 56)
  %222 = load double, ptr %arrayidx66, align 8, !tbaa !301, !llfi_index !1735
  call void @doProfiling(i32 32)
  %223 = call double @llvm.fmuladd.f64(double %222, double %172, double %221), !llfi_index !1736
  call void @doProfiling(i32 56)
  %224 = load double, ptr %arrayidx91, align 8, !tbaa !301, !llfi_index !1737
  call void @doProfiling(i32 32)
  %225 = call double @llvm.fmuladd.f64(double %224, double %187, double %223), !llfi_index !1738
  call void @doProfiling(i32 56)
  %mul417 = fmul double %225, %coefficient, !llfi_index !1739
  call void @doProfiling(i32 18)
  %arrayidx418 = getelementptr inbounds double, ptr %hgfy, i64 5, !llfi_index !1740
  store double %mul417, ptr %arrayidx418, align 8, !tbaa !301, !llfi_index !1741
  %226 = load double, ptr %hourgam6, align 8, !tbaa !301, !llfi_index !1742
  call void @doProfiling(i32 32)
  %227 = load double, ptr %arrayidx44, align 8, !tbaa !301, !llfi_index !1743
  call void @doProfiling(i32 32)
  %mul424 = fmul double %157, %227, !llfi_index !1744
  call void @doProfiling(i32 18)
  %228 = call double @llvm.fmuladd.f64(double %226, double %142, double %mul424), !llfi_index !1745
  call void @doProfiling(i32 56)
  %229 = load double, ptr %arrayidx69, align 8, !tbaa !301, !llfi_index !1746
  call void @doProfiling(i32 32)
  %230 = call double @llvm.fmuladd.f64(double %229, double %172, double %228), !llfi_index !1747
  call void @doProfiling(i32 56)
  %231 = load double, ptr %arrayidx94, align 8, !tbaa !301, !llfi_index !1748
  call void @doProfiling(i32 32)
  %232 = call double @llvm.fmuladd.f64(double %231, double %187, double %230), !llfi_index !1749
  call void @doProfiling(i32 56)
  %mul431 = fmul double %232, %coefficient, !llfi_index !1750
  call void @doProfiling(i32 18)
  %arrayidx432 = getelementptr inbounds double, ptr %hgfy, i64 6, !llfi_index !1751
  store double %mul431, ptr %arrayidx432, align 8, !tbaa !301, !llfi_index !1752
  %233 = load double, ptr %hourgam7, align 8, !tbaa !301, !llfi_index !1753
  call void @doProfiling(i32 32)
  %234 = load double, ptr %arrayidx47, align 8, !tbaa !301, !llfi_index !1754
  call void @doProfiling(i32 32)
  %mul438 = fmul double %157, %234, !llfi_index !1755
  call void @doProfiling(i32 18)
  %235 = call double @llvm.fmuladd.f64(double %233, double %142, double %mul438), !llfi_index !1756
  call void @doProfiling(i32 56)
  %236 = load double, ptr %arrayidx72, align 8, !tbaa !301, !llfi_index !1757
  call void @doProfiling(i32 32)
  %237 = call double @llvm.fmuladd.f64(double %236, double %172, double %235), !llfi_index !1758
  call void @doProfiling(i32 56)
  %238 = load double, ptr %arrayidx97, align 8, !tbaa !301, !llfi_index !1759
  call void @doProfiling(i32 32)
  %239 = call double @llvm.fmuladd.f64(double %238, double %187, double %237), !llfi_index !1760
  call void @doProfiling(i32 56)
  %mul445 = fmul double %239, %coefficient, !llfi_index !1761
  call void @doProfiling(i32 18)
  %arrayidx446 = getelementptr inbounds double, ptr %hgfy, i64 7, !llfi_index !1762
  store double %mul445, ptr %arrayidx446, align 8, !tbaa !301, !llfi_index !1763
  %240 = load double, ptr %hourgam0, align 8, !tbaa !301, !llfi_index !1764
  call void @doProfiling(i32 32)
  %241 = load double, ptr %zd, align 8, !tbaa !301, !llfi_index !1765
  call void @doProfiling(i32 32)
  %242 = load double, ptr %hourgam1, align 8, !tbaa !301, !llfi_index !1766
  call void @doProfiling(i32 32)
  %arrayidx453 = getelementptr inbounds double, ptr %zd, i64 1, !llfi_index !1767
  %243 = load double, ptr %arrayidx453, align 8, !tbaa !301, !llfi_index !1768
  call void @doProfiling(i32 32)
  %mul454 = fmul double %242, %243, !llfi_index !1769
  call void @doProfiling(i32 18)
  %244 = call double @llvm.fmuladd.f64(double %240, double %241, double %mul454), !llfi_index !1770
  call void @doProfiling(i32 56)
  %245 = load double, ptr %hourgam2, align 8, !tbaa !301, !llfi_index !1771
  call void @doProfiling(i32 32)
  %arrayidx457 = getelementptr inbounds double, ptr %zd, i64 2, !llfi_index !1772
  %246 = load double, ptr %arrayidx457, align 8, !tbaa !301, !llfi_index !1773
  call void @doProfiling(i32 32)
  %247 = call double @llvm.fmuladd.f64(double %245, double %246, double %244), !llfi_index !1774
  call void @doProfiling(i32 56)
  %248 = load double, ptr %hourgam3, align 8, !tbaa !301, !llfi_index !1775
  call void @doProfiling(i32 32)
  %arrayidx461 = getelementptr inbounds double, ptr %zd, i64 3, !llfi_index !1776
  %249 = load double, ptr %arrayidx461, align 8, !tbaa !301, !llfi_index !1777
  call void @doProfiling(i32 32)
  %250 = call double @llvm.fmuladd.f64(double %248, double %249, double %247), !llfi_index !1778
  call void @doProfiling(i32 56)
  %251 = load double, ptr %hourgam4, align 8, !tbaa !301, !llfi_index !1779
  call void @doProfiling(i32 32)
  %arrayidx465 = getelementptr inbounds double, ptr %zd, i64 4, !llfi_index !1780
  %252 = load double, ptr %arrayidx465, align 8, !tbaa !301, !llfi_index !1781
  call void @doProfiling(i32 32)
  %253 = call double @llvm.fmuladd.f64(double %251, double %252, double %250), !llfi_index !1782
  call void @doProfiling(i32 56)
  %254 = load double, ptr %hourgam5, align 8, !tbaa !301, !llfi_index !1783
  call void @doProfiling(i32 32)
  %arrayidx469 = getelementptr inbounds double, ptr %zd, i64 5, !llfi_index !1784
  %255 = load double, ptr %arrayidx469, align 8, !tbaa !301, !llfi_index !1785
  call void @doProfiling(i32 32)
  %256 = call double @llvm.fmuladd.f64(double %254, double %255, double %253), !llfi_index !1786
  call void @doProfiling(i32 56)
  %257 = load double, ptr %hourgam6, align 8, !tbaa !301, !llfi_index !1787
  call void @doProfiling(i32 32)
  %arrayidx473 = getelementptr inbounds double, ptr %zd, i64 6, !llfi_index !1788
  %258 = load double, ptr %arrayidx473, align 8, !tbaa !301, !llfi_index !1789
  call void @doProfiling(i32 32)
  %259 = call double @llvm.fmuladd.f64(double %257, double %258, double %256), !llfi_index !1790
  call void @doProfiling(i32 56)
  %260 = load double, ptr %hourgam7, align 8, !tbaa !301, !llfi_index !1791
  call void @doProfiling(i32 32)
  %arrayidx477 = getelementptr inbounds double, ptr %zd, i64 7, !llfi_index !1792
  %261 = load double, ptr %arrayidx477, align 8, !tbaa !301, !llfi_index !1793
  call void @doProfiling(i32 32)
  %262 = call double @llvm.fmuladd.f64(double %260, double %261, double %259), !llfi_index !1794
  call void @doProfiling(i32 56)
  %263 = load double, ptr %arrayidx25, align 8, !tbaa !301, !llfi_index !1795
  call void @doProfiling(i32 32)
  %264 = load double, ptr %arrayidx28, align 8, !tbaa !301, !llfi_index !1796
  call void @doProfiling(i32 32)
  %mul486 = fmul double %243, %264, !llfi_index !1797
  call void @doProfiling(i32 18)
  %265 = call double @llvm.fmuladd.f64(double %263, double %241, double %mul486), !llfi_index !1798
  call void @doProfiling(i32 56)
  %266 = load double, ptr %arrayidx32, align 8, !tbaa !301, !llfi_index !1799
  call void @doProfiling(i32 32)
  %267 = call double @llvm.fmuladd.f64(double %266, double %246, double %265), !llfi_index !1800
  call void @doProfiling(i32 56)
  %268 = load double, ptr %arrayidx35, align 8, !tbaa !301, !llfi_index !1801
  call void @doProfiling(i32 32)
  %269 = call double @llvm.fmuladd.f64(double %268, double %249, double %267), !llfi_index !1802
  call void @doProfiling(i32 56)
  %270 = load double, ptr %arrayidx38, align 8, !tbaa !301, !llfi_index !1803
  call void @doProfiling(i32 32)
  %271 = call double @llvm.fmuladd.f64(double %270, double %252, double %269), !llfi_index !1804
  call void @doProfiling(i32 56)
  %272 = load double, ptr %arrayidx41, align 8, !tbaa !301, !llfi_index !1805
  call void @doProfiling(i32 32)
  %273 = call double @llvm.fmuladd.f64(double %272, double %255, double %271), !llfi_index !1806
  call void @doProfiling(i32 56)
  %274 = load double, ptr %arrayidx44, align 8, !tbaa !301, !llfi_index !1807
  call void @doProfiling(i32 32)
  %275 = call double @llvm.fmuladd.f64(double %274, double %258, double %273), !llfi_index !1808
  call void @doProfiling(i32 56)
  %276 = load double, ptr %arrayidx47, align 8, !tbaa !301, !llfi_index !1809
  call void @doProfiling(i32 32)
  %277 = call double @llvm.fmuladd.f64(double %276, double %261, double %275), !llfi_index !1810
  call void @doProfiling(i32 56)
  %278 = load double, ptr %arrayidx50, align 8, !tbaa !301, !llfi_index !1811
  call void @doProfiling(i32 32)
  %279 = load double, ptr %arrayidx53, align 8, !tbaa !301, !llfi_index !1812
  call void @doProfiling(i32 32)
  %mul518 = fmul double %243, %279, !llfi_index !1813
  call void @doProfiling(i32 18)
  %280 = call double @llvm.fmuladd.f64(double %278, double %241, double %mul518), !llfi_index !1814
  call void @doProfiling(i32 56)
  %281 = load double, ptr %arrayidx57, align 8, !tbaa !301, !llfi_index !1815
  call void @doProfiling(i32 32)
  %282 = call double @llvm.fmuladd.f64(double %281, double %246, double %280), !llfi_index !1816
  call void @doProfiling(i32 56)
  %283 = load double, ptr %arrayidx60, align 8, !tbaa !301, !llfi_index !1817
  call void @doProfiling(i32 32)
  %284 = call double @llvm.fmuladd.f64(double %283, double %249, double %282), !llfi_index !1818
  call void @doProfiling(i32 56)
  %285 = load double, ptr %arrayidx63, align 8, !tbaa !301, !llfi_index !1819
  call void @doProfiling(i32 32)
  %286 = call double @llvm.fmuladd.f64(double %285, double %252, double %284), !llfi_index !1820
  call void @doProfiling(i32 56)
  %287 = load double, ptr %arrayidx66, align 8, !tbaa !301, !llfi_index !1821
  call void @doProfiling(i32 32)
  %288 = call double @llvm.fmuladd.f64(double %287, double %255, double %286), !llfi_index !1822
  call void @doProfiling(i32 56)
  %289 = load double, ptr %arrayidx69, align 8, !tbaa !301, !llfi_index !1823
  call void @doProfiling(i32 32)
  %290 = call double @llvm.fmuladd.f64(double %289, double %258, double %288), !llfi_index !1824
  call void @doProfiling(i32 56)
  %291 = load double, ptr %arrayidx72, align 8, !tbaa !301, !llfi_index !1825
  call void @doProfiling(i32 32)
  %292 = call double @llvm.fmuladd.f64(double %291, double %261, double %290), !llfi_index !1826
  call void @doProfiling(i32 56)
  %293 = load double, ptr %arrayidx75, align 8, !tbaa !301, !llfi_index !1827
  call void @doProfiling(i32 32)
  %294 = load double, ptr %arrayidx78, align 8, !tbaa !301, !llfi_index !1828
  call void @doProfiling(i32 32)
  %mul550 = fmul double %243, %294, !llfi_index !1829
  call void @doProfiling(i32 18)
  %295 = call double @llvm.fmuladd.f64(double %293, double %241, double %mul550), !llfi_index !1830
  call void @doProfiling(i32 56)
  %296 = load double, ptr %arrayidx82, align 8, !tbaa !301, !llfi_index !1831
  call void @doProfiling(i32 32)
  %297 = call double @llvm.fmuladd.f64(double %296, double %246, double %295), !llfi_index !1832
  call void @doProfiling(i32 56)
  %298 = load double, ptr %arrayidx85, align 8, !tbaa !301, !llfi_index !1833
  call void @doProfiling(i32 32)
  %299 = call double @llvm.fmuladd.f64(double %298, double %249, double %297), !llfi_index !1834
  call void @doProfiling(i32 56)
  %300 = load double, ptr %arrayidx88, align 8, !tbaa !301, !llfi_index !1835
  call void @doProfiling(i32 32)
  %301 = call double @llvm.fmuladd.f64(double %300, double %252, double %299), !llfi_index !1836
  call void @doProfiling(i32 56)
  %302 = load double, ptr %arrayidx91, align 8, !tbaa !301, !llfi_index !1837
  call void @doProfiling(i32 32)
  %303 = call double @llvm.fmuladd.f64(double %302, double %255, double %301), !llfi_index !1838
  call void @doProfiling(i32 56)
  %304 = load double, ptr %arrayidx94, align 8, !tbaa !301, !llfi_index !1839
  call void @doProfiling(i32 32)
  %305 = call double @llvm.fmuladd.f64(double %304, double %258, double %303), !llfi_index !1840
  call void @doProfiling(i32 56)
  %306 = load double, ptr %arrayidx97, align 8, !tbaa !301, !llfi_index !1841
  call void @doProfiling(i32 32)
  %307 = call double @llvm.fmuladd.f64(double %306, double %261, double %305), !llfi_index !1842
  call void @doProfiling(i32 56)
  %mul580 = fmul double %263, %277, !llfi_index !1843
  call void @doProfiling(i32 18)
  %308 = call double @llvm.fmuladd.f64(double %240, double %262, double %mul580), !llfi_index !1844
  call void @doProfiling(i32 56)
  %309 = call double @llvm.fmuladd.f64(double %278, double %292, double %308), !llfi_index !1845
  call void @doProfiling(i32 56)
  %310 = call double @llvm.fmuladd.f64(double %293, double %307, double %309), !llfi_index !1846
  call void @doProfiling(i32 56)
  %mul587 = fmul double %310, %coefficient, !llfi_index !1847
  call void @doProfiling(i32 18)
  store double %mul587, ptr %hgfz, align 8, !tbaa !301, !llfi_index !1848
  %311 = load double, ptr %hourgam1, align 8, !tbaa !301, !llfi_index !1849
  call void @doProfiling(i32 32)
  %312 = load double, ptr %arrayidx28, align 8, !tbaa !301, !llfi_index !1850
  call void @doProfiling(i32 32)
  %mul594 = fmul double %277, %312, !llfi_index !1851
  call void @doProfiling(i32 18)
  %313 = call double @llvm.fmuladd.f64(double %311, double %262, double %mul594), !llfi_index !1852
  call void @doProfiling(i32 56)
  %314 = load double, ptr %arrayidx53, align 8, !tbaa !301, !llfi_index !1853
  call void @doProfiling(i32 32)
  %315 = call double @llvm.fmuladd.f64(double %314, double %292, double %313), !llfi_index !1854
  call void @doProfiling(i32 56)
  %316 = load double, ptr %arrayidx78, align 8, !tbaa !301, !llfi_index !1855
  call void @doProfiling(i32 32)
  %317 = call double @llvm.fmuladd.f64(double %316, double %307, double %315), !llfi_index !1856
  call void @doProfiling(i32 56)
  %mul601 = fmul double %317, %coefficient, !llfi_index !1857
  call void @doProfiling(i32 18)
  %arrayidx602 = getelementptr inbounds double, ptr %hgfz, i64 1, !llfi_index !1858
  store double %mul601, ptr %arrayidx602, align 8, !tbaa !301, !llfi_index !1859
  %318 = load double, ptr %hourgam2, align 8, !tbaa !301, !llfi_index !1860
  call void @doProfiling(i32 32)
  %319 = load double, ptr %arrayidx32, align 8, !tbaa !301, !llfi_index !1861
  call void @doProfiling(i32 32)
  %mul608 = fmul double %277, %319, !llfi_index !1862
  call void @doProfiling(i32 18)
  %320 = call double @llvm.fmuladd.f64(double %318, double %262, double %mul608), !llfi_index !1863
  call void @doProfiling(i32 56)
  %321 = load double, ptr %arrayidx57, align 8, !tbaa !301, !llfi_index !1864
  call void @doProfiling(i32 32)
  %322 = call double @llvm.fmuladd.f64(double %321, double %292, double %320), !llfi_index !1865
  call void @doProfiling(i32 56)
  %323 = load double, ptr %arrayidx82, align 8, !tbaa !301, !llfi_index !1866
  call void @doProfiling(i32 32)
  %324 = call double @llvm.fmuladd.f64(double %323, double %307, double %322), !llfi_index !1867
  call void @doProfiling(i32 56)
  %mul615 = fmul double %324, %coefficient, !llfi_index !1868
  call void @doProfiling(i32 18)
  %arrayidx616 = getelementptr inbounds double, ptr %hgfz, i64 2, !llfi_index !1869
  store double %mul615, ptr %arrayidx616, align 8, !tbaa !301, !llfi_index !1870
  %325 = load double, ptr %hourgam3, align 8, !tbaa !301, !llfi_index !1871
  call void @doProfiling(i32 32)
  %326 = load double, ptr %arrayidx35, align 8, !tbaa !301, !llfi_index !1872
  call void @doProfiling(i32 32)
  %mul622 = fmul double %277, %326, !llfi_index !1873
  call void @doProfiling(i32 18)
  %327 = call double @llvm.fmuladd.f64(double %325, double %262, double %mul622), !llfi_index !1874
  call void @doProfiling(i32 56)
  %328 = load double, ptr %arrayidx60, align 8, !tbaa !301, !llfi_index !1875
  call void @doProfiling(i32 32)
  %329 = call double @llvm.fmuladd.f64(double %328, double %292, double %327), !llfi_index !1876
  call void @doProfiling(i32 56)
  %330 = load double, ptr %arrayidx85, align 8, !tbaa !301, !llfi_index !1877
  call void @doProfiling(i32 32)
  %331 = call double @llvm.fmuladd.f64(double %330, double %307, double %329), !llfi_index !1878
  call void @doProfiling(i32 56)
  %mul629 = fmul double %331, %coefficient, !llfi_index !1879
  call void @doProfiling(i32 18)
  %arrayidx630 = getelementptr inbounds double, ptr %hgfz, i64 3, !llfi_index !1880
  store double %mul629, ptr %arrayidx630, align 8, !tbaa !301, !llfi_index !1881
  %332 = load double, ptr %hourgam4, align 8, !tbaa !301, !llfi_index !1882
  call void @doProfiling(i32 32)
  %333 = load double, ptr %arrayidx38, align 8, !tbaa !301, !llfi_index !1883
  call void @doProfiling(i32 32)
  %mul636 = fmul double %277, %333, !llfi_index !1884
  call void @doProfiling(i32 18)
  %334 = call double @llvm.fmuladd.f64(double %332, double %262, double %mul636), !llfi_index !1885
  call void @doProfiling(i32 56)
  %335 = load double, ptr %arrayidx63, align 8, !tbaa !301, !llfi_index !1886
  call void @doProfiling(i32 32)
  %336 = call double @llvm.fmuladd.f64(double %335, double %292, double %334), !llfi_index !1887
  call void @doProfiling(i32 56)
  %337 = load double, ptr %arrayidx88, align 8, !tbaa !301, !llfi_index !1888
  call void @doProfiling(i32 32)
  %338 = call double @llvm.fmuladd.f64(double %337, double %307, double %336), !llfi_index !1889
  call void @doProfiling(i32 56)
  %mul643 = fmul double %338, %coefficient, !llfi_index !1890
  call void @doProfiling(i32 18)
  %arrayidx644 = getelementptr inbounds double, ptr %hgfz, i64 4, !llfi_index !1891
  store double %mul643, ptr %arrayidx644, align 8, !tbaa !301, !llfi_index !1892
  %339 = load double, ptr %hourgam5, align 8, !tbaa !301, !llfi_index !1893
  call void @doProfiling(i32 32)
  %340 = load double, ptr %arrayidx41, align 8, !tbaa !301, !llfi_index !1894
  call void @doProfiling(i32 32)
  %mul650 = fmul double %277, %340, !llfi_index !1895
  call void @doProfiling(i32 18)
  %341 = call double @llvm.fmuladd.f64(double %339, double %262, double %mul650), !llfi_index !1896
  call void @doProfiling(i32 56)
  %342 = load double, ptr %arrayidx66, align 8, !tbaa !301, !llfi_index !1897
  call void @doProfiling(i32 32)
  %343 = call double @llvm.fmuladd.f64(double %342, double %292, double %341), !llfi_index !1898
  call void @doProfiling(i32 56)
  %344 = load double, ptr %arrayidx91, align 8, !tbaa !301, !llfi_index !1899
  call void @doProfiling(i32 32)
  %345 = call double @llvm.fmuladd.f64(double %344, double %307, double %343), !llfi_index !1900
  call void @doProfiling(i32 56)
  %mul657 = fmul double %345, %coefficient, !llfi_index !1901
  call void @doProfiling(i32 18)
  %arrayidx658 = getelementptr inbounds double, ptr %hgfz, i64 5, !llfi_index !1902
  store double %mul657, ptr %arrayidx658, align 8, !tbaa !301, !llfi_index !1903
  %346 = load double, ptr %hourgam6, align 8, !tbaa !301, !llfi_index !1904
  call void @doProfiling(i32 32)
  %347 = load double, ptr %arrayidx44, align 8, !tbaa !301, !llfi_index !1905
  call void @doProfiling(i32 32)
  %mul664 = fmul double %277, %347, !llfi_index !1906
  call void @doProfiling(i32 18)
  %348 = call double @llvm.fmuladd.f64(double %346, double %262, double %mul664), !llfi_index !1907
  call void @doProfiling(i32 56)
  %349 = load double, ptr %arrayidx69, align 8, !tbaa !301, !llfi_index !1908
  call void @doProfiling(i32 32)
  %350 = call double @llvm.fmuladd.f64(double %349, double %292, double %348), !llfi_index !1909
  call void @doProfiling(i32 56)
  %351 = load double, ptr %arrayidx94, align 8, !tbaa !301, !llfi_index !1910
  call void @doProfiling(i32 32)
  %352 = call double @llvm.fmuladd.f64(double %351, double %307, double %350), !llfi_index !1911
  call void @doProfiling(i32 56)
  %mul671 = fmul double %352, %coefficient, !llfi_index !1912
  call void @doProfiling(i32 18)
  %arrayidx672 = getelementptr inbounds double, ptr %hgfz, i64 6, !llfi_index !1913
  store double %mul671, ptr %arrayidx672, align 8, !tbaa !301, !llfi_index !1914
  %353 = load double, ptr %hourgam7, align 8, !tbaa !301, !llfi_index !1915
  call void @doProfiling(i32 32)
  %354 = load double, ptr %arrayidx47, align 8, !tbaa !301, !llfi_index !1916
  call void @doProfiling(i32 32)
  %mul678 = fmul double %277, %354, !llfi_index !1917
  call void @doProfiling(i32 18)
  %355 = call double @llvm.fmuladd.f64(double %353, double %262, double %mul678), !llfi_index !1918
  call void @doProfiling(i32 56)
  %356 = load double, ptr %arrayidx72, align 8, !tbaa !301, !llfi_index !1919
  call void @doProfiling(i32 32)
  %357 = call double @llvm.fmuladd.f64(double %356, double %292, double %355), !llfi_index !1920
  call void @doProfiling(i32 56)
  %358 = load double, ptr %arrayidx97, align 8, !tbaa !301, !llfi_index !1921
  call void @doProfiling(i32 32)
  %359 = call double @llvm.fmuladd.f64(double %358, double %307, double %357), !llfi_index !1922
  call void @doProfiling(i32 56)
  %mul685 = fmul double %359, %coefficient, !llfi_index !1923
  call void @doProfiling(i32 18)
  %arrayidx686 = getelementptr inbounds double, ptr %hgfz, i64 7, !llfi_index !1924
  store double %mul685, ptr %arrayidx686, align 8, !tbaa !301, !llfi_index !1925
  ret void, !llfi_index !1926
}

; Function Attrs: mustprogress nofree noinline nosync nounwind uwtable
define dso_local void @_Z28CalcFBHourglassForceForElemsPdS_S_S_S_S_S_d(ptr nocapture noundef readonly %determ, ptr nocapture noundef readonly %x8n, ptr nocapture noundef readonly %y8n, ptr nocapture noundef readonly %z8n, ptr nocapture noundef readonly %dvdx, ptr nocapture noundef readonly %dvdy, ptr nocapture noundef readonly %dvdz, double noundef %hourg) local_unnamed_addr #11 {
entry:
  %hgfx = alloca [8 x double], align 16, !llfi_index !1927
  call void @doProfiling(i32 31)
  %hgfy = alloca [8 x double], align 16, !llfi_index !1928
  call void @doProfiling(i32 31)
  %hgfz = alloca [8 x double], align 16, !llfi_index !1929
  call void @doProfiling(i32 31)
  %gamma = alloca [4 x [8 x double]], align 16, !llfi_index !1930
  call void @doProfiling(i32 31)
  %hourgam0 = alloca [4 x double], align 16, !llfi_index !1931
  call void @doProfiling(i32 31)
  %hourgam1 = alloca [4 x double], align 16, !llfi_index !1932
  call void @doProfiling(i32 31)
  %hourgam2 = alloca [4 x double], align 16, !llfi_index !1933
  call void @doProfiling(i32 31)
  %hourgam3 = alloca [4 x double], align 16, !llfi_index !1934
  call void @doProfiling(i32 31)
  %hourgam4 = alloca [4 x double], align 16, !llfi_index !1935
  call void @doProfiling(i32 31)
  %hourgam5 = alloca [4 x double], align 16, !llfi_index !1936
  call void @doProfiling(i32 31)
  %hourgam6 = alloca [4 x double], align 16, !llfi_index !1937
  call void @doProfiling(i32 31)
  %hourgam7 = alloca [4 x double], align 16, !llfi_index !1938
  call void @doProfiling(i32 31)
  %xd1 = alloca [8 x double], align 16, !llfi_index !1939
  call void @doProfiling(i32 31)
  %yd1 = alloca [8 x double], align 16, !llfi_index !1940
  call void @doProfiling(i32 31)
  %zd1 = alloca [8 x double], align 16, !llfi_index !1941
  call void @doProfiling(i32 31)
  %0 = load i32, ptr getelementptr inbounds (%struct.Mesh, ptr @mesh, i64 0, i32 79), align 8, !tbaa !360, !llfi_index !1942
  call void @doProfiling(i32 32)
  call void @llvm.lifetime.start.p0(i64 64, ptr nonnull %hgfx) #2, !llfi_index !1943
  call void @llvm.lifetime.start.p0(i64 64, ptr nonnull %hgfy) #2, !llfi_index !1944
  call void @llvm.lifetime.start.p0(i64 64, ptr nonnull %hgfz) #2, !llfi_index !1945
  call void @llvm.lifetime.start.p0(i64 256, ptr nonnull %gamma) #2, !llfi_index !1946
  call void @llvm.lifetime.start.p0(i64 32, ptr nonnull %hourgam0) #2, !llfi_index !1947
  call void @llvm.lifetime.start.p0(i64 32, ptr nonnull %hourgam1) #2, !llfi_index !1948
  call void @llvm.lifetime.start.p0(i64 32, ptr nonnull %hourgam2) #2, !llfi_index !1949
  call void @llvm.lifetime.start.p0(i64 32, ptr nonnull %hourgam3) #2, !llfi_index !1950
  call void @llvm.lifetime.start.p0(i64 32, ptr nonnull %hourgam4) #2, !llfi_index !1951
  call void @llvm.lifetime.start.p0(i64 32, ptr nonnull %hourgam5) #2, !llfi_index !1952
  call void @llvm.lifetime.start.p0(i64 32, ptr nonnull %hourgam6) #2, !llfi_index !1953
  call void @llvm.lifetime.start.p0(i64 32, ptr nonnull %hourgam7) #2, !llfi_index !1954
  call void @llvm.lifetime.start.p0(i64 64, ptr nonnull %xd1) #2, !llfi_index !1955
  call void @llvm.lifetime.start.p0(i64 64, ptr nonnull %yd1) #2, !llfi_index !1956
  call void @llvm.lifetime.start.p0(i64 64, ptr nonnull %zd1) #2, !llfi_index !1957
  store double 1.000000e+00, ptr %gamma, align 16, !tbaa !301, !llfi_index !1958
  %arrayidx3 = getelementptr inbounds [8 x double], ptr %gamma, i64 0, i64 1, !llfi_index !1959
  store double 1.000000e+00, ptr %arrayidx3, align 8, !tbaa !301, !llfi_index !1960
  %arrayidx5 = getelementptr inbounds [8 x double], ptr %gamma, i64 0, i64 2, !llfi_index !1961
  store double -1.000000e+00, ptr %arrayidx5, align 16, !tbaa !301, !llfi_index !1962
  %arrayidx7 = getelementptr inbounds [8 x double], ptr %gamma, i64 0, i64 3, !llfi_index !1963
  store double -1.000000e+00, ptr %arrayidx7, align 8, !tbaa !301, !llfi_index !1964
  %arrayidx9 = getelementptr inbounds [8 x double], ptr %gamma, i64 0, i64 4, !llfi_index !1965
  store double -1.000000e+00, ptr %arrayidx9, align 16, !tbaa !301, !llfi_index !1966
  %arrayidx11 = getelementptr inbounds [8 x double], ptr %gamma, i64 0, i64 5, !llfi_index !1967
  store double -1.000000e+00, ptr %arrayidx11, align 8, !tbaa !301, !llfi_index !1968
  %arrayidx13 = getelementptr inbounds [8 x double], ptr %gamma, i64 0, i64 6, !llfi_index !1969
  store double 1.000000e+00, ptr %arrayidx13, align 16, !tbaa !301, !llfi_index !1970
  %arrayidx15 = getelementptr inbounds [8 x double], ptr %gamma, i64 0, i64 7, !llfi_index !1971
  store double 1.000000e+00, ptr %arrayidx15, align 8, !tbaa !301, !llfi_index !1972
  %arrayidx16 = getelementptr inbounds [4 x [8 x double]], ptr %gamma, i64 0, i64 1, !llfi_index !1973
  store double 1.000000e+00, ptr %arrayidx16, align 16, !tbaa !301, !llfi_index !1974
  %arrayidx19 = getelementptr inbounds [4 x [8 x double]], ptr %gamma, i64 0, i64 1, i64 1, !llfi_index !1975
  store double -1.000000e+00, ptr %arrayidx19, align 8, !tbaa !301, !llfi_index !1976
  %arrayidx21 = getelementptr inbounds [4 x [8 x double]], ptr %gamma, i64 0, i64 1, i64 2, !llfi_index !1977
  store double -1.000000e+00, ptr %arrayidx21, align 16, !tbaa !301, !llfi_index !1978
  %arrayidx23 = getelementptr inbounds [4 x [8 x double]], ptr %gamma, i64 0, i64 1, i64 3, !llfi_index !1979
  store double 1.000000e+00, ptr %arrayidx23, align 8, !tbaa !301, !llfi_index !1980
  %arrayidx25 = getelementptr inbounds [4 x [8 x double]], ptr %gamma, i64 0, i64 1, i64 4, !llfi_index !1981
  store double -1.000000e+00, ptr %arrayidx25, align 16, !tbaa !301, !llfi_index !1982
  %arrayidx27 = getelementptr inbounds [4 x [8 x double]], ptr %gamma, i64 0, i64 1, i64 5, !llfi_index !1983
  store double 1.000000e+00, ptr %arrayidx27, align 8, !tbaa !301, !llfi_index !1984
  %arrayidx29 = getelementptr inbounds [4 x [8 x double]], ptr %gamma, i64 0, i64 1, i64 6, !llfi_index !1985
  store double 1.000000e+00, ptr %arrayidx29, align 16, !tbaa !301, !llfi_index !1986
  %arrayidx31 = getelementptr inbounds [4 x [8 x double]], ptr %gamma, i64 0, i64 1, i64 7, !llfi_index !1987
  store double -1.000000e+00, ptr %arrayidx31, align 8, !tbaa !301, !llfi_index !1988
  %arrayidx32 = getelementptr inbounds [4 x [8 x double]], ptr %gamma, i64 0, i64 2, !llfi_index !1989
  store double 1.000000e+00, ptr %arrayidx32, align 16, !tbaa !301, !llfi_index !1990
  %arrayidx35 = getelementptr inbounds [4 x [8 x double]], ptr %gamma, i64 0, i64 2, i64 1, !llfi_index !1991
  store double -1.000000e+00, ptr %arrayidx35, align 8, !tbaa !301, !llfi_index !1992
  %arrayidx37 = getelementptr inbounds [4 x [8 x double]], ptr %gamma, i64 0, i64 2, i64 2, !llfi_index !1993
  store double 1.000000e+00, ptr %arrayidx37, align 16, !tbaa !301, !llfi_index !1994
  %arrayidx39 = getelementptr inbounds [4 x [8 x double]], ptr %gamma, i64 0, i64 2, i64 3, !llfi_index !1995
  store double -1.000000e+00, ptr %arrayidx39, align 8, !tbaa !301, !llfi_index !1996
  %arrayidx41 = getelementptr inbounds [4 x [8 x double]], ptr %gamma, i64 0, i64 2, i64 4, !llfi_index !1997
  store double 1.000000e+00, ptr %arrayidx41, align 16, !tbaa !301, !llfi_index !1998
  %arrayidx43 = getelementptr inbounds [4 x [8 x double]], ptr %gamma, i64 0, i64 2, i64 5, !llfi_index !1999
  store double -1.000000e+00, ptr %arrayidx43, align 8, !tbaa !301, !llfi_index !2000
  %arrayidx45 = getelementptr inbounds [4 x [8 x double]], ptr %gamma, i64 0, i64 2, i64 6, !llfi_index !2001
  store double 1.000000e+00, ptr %arrayidx45, align 16, !tbaa !301, !llfi_index !2002
  %arrayidx47 = getelementptr inbounds [4 x [8 x double]], ptr %gamma, i64 0, i64 2, i64 7, !llfi_index !2003
  store double -1.000000e+00, ptr %arrayidx47, align 8, !tbaa !301, !llfi_index !2004
  %arrayidx48 = getelementptr inbounds [4 x [8 x double]], ptr %gamma, i64 0, i64 3, !llfi_index !2005
  store double -1.000000e+00, ptr %arrayidx48, align 16, !tbaa !301, !llfi_index !2006
  %arrayidx51 = getelementptr inbounds [4 x [8 x double]], ptr %gamma, i64 0, i64 3, i64 1, !llfi_index !2007
  store double 1.000000e+00, ptr %arrayidx51, align 8, !tbaa !301, !llfi_index !2008
  %arrayidx53 = getelementptr inbounds [4 x [8 x double]], ptr %gamma, i64 0, i64 3, i64 2, !llfi_index !2009
  store double -1.000000e+00, ptr %arrayidx53, align 16, !tbaa !301, !llfi_index !2010
  %arrayidx55 = getelementptr inbounds [4 x [8 x double]], ptr %gamma, i64 0, i64 3, i64 3, !llfi_index !2011
  store double 1.000000e+00, ptr %arrayidx55, align 8, !tbaa !301, !llfi_index !2012
  %arrayidx57 = getelementptr inbounds [4 x [8 x double]], ptr %gamma, i64 0, i64 3, i64 4, !llfi_index !2013
  store double 1.000000e+00, ptr %arrayidx57, align 16, !tbaa !301, !llfi_index !2014
  %arrayidx59 = getelementptr inbounds [4 x [8 x double]], ptr %gamma, i64 0, i64 3, i64 5, !llfi_index !2015
  store double -1.000000e+00, ptr %arrayidx59, align 8, !tbaa !301, !llfi_index !2016
  %arrayidx61 = getelementptr inbounds [4 x [8 x double]], ptr %gamma, i64 0, i64 3, i64 6, !llfi_index !2017
  store double 1.000000e+00, ptr %arrayidx61, align 16, !tbaa !301, !llfi_index !2018
  %arrayidx63 = getelementptr inbounds [4 x [8 x double]], ptr %gamma, i64 0, i64 3, i64 7, !llfi_index !2019
  store double -1.000000e+00, ptr %arrayidx63, align 8, !tbaa !301, !llfi_index !2020
  %cmp849 = icmp sgt i32 %0, 0, !llfi_index !2021
  call void @doProfiling(i32 53)
  br i1 %cmp849, label %for.body.lr.ph, label %for.cond.cleanup, !llfi_index !2022

for.body.lr.ph:                                   ; preds = %entry
  %1 = load ptr, ptr getelementptr inbounds (%struct.Mesh, ptr @mesh, i64 0, i32 17), align 8, !tbaa !149, !llfi_index !2023
  call void @doProfiling(i32 32)
  %2 = load ptr, ptr getelementptr inbounds (%struct.Mesh, ptr @mesh, i64 0, i32 45), align 8, !tbaa !11, !llfi_index !2024
  call void @doProfiling(i32 32)
  %3 = load ptr, ptr getelementptr inbounds (%struct.Mesh, ptr @mesh, i64 0, i32 46), align 8, !tbaa !11, !llfi_index !2025
  call void @doProfiling(i32 32)
  %4 = load ptr, ptr getelementptr inbounds (%struct.Mesh, ptr @mesh, i64 0, i32 3), align 8, !tbaa !11, !llfi_index !2026
  call void @doProfiling(i32 32)
  %arrayidx398 = getelementptr inbounds [8 x double], ptr %xd1, i64 0, i64 1, !llfi_index !2027
  %arrayidx400 = getelementptr inbounds [8 x double], ptr %xd1, i64 0, i64 2, !llfi_index !2028
  %arrayidx402 = getelementptr inbounds [8 x double], ptr %xd1, i64 0, i64 3, !llfi_index !2029
  %arrayidx404 = getelementptr inbounds [8 x double], ptr %xd1, i64 0, i64 4, !llfi_index !2030
  %arrayidx406 = getelementptr inbounds [8 x double], ptr %xd1, i64 0, i64 5, !llfi_index !2031
  %arrayidx408 = getelementptr inbounds [8 x double], ptr %xd1, i64 0, i64 6, !llfi_index !2032
  %arrayidx410 = getelementptr inbounds [8 x double], ptr %xd1, i64 0, i64 7, !llfi_index !2033
  %5 = load ptr, ptr getelementptr inbounds (%struct.Mesh, ptr @mesh, i64 0, i32 4), align 8, !tbaa !11, !llfi_index !2034
  call void @doProfiling(i32 32)
  %arrayidx414 = getelementptr inbounds [8 x double], ptr %yd1, i64 0, i64 1, !llfi_index !2035
  %arrayidx416 = getelementptr inbounds [8 x double], ptr %yd1, i64 0, i64 2, !llfi_index !2036
  %arrayidx418 = getelementptr inbounds [8 x double], ptr %yd1, i64 0, i64 3, !llfi_index !2037
  %arrayidx420 = getelementptr inbounds [8 x double], ptr %yd1, i64 0, i64 4, !llfi_index !2038
  %arrayidx422 = getelementptr inbounds [8 x double], ptr %yd1, i64 0, i64 5, !llfi_index !2039
  %arrayidx424 = getelementptr inbounds [8 x double], ptr %yd1, i64 0, i64 6, !llfi_index !2040
  %arrayidx426 = getelementptr inbounds [8 x double], ptr %yd1, i64 0, i64 7, !llfi_index !2041
  %6 = load ptr, ptr getelementptr inbounds (%struct.Mesh, ptr @mesh, i64 0, i32 5), align 8, !tbaa !11, !llfi_index !2042
  call void @doProfiling(i32 32)
  %arrayidx430 = getelementptr inbounds [8 x double], ptr %zd1, i64 0, i64 1, !llfi_index !2043
  %arrayidx432 = getelementptr inbounds [8 x double], ptr %zd1, i64 0, i64 2, !llfi_index !2044
  %arrayidx434 = getelementptr inbounds [8 x double], ptr %zd1, i64 0, i64 3, !llfi_index !2045
  %arrayidx436 = getelementptr inbounds [8 x double], ptr %zd1, i64 0, i64 4, !llfi_index !2046
  %arrayidx438 = getelementptr inbounds [8 x double], ptr %zd1, i64 0, i64 5, !llfi_index !2047
  %arrayidx440 = getelementptr inbounds [8 x double], ptr %zd1, i64 0, i64 6, !llfi_index !2048
  %arrayidx442 = getelementptr inbounds [8 x double], ptr %zd1, i64 0, i64 7, !llfi_index !2049
  %mul443 = fmul double %hourg, -1.000000e-02, !llfi_index !2050
  call void @doProfiling(i32 18)
  %7 = load ptr, ptr getelementptr inbounds (%struct.Mesh, ptr @mesh, i64 0, i32 9), align 8, !tbaa !11, !llfi_index !2051
  call void @doProfiling(i32 32)
  %8 = load ptr, ptr getelementptr inbounds (%struct.Mesh, ptr @mesh, i64 0, i32 10), align 8, !tbaa !11, !llfi_index !2052
  call void @doProfiling(i32 32)
  %9 = load ptr, ptr getelementptr inbounds (%struct.Mesh, ptr @mesh, i64 0, i32 11), align 8, !tbaa !11, !llfi_index !2053
  call void @doProfiling(i32 32)
  %arrayidx469 = getelementptr inbounds [8 x double], ptr %hgfx, i64 0, i64 1, !llfi_index !2054
  %arrayidx472 = getelementptr inbounds [8 x double], ptr %hgfy, i64 0, i64 1, !llfi_index !2055
  %arrayidx475 = getelementptr inbounds [8 x double], ptr %hgfz, i64 0, i64 1, !llfi_index !2056
  %arrayidx478 = getelementptr inbounds [8 x double], ptr %hgfx, i64 0, i64 2, !llfi_index !2057
  %arrayidx481 = getelementptr inbounds [8 x double], ptr %hgfy, i64 0, i64 2, !llfi_index !2058
  %arrayidx484 = getelementptr inbounds [8 x double], ptr %hgfz, i64 0, i64 2, !llfi_index !2059
  %arrayidx487 = getelementptr inbounds [8 x double], ptr %hgfx, i64 0, i64 3, !llfi_index !2060
  %arrayidx490 = getelementptr inbounds [8 x double], ptr %hgfy, i64 0, i64 3, !llfi_index !2061
  %arrayidx493 = getelementptr inbounds [8 x double], ptr %hgfz, i64 0, i64 3, !llfi_index !2062
  %arrayidx496 = getelementptr inbounds [8 x double], ptr %hgfx, i64 0, i64 4, !llfi_index !2063
  %arrayidx499 = getelementptr inbounds [8 x double], ptr %hgfy, i64 0, i64 4, !llfi_index !2064
  %arrayidx502 = getelementptr inbounds [8 x double], ptr %hgfz, i64 0, i64 4, !llfi_index !2065
  %arrayidx505 = getelementptr inbounds [8 x double], ptr %hgfx, i64 0, i64 5, !llfi_index !2066
  %arrayidx508 = getelementptr inbounds [8 x double], ptr %hgfy, i64 0, i64 5, !llfi_index !2067
  %arrayidx511 = getelementptr inbounds [8 x double], ptr %hgfz, i64 0, i64 5, !llfi_index !2068
  %arrayidx514 = getelementptr inbounds [8 x double], ptr %hgfx, i64 0, i64 6, !llfi_index !2069
  %arrayidx517 = getelementptr inbounds [8 x double], ptr %hgfy, i64 0, i64 6, !llfi_index !2070
  %arrayidx520 = getelementptr inbounds [8 x double], ptr %hgfz, i64 0, i64 6, !llfi_index !2071
  %arrayidx523 = getelementptr inbounds [8 x double], ptr %hgfx, i64 0, i64 7, !llfi_index !2072
  %arrayidx526 = getelementptr inbounds [8 x double], ptr %hgfy, i64 0, i64 7, !llfi_index !2073
  %arrayidx529 = getelementptr inbounds [8 x double], ptr %hgfz, i64 0, i64 7, !llfi_index !2074
  %wide.trip.count = zext i32 %0 to i64, !llfi_index !2075
  call void @doProfiling(i32 39)
  br label %for.body, !llfi_index !2076

for.cond.cleanup:                                 ; preds = %for.cond.cleanup68, %entry
  call void @llvm.lifetime.end.p0(i64 64, ptr nonnull %zd1) #2, !llfi_index !2077
  call void @llvm.lifetime.end.p0(i64 64, ptr nonnull %yd1) #2, !llfi_index !2078
  call void @llvm.lifetime.end.p0(i64 64, ptr nonnull %xd1) #2, !llfi_index !2079
  call void @llvm.lifetime.end.p0(i64 32, ptr nonnull %hourgam7) #2, !llfi_index !2080
  call void @llvm.lifetime.end.p0(i64 32, ptr nonnull %hourgam6) #2, !llfi_index !2081
  call void @llvm.lifetime.end.p0(i64 32, ptr nonnull %hourgam5) #2, !llfi_index !2082
  call void @llvm.lifetime.end.p0(i64 32, ptr nonnull %hourgam4) #2, !llfi_index !2083
  call void @llvm.lifetime.end.p0(i64 32, ptr nonnull %hourgam3) #2, !llfi_index !2084
  call void @llvm.lifetime.end.p0(i64 32, ptr nonnull %hourgam2) #2, !llfi_index !2085
  call void @llvm.lifetime.end.p0(i64 32, ptr nonnull %hourgam1) #2, !llfi_index !2086
  call void @llvm.lifetime.end.p0(i64 32, ptr nonnull %hourgam0) #2, !llfi_index !2087
  call void @llvm.lifetime.end.p0(i64 256, ptr nonnull %gamma) #2, !llfi_index !2088
  call void @llvm.lifetime.end.p0(i64 64, ptr nonnull %hgfz) #2, !llfi_index !2089
  call void @llvm.lifetime.end.p0(i64 64, ptr nonnull %hgfy) #2, !llfi_index !2090
  call void @llvm.lifetime.end.p0(i64 64, ptr nonnull %hgfx) #2, !llfi_index !2091
  ret void, !llfi_index !2092

for.body:                                         ; preds = %for.cond.cleanup68, %for.body.lr.ph
  %indvars.iv852 = phi i64 [ 0, %for.body.lr.ph ], [ %indvars.iv.next853, %for.cond.cleanup68 ], !llfi_index !2093
  call void @doProfiling(i32 55)
  %10 = shl nsw i64 %indvars.iv852, 3, !llfi_index !2094
  call void @doProfiling(i32 25)
  %arrayidx65 = getelementptr inbounds double, ptr %determ, i64 %indvars.iv852, !llfi_index !2095
  %11 = load double, ptr %arrayidx65, align 8, !tbaa !301, !llfi_index !2096
  call void @doProfiling(i32 32)
  %arrayidx71 = getelementptr inbounds double, ptr %x8n, i64 %10, !llfi_index !2097
  %12 = load double, ptr %arrayidx71, align 8, !tbaa !301, !llfi_index !2098
  call void @doProfiling(i32 32)
  %13 = or i64 %10, 1, !llfi_index !2099
  call void @doProfiling(i32 29)
  %arrayidx77 = getelementptr inbounds double, ptr %x8n, i64 %13, !llfi_index !2100
  %14 = load double, ptr %arrayidx77, align 8, !tbaa !301, !llfi_index !2101
  call void @doProfiling(i32 32)
  %15 = or i64 %10, 2, !llfi_index !2102
  call void @doProfiling(i32 29)
  %arrayidx84 = getelementptr inbounds double, ptr %x8n, i64 %15, !llfi_index !2103
  %16 = load double, ptr %arrayidx84, align 8, !tbaa !301, !llfi_index !2104
  call void @doProfiling(i32 32)
  %17 = or i64 %10, 3, !llfi_index !2105
  call void @doProfiling(i32 29)
  %arrayidx91 = getelementptr inbounds double, ptr %x8n, i64 %17, !llfi_index !2106
  %18 = load double, ptr %arrayidx91, align 8, !tbaa !301, !llfi_index !2107
  call void @doProfiling(i32 32)
  %19 = or i64 %10, 4, !llfi_index !2108
  call void @doProfiling(i32 29)
  %arrayidx98 = getelementptr inbounds double, ptr %x8n, i64 %19, !llfi_index !2109
  %20 = load double, ptr %arrayidx98, align 8, !tbaa !301, !llfi_index !2110
  call void @doProfiling(i32 32)
  %21 = or i64 %10, 5, !llfi_index !2111
  call void @doProfiling(i32 29)
  %arrayidx105 = getelementptr inbounds double, ptr %x8n, i64 %21, !llfi_index !2112
  %22 = load double, ptr %arrayidx105, align 8, !tbaa !301, !llfi_index !2113
  call void @doProfiling(i32 32)
  %23 = or i64 %10, 6, !llfi_index !2114
  call void @doProfiling(i32 29)
  %arrayidx112 = getelementptr inbounds double, ptr %x8n, i64 %23, !llfi_index !2115
  %24 = load double, ptr %arrayidx112, align 8, !tbaa !301, !llfi_index !2116
  call void @doProfiling(i32 32)
  %25 = or i64 %10, 7, !llfi_index !2117
  call void @doProfiling(i32 29)
  %arrayidx119 = getelementptr inbounds double, ptr %x8n, i64 %25, !llfi_index !2118
  %26 = load double, ptr %arrayidx119, align 8, !tbaa !301, !llfi_index !2119
  call void @doProfiling(i32 32)
  %arrayidx125 = getelementptr inbounds double, ptr %y8n, i64 %10, !llfi_index !2120
  %27 = load double, ptr %arrayidx125, align 8, !tbaa !301, !llfi_index !2121
  call void @doProfiling(i32 32)
  %arrayidx132 = getelementptr inbounds double, ptr %y8n, i64 %13, !llfi_index !2122
  %28 = load double, ptr %arrayidx132, align 8, !tbaa !301, !llfi_index !2123
  call void @doProfiling(i32 32)
  %arrayidx139 = getelementptr inbounds double, ptr %y8n, i64 %15, !llfi_index !2124
  %29 = load double, ptr %arrayidx139, align 8, !tbaa !301, !llfi_index !2125
  call void @doProfiling(i32 32)
  %arrayidx146 = getelementptr inbounds double, ptr %y8n, i64 %17, !llfi_index !2126
  %30 = load double, ptr %arrayidx146, align 8, !tbaa !301, !llfi_index !2127
  call void @doProfiling(i32 32)
  %arrayidx153 = getelementptr inbounds double, ptr %y8n, i64 %19, !llfi_index !2128
  %31 = load double, ptr %arrayidx153, align 8, !tbaa !301, !llfi_index !2129
  call void @doProfiling(i32 32)
  %arrayidx160 = getelementptr inbounds double, ptr %y8n, i64 %21, !llfi_index !2130
  %32 = load double, ptr %arrayidx160, align 8, !tbaa !301, !llfi_index !2131
  call void @doProfiling(i32 32)
  %arrayidx167 = getelementptr inbounds double, ptr %y8n, i64 %23, !llfi_index !2132
  %33 = load double, ptr %arrayidx167, align 8, !tbaa !301, !llfi_index !2133
  call void @doProfiling(i32 32)
  %arrayidx174 = getelementptr inbounds double, ptr %y8n, i64 %25, !llfi_index !2134
  %34 = load double, ptr %arrayidx174, align 8, !tbaa !301, !llfi_index !2135
  call void @doProfiling(i32 32)
  %arrayidx180 = getelementptr inbounds double, ptr %z8n, i64 %10, !llfi_index !2136
  %35 = load double, ptr %arrayidx180, align 8, !tbaa !301, !llfi_index !2137
  call void @doProfiling(i32 32)
  %arrayidx187 = getelementptr inbounds double, ptr %z8n, i64 %13, !llfi_index !2138
  %36 = load double, ptr %arrayidx187, align 8, !tbaa !301, !llfi_index !2139
  call void @doProfiling(i32 32)
  %arrayidx194 = getelementptr inbounds double, ptr %z8n, i64 %15, !llfi_index !2140
  %37 = load double, ptr %arrayidx194, align 8, !tbaa !301, !llfi_index !2141
  call void @doProfiling(i32 32)
  %arrayidx201 = getelementptr inbounds double, ptr %z8n, i64 %17, !llfi_index !2142
  %38 = load double, ptr %arrayidx201, align 8, !tbaa !301, !llfi_index !2143
  call void @doProfiling(i32 32)
  %arrayidx208 = getelementptr inbounds double, ptr %z8n, i64 %19, !llfi_index !2144
  %39 = load double, ptr %arrayidx208, align 8, !tbaa !301, !llfi_index !2145
  call void @doProfiling(i32 32)
  %arrayidx215 = getelementptr inbounds double, ptr %z8n, i64 %21, !llfi_index !2146
  %40 = load double, ptr %arrayidx215, align 8, !tbaa !301, !llfi_index !2147
  call void @doProfiling(i32 32)
  %arrayidx222 = getelementptr inbounds double, ptr %z8n, i64 %23, !llfi_index !2148
  %41 = load double, ptr %arrayidx222, align 8, !tbaa !301, !llfi_index !2149
  call void @doProfiling(i32 32)
  %arrayidx229 = getelementptr inbounds double, ptr %z8n, i64 %25, !llfi_index !2150
  %42 = load double, ptr %arrayidx229, align 8, !tbaa !301, !llfi_index !2151
  call void @doProfiling(i32 32)
  %arrayidx238 = getelementptr inbounds double, ptr %dvdx, i64 %10, !llfi_index !2152
  %43 = load double, ptr %arrayidx238, align 8, !tbaa !301, !llfi_index !2153
  call void @doProfiling(i32 32)
  %arrayidx241 = getelementptr inbounds double, ptr %dvdy, i64 %10, !llfi_index !2154
  %44 = load double, ptr %arrayidx241, align 8, !tbaa !301, !llfi_index !2155
  call void @doProfiling(i32 32)
  %arrayidx244 = getelementptr inbounds double, ptr %dvdz, i64 %10, !llfi_index !2156
  %45 = load double, ptr %arrayidx244, align 8, !tbaa !301, !llfi_index !2157
  call void @doProfiling(i32 32)
  %neg = fdiv double -1.000000e+00, %11, !llfi_index !2158
  call void @doProfiling(i32 21)
  %arrayidx254 = getelementptr inbounds double, ptr %dvdx, i64 %13, !llfi_index !2159
  %46 = load double, ptr %arrayidx254, align 8, !tbaa !301, !llfi_index !2160
  call void @doProfiling(i32 32)
  %arrayidx258 = getelementptr inbounds double, ptr %dvdy, i64 %13, !llfi_index !2161
  %47 = load double, ptr %arrayidx258, align 8, !tbaa !301, !llfi_index !2162
  call void @doProfiling(i32 32)
  %arrayidx262 = getelementptr inbounds double, ptr %dvdz, i64 %13, !llfi_index !2163
  %48 = load double, ptr %arrayidx262, align 8, !tbaa !301, !llfi_index !2164
  call void @doProfiling(i32 32)
  %arrayidx273 = getelementptr inbounds double, ptr %dvdx, i64 %15, !llfi_index !2165
  %49 = load double, ptr %arrayidx273, align 8, !tbaa !301, !llfi_index !2166
  call void @doProfiling(i32 32)
  %arrayidx277 = getelementptr inbounds double, ptr %dvdy, i64 %15, !llfi_index !2167
  %50 = load double, ptr %arrayidx277, align 8, !tbaa !301, !llfi_index !2168
  call void @doProfiling(i32 32)
  %arrayidx281 = getelementptr inbounds double, ptr %dvdz, i64 %15, !llfi_index !2169
  %51 = load double, ptr %arrayidx281, align 8, !tbaa !301, !llfi_index !2170
  call void @doProfiling(i32 32)
  %arrayidx292 = getelementptr inbounds double, ptr %dvdx, i64 %17, !llfi_index !2171
  %52 = load double, ptr %arrayidx292, align 8, !tbaa !301, !llfi_index !2172
  call void @doProfiling(i32 32)
  %arrayidx296 = getelementptr inbounds double, ptr %dvdy, i64 %17, !llfi_index !2173
  %53 = load double, ptr %arrayidx296, align 8, !tbaa !301, !llfi_index !2174
  call void @doProfiling(i32 32)
  %arrayidx300 = getelementptr inbounds double, ptr %dvdz, i64 %17, !llfi_index !2175
  %54 = load double, ptr %arrayidx300, align 8, !tbaa !301, !llfi_index !2176
  call void @doProfiling(i32 32)
  %arrayidx311 = getelementptr inbounds double, ptr %dvdx, i64 %19, !llfi_index !2177
  %55 = load double, ptr %arrayidx311, align 8, !tbaa !301, !llfi_index !2178
  call void @doProfiling(i32 32)
  %arrayidx315 = getelementptr inbounds double, ptr %dvdy, i64 %19, !llfi_index !2179
  %56 = load double, ptr %arrayidx315, align 8, !tbaa !301, !llfi_index !2180
  call void @doProfiling(i32 32)
  %arrayidx319 = getelementptr inbounds double, ptr %dvdz, i64 %19, !llfi_index !2181
  %57 = load double, ptr %arrayidx319, align 8, !tbaa !301, !llfi_index !2182
  call void @doProfiling(i32 32)
  %arrayidx330 = getelementptr inbounds double, ptr %dvdx, i64 %21, !llfi_index !2183
  %58 = load double, ptr %arrayidx330, align 8, !tbaa !301, !llfi_index !2184
  call void @doProfiling(i32 32)
  %arrayidx334 = getelementptr inbounds double, ptr %dvdy, i64 %21, !llfi_index !2185
  %59 = load double, ptr %arrayidx334, align 8, !tbaa !301, !llfi_index !2186
  call void @doProfiling(i32 32)
  %arrayidx338 = getelementptr inbounds double, ptr %dvdz, i64 %21, !llfi_index !2187
  %60 = load double, ptr %arrayidx338, align 8, !tbaa !301, !llfi_index !2188
  call void @doProfiling(i32 32)
  %arrayidx349 = getelementptr inbounds double, ptr %dvdx, i64 %23, !llfi_index !2189
  %61 = load double, ptr %arrayidx349, align 8, !tbaa !301, !llfi_index !2190
  call void @doProfiling(i32 32)
  %arrayidx353 = getelementptr inbounds double, ptr %dvdy, i64 %23, !llfi_index !2191
  %62 = load double, ptr %arrayidx353, align 8, !tbaa !301, !llfi_index !2192
  call void @doProfiling(i32 32)
  %arrayidx357 = getelementptr inbounds double, ptr %dvdz, i64 %23, !llfi_index !2193
  %63 = load double, ptr %arrayidx357, align 8, !tbaa !301, !llfi_index !2194
  call void @doProfiling(i32 32)
  %arrayidx368 = getelementptr inbounds double, ptr %dvdx, i64 %25, !llfi_index !2195
  %64 = load double, ptr %arrayidx368, align 8, !tbaa !301, !llfi_index !2196
  call void @doProfiling(i32 32)
  %arrayidx372 = getelementptr inbounds double, ptr %dvdy, i64 %25, !llfi_index !2197
  %65 = load double, ptr %arrayidx372, align 8, !tbaa !301, !llfi_index !2198
  call void @doProfiling(i32 32)
  %arrayidx376 = getelementptr inbounds double, ptr %dvdz, i64 %25, !llfi_index !2199
  %66 = load double, ptr %arrayidx376, align 8, !tbaa !301, !llfi_index !2200
  call void @doProfiling(i32 32)
  br label %for.body69, !llfi_index !2201

for.cond.cleanup68:                               ; preds = %for.body69
  %add.ptr.i.i = getelementptr inbounds i32, ptr %1, i64 %10, !llfi_index !2202
  %add.ptr.i.i749 = getelementptr inbounds double, ptr %2, i64 %indvars.iv852, !llfi_index !2203
  %67 = load double, ptr %add.ptr.i.i749, align 8, !tbaa !301, !llfi_index !2204
  call void @doProfiling(i32 32)
  %add.ptr.i.i751 = getelementptr inbounds double, ptr %3, i64 %indvars.iv852, !llfi_index !2205
  %68 = load double, ptr %add.ptr.i.i751, align 8, !tbaa !301, !llfi_index !2206
  call void @doProfiling(i32 32)
  %call.i = call double @cbrt(double noundef %11) #32, !llfi_index !2207
  call void @doProfiling(i32 56)
  %69 = load i32, ptr %add.ptr.i.i, align 4, !tbaa !360, !llfi_index !2208
  call void @doProfiling(i32 32)
  %arrayidx388 = getelementptr inbounds i32, ptr %add.ptr.i.i, i64 1, !llfi_index !2209
  %70 = load i32, ptr %arrayidx388, align 4, !tbaa !360, !llfi_index !2210
  call void @doProfiling(i32 32)
  %arrayidx389 = getelementptr inbounds i32, ptr %add.ptr.i.i, i64 2, !llfi_index !2211
  %71 = load i32, ptr %arrayidx389, align 4, !tbaa !360, !llfi_index !2212
  call void @doProfiling(i32 32)
  %arrayidx390 = getelementptr inbounds i32, ptr %add.ptr.i.i, i64 3, !llfi_index !2213
  %72 = load i32, ptr %arrayidx390, align 4, !tbaa !360, !llfi_index !2214
  call void @doProfiling(i32 32)
  %arrayidx391 = getelementptr inbounds i32, ptr %add.ptr.i.i, i64 4, !llfi_index !2215
  %73 = load i32, ptr %arrayidx391, align 4, !tbaa !360, !llfi_index !2216
  call void @doProfiling(i32 32)
  %arrayidx392 = getelementptr inbounds i32, ptr %add.ptr.i.i, i64 5, !llfi_index !2217
  %74 = load i32, ptr %arrayidx392, align 4, !tbaa !360, !llfi_index !2218
  call void @doProfiling(i32 32)
  %arrayidx393 = getelementptr inbounds i32, ptr %add.ptr.i.i, i64 6, !llfi_index !2219
  %75 = load i32, ptr %arrayidx393, align 4, !tbaa !360, !llfi_index !2220
  call void @doProfiling(i32 32)
  %arrayidx394 = getelementptr inbounds i32, ptr %add.ptr.i.i, i64 7, !llfi_index !2221
  %76 = load i32, ptr %arrayidx394, align 4, !tbaa !360, !llfi_index !2222
  call void @doProfiling(i32 32)
  %conv.i752 = sext i32 %69 to i64, !llfi_index !2223
  call void @doProfiling(i32 40)
  %add.ptr.i.i753 = getelementptr inbounds double, ptr %4, i64 %conv.i752, !llfi_index !2224
  %77 = load double, ptr %add.ptr.i.i753, align 8, !tbaa !301, !llfi_index !2225
  call void @doProfiling(i32 32)
  store double %77, ptr %xd1, align 16, !tbaa !301, !llfi_index !2226
  %conv.i754 = sext i32 %70 to i64, !llfi_index !2227
  call void @doProfiling(i32 40)
  %add.ptr.i.i755 = getelementptr inbounds double, ptr %4, i64 %conv.i754, !llfi_index !2228
  %78 = load double, ptr %add.ptr.i.i755, align 8, !tbaa !301, !llfi_index !2229
  call void @doProfiling(i32 32)
  store double %78, ptr %arrayidx398, align 8, !tbaa !301, !llfi_index !2230
  %conv.i756 = sext i32 %71 to i64, !llfi_index !2231
  call void @doProfiling(i32 40)
  %add.ptr.i.i757 = getelementptr inbounds double, ptr %4, i64 %conv.i756, !llfi_index !2232
  %79 = load double, ptr %add.ptr.i.i757, align 8, !tbaa !301, !llfi_index !2233
  call void @doProfiling(i32 32)
  store double %79, ptr %arrayidx400, align 16, !tbaa !301, !llfi_index !2234
  %conv.i758 = sext i32 %72 to i64, !llfi_index !2235
  call void @doProfiling(i32 40)
  %add.ptr.i.i759 = getelementptr inbounds double, ptr %4, i64 %conv.i758, !llfi_index !2236
  %80 = load double, ptr %add.ptr.i.i759, align 8, !tbaa !301, !llfi_index !2237
  call void @doProfiling(i32 32)
  store double %80, ptr %arrayidx402, align 8, !tbaa !301, !llfi_index !2238
  %conv.i760 = sext i32 %73 to i64, !llfi_index !2239
  call void @doProfiling(i32 40)
  %add.ptr.i.i761 = getelementptr inbounds double, ptr %4, i64 %conv.i760, !llfi_index !2240
  %81 = load double, ptr %add.ptr.i.i761, align 8, !tbaa !301, !llfi_index !2241
  call void @doProfiling(i32 32)
  store double %81, ptr %arrayidx404, align 16, !tbaa !301, !llfi_index !2242
  %conv.i762 = sext i32 %74 to i64, !llfi_index !2243
  call void @doProfiling(i32 40)
  %add.ptr.i.i763 = getelementptr inbounds double, ptr %4, i64 %conv.i762, !llfi_index !2244
  %82 = load double, ptr %add.ptr.i.i763, align 8, !tbaa !301, !llfi_index !2245
  call void @doProfiling(i32 32)
  store double %82, ptr %arrayidx406, align 8, !tbaa !301, !llfi_index !2246
  %conv.i764 = sext i32 %75 to i64, !llfi_index !2247
  call void @doProfiling(i32 40)
  %add.ptr.i.i765 = getelementptr inbounds double, ptr %4, i64 %conv.i764, !llfi_index !2248
  %83 = load double, ptr %add.ptr.i.i765, align 8, !tbaa !301, !llfi_index !2249
  call void @doProfiling(i32 32)
  store double %83, ptr %arrayidx408, align 16, !tbaa !301, !llfi_index !2250
  %conv.i766 = sext i32 %76 to i64, !llfi_index !2251
  call void @doProfiling(i32 40)
  %add.ptr.i.i767 = getelementptr inbounds double, ptr %4, i64 %conv.i766, !llfi_index !2252
  %84 = load double, ptr %add.ptr.i.i767, align 8, !tbaa !301, !llfi_index !2253
  call void @doProfiling(i32 32)
  store double %84, ptr %arrayidx410, align 8, !tbaa !301, !llfi_index !2254
  %add.ptr.i.i769 = getelementptr inbounds double, ptr %5, i64 %conv.i752, !llfi_index !2255
  %85 = load double, ptr %add.ptr.i.i769, align 8, !tbaa !301, !llfi_index !2256
  call void @doProfiling(i32 32)
  store double %85, ptr %yd1, align 16, !tbaa !301, !llfi_index !2257
  %add.ptr.i.i771 = getelementptr inbounds double, ptr %5, i64 %conv.i754, !llfi_index !2258
  %86 = load double, ptr %add.ptr.i.i771, align 8, !tbaa !301, !llfi_index !2259
  call void @doProfiling(i32 32)
  store double %86, ptr %arrayidx414, align 8, !tbaa !301, !llfi_index !2260
  %add.ptr.i.i773 = getelementptr inbounds double, ptr %5, i64 %conv.i756, !llfi_index !2261
  %87 = load double, ptr %add.ptr.i.i773, align 8, !tbaa !301, !llfi_index !2262
  call void @doProfiling(i32 32)
  store double %87, ptr %arrayidx416, align 16, !tbaa !301, !llfi_index !2263
  %add.ptr.i.i775 = getelementptr inbounds double, ptr %5, i64 %conv.i758, !llfi_index !2264
  %88 = load double, ptr %add.ptr.i.i775, align 8, !tbaa !301, !llfi_index !2265
  call void @doProfiling(i32 32)
  store double %88, ptr %arrayidx418, align 8, !tbaa !301, !llfi_index !2266
  %add.ptr.i.i777 = getelementptr inbounds double, ptr %5, i64 %conv.i760, !llfi_index !2267
  %89 = load double, ptr %add.ptr.i.i777, align 8, !tbaa !301, !llfi_index !2268
  call void @doProfiling(i32 32)
  store double %89, ptr %arrayidx420, align 16, !tbaa !301, !llfi_index !2269
  %add.ptr.i.i779 = getelementptr inbounds double, ptr %5, i64 %conv.i762, !llfi_index !2270
  %90 = load double, ptr %add.ptr.i.i779, align 8, !tbaa !301, !llfi_index !2271
  call void @doProfiling(i32 32)
  store double %90, ptr %arrayidx422, align 8, !tbaa !301, !llfi_index !2272
  %add.ptr.i.i781 = getelementptr inbounds double, ptr %5, i64 %conv.i764, !llfi_index !2273
  %91 = load double, ptr %add.ptr.i.i781, align 8, !tbaa !301, !llfi_index !2274
  call void @doProfiling(i32 32)
  store double %91, ptr %arrayidx424, align 16, !tbaa !301, !llfi_index !2275
  %add.ptr.i.i783 = getelementptr inbounds double, ptr %5, i64 %conv.i766, !llfi_index !2276
  %92 = load double, ptr %add.ptr.i.i783, align 8, !tbaa !301, !llfi_index !2277
  call void @doProfiling(i32 32)
  store double %92, ptr %arrayidx426, align 8, !tbaa !301, !llfi_index !2278
  %add.ptr.i.i785 = getelementptr inbounds double, ptr %6, i64 %conv.i752, !llfi_index !2279
  %93 = load double, ptr %add.ptr.i.i785, align 8, !tbaa !301, !llfi_index !2280
  call void @doProfiling(i32 32)
  store double %93, ptr %zd1, align 16, !tbaa !301, !llfi_index !2281
  %add.ptr.i.i787 = getelementptr inbounds double, ptr %6, i64 %conv.i754, !llfi_index !2282
  %94 = load double, ptr %add.ptr.i.i787, align 8, !tbaa !301, !llfi_index !2283
  call void @doProfiling(i32 32)
  store double %94, ptr %arrayidx430, align 8, !tbaa !301, !llfi_index !2284
  %add.ptr.i.i789 = getelementptr inbounds double, ptr %6, i64 %conv.i756, !llfi_index !2285
  %95 = load double, ptr %add.ptr.i.i789, align 8, !tbaa !301, !llfi_index !2286
  call void @doProfiling(i32 32)
  store double %95, ptr %arrayidx432, align 16, !tbaa !301, !llfi_index !2287
  %add.ptr.i.i791 = getelementptr inbounds double, ptr %6, i64 %conv.i758, !llfi_index !2288
  %96 = load double, ptr %add.ptr.i.i791, align 8, !tbaa !301, !llfi_index !2289
  call void @doProfiling(i32 32)
  store double %96, ptr %arrayidx434, align 8, !tbaa !301, !llfi_index !2290
  %add.ptr.i.i793 = getelementptr inbounds double, ptr %6, i64 %conv.i760, !llfi_index !2291
  %97 = load double, ptr %add.ptr.i.i793, align 8, !tbaa !301, !llfi_index !2292
  call void @doProfiling(i32 32)
  store double %97, ptr %arrayidx436, align 16, !tbaa !301, !llfi_index !2293
  %add.ptr.i.i795 = getelementptr inbounds double, ptr %6, i64 %conv.i762, !llfi_index !2294
  %98 = load double, ptr %add.ptr.i.i795, align 8, !tbaa !301, !llfi_index !2295
  call void @doProfiling(i32 32)
  store double %98, ptr %arrayidx438, align 8, !tbaa !301, !llfi_index !2296
  %add.ptr.i.i797 = getelementptr inbounds double, ptr %6, i64 %conv.i764, !llfi_index !2297
  %99 = load double, ptr %add.ptr.i.i797, align 8, !tbaa !301, !llfi_index !2298
  call void @doProfiling(i32 32)
  store double %99, ptr %arrayidx440, align 16, !tbaa !301, !llfi_index !2299
  %add.ptr.i.i799 = getelementptr inbounds double, ptr %6, i64 %conv.i766, !llfi_index !2300
