; ModuleID = '/home/evapowlison/O1-resAn/llfi/LULESH-llfi_index.ll'
source_filename = "llvm-link"
target datalayout = "e-m:e-p270:32:32-p271:32:32-p272:64:64-i64:64-f80:128-n8:16:32:64-S128"
target triple = "x86_64-unknown-linux-gnu"

%struct.Mesh = type { %"class.std::vector", %"class.std::vector", %"class.std::vector", %"class.std::vector", %"class.std::vector", %"class.std::vector", %"class.std::vector", %"class.std::vector", %"class.std::vector", %"class.std::vector", %"class.std::vector", %"class.std::vector", %"class.std::vector", %"class.std::vector", %"class.std::vector", %"class.std::vector", %"class.std::vector", %"class.std::vector", %"class.std::vector", %"class.std::vector", %"class.std::vector", %"class.std::vector", %"class.std::vector", %"class.std::vector", %"class.std::vector", %"class.std::vector", %"class.std::vector", %"class.std::vector", %"class.std::vector", %"class.std::vector", %"class.std::vector", %"class.std::vector", %"class.std::vector", %"class.std::vector", %"class.std::vector", %"class.std::vector", %"class.std::vector", %"class.std::vector", %"class.std::vector", %"class.std::vector", %"class.std::vector", %"class.std::vector", %"class.std::vector", %"class.std::vector", %"class.std::vector", %"class.std::vector", %"class.std::vector", double, double, double, double, double, double, double, double, double, double, double, double, double, double, double, double, double, double, double, double, double, double, double, double, double, double, double, double, i32, i32, i32, i32, i32, i32 }
%"class.std::vector" = type { %"struct.std::_Vector_base" }
%"struct.std::_Vector_base" = type { %"struct.std::_Vector_base<double, std::allocator<double>>::_Vector_impl" }
%"struct.std::_Vector_base<double, std::allocator<double>>::_Vector_impl" = type { ptr, ptr, ptr }
%struct.timeval = type { i64, i64 }

$_ZN4MeshD2Ev = comdat any

$_ZN4Mesh22AllocateElemPersistentEm = comdat any

$_ZN4Mesh21AllocateElemTemporaryEm = comdat any

$_ZN4Mesh23AllocateNodalPersistentEm = comdat any

$_ZN4Mesh16AllocateNodesetsEm = comdat any

$_ZNSt6vectorIiSaIiEE17_M_default_appendEm = comdat any

$_ZNSt6vectorIdSaIdEE17_M_default_appendEm = comdat any

$_ZNSt6vectorIdSaIdEE14_M_fill_insertEN9__gnu_cxx17__normal_iteratorIPdS1_EEmRKd = comdat any

@llvm.global_ctors = appending global [1 x { i32, ptr, ptr }] [{ i32, ptr, ptr } { i32 65535, ptr @_GLOBAL__sub_I_LULESH.cc, ptr null }]
@mesh = dso_local global %struct.Mesh zeroinitializer, align 8
@.str = private unnamed_addr constant [12 x i8] c"element.dat\00", align 1
@.str.1 = private unnamed_addr constant [2 x i8] c"w\00", align 1
@.str.2 = private unnamed_addr constant [5 x i8] c"%f \0A\00", align 1
@.str.3 = private unnamed_addr constant [26 x i8] c"vector::_M_default_append\00", align 1
@.str.4 = private unnamed_addr constant [23 x i8] c"vector::_M_fill_insert\00", align 1
@load_namestr = internal constant [5 x i8] c"load\00"
@icmp_namestr = internal constant [5 x i8] c"icmp\00"
@call_namestr = internal constant [5 x i8] c"call\00"
@zext_namestr = internal constant [5 x i8] c"zext\00"
@fneg_namestr = internal constant [5 x i8] c"fneg\00"
@fsub_namestr = internal constant [5 x i8] c"fsub\00"
@fadd_namestr = internal constant [5 x i8] c"fadd\00"
@fmul_namestr = internal constant [5 x i8] c"fmul\00"
@fcmp_namestr = internal constant [5 x i8] c"fcmp\00"
@select_namestr = internal constant [7 x i8] c"select\00"
@fdiv_namestr = internal constant [5 x i8] c"fdiv\00"
@phi_namestr = internal constant [4 x i8] c"phi\00"
@add_namestr = internal constant [4 x i8] c"add\00"
@alloca_namestr = internal constant [7 x i8] c"alloca\00"
@shl_namestr = internal constant [4 x i8] c"shl\00"
@sext_namestr = internal constant [5 x i8] c"sext\00"
@or_namestr = internal constant [3 x i8] c"or\00"
@mul_namestr = internal constant [4 x i8] c"mul\00"
@sub_namestr = internal constant [4 x i8] c"sub\00"
@and_namestr = internal constant [4 x i8] c"and\00"
@trunc_namestr = internal constant [6 x i8] c"trunc\00"
@ashr_namestr = internal constant [5 x i8] c"ashr\00"
@ptrtoint_namestr = internal constant [9 x i8] c"ptrtoint\00"
@sitofp_namestr = internal constant [7 x i8] c"sitofp\00"

; Function Attrs: nounwind uwtable
define internal void @_GLOBAL__sub_I_LULESH.cc() #0 section ".text.startup" personality ptr @__gxx_personality_v0 {
entry:
  call void @llvm.memset.p0.i64(ptr noundef nonnull align 8 dereferenceable(1128) @mesh, i8 0, i64 1128, i1 false) #2, !llfi_index !5
  %0 = call i32 @atexit(ptr nonnull @__dtor_mesh) #2, !llfi_index !6
  %fi = call i32 @injectFault2(i64 2, i32 %0, i32 56, i32 0, i32 1, i32 0, ptr @call_namestr), !llfi_injectfault !7
  ret void, !llfi_index !8
}

declare i32 @__gxx_personality_v0(...)

; Function Attrs: argmemonly nofree nounwind willreturn writeonly
declare void @llvm.memset.p0.i64(ptr nocapture writeonly, i8, i64, i1 immarg) #1

; Function Attrs: nounwind uwtable
define internal void @__dtor_mesh() #0 section ".text.startup" {
entry:
  call void @_ZN4MeshD2Ev(ptr @mesh), !llfi_index !9
  ret void, !llfi_index !10
}

; Function Attrs: nounwind
declare i32 @atexit(ptr) local_unnamed_addr #2

; Function Attrs: inlinehint nounwind uwtable
define linkonce_odr dso_local void @_ZN4MeshD2Ev(ptr noundef nonnull align 8 dereferenceable(1376) %this) unnamed_addr #3 comdat align 2 personality ptr @__gxx_personality_v0 {
entry:
  %m_elemMass = getelementptr inbounds %struct.Mesh, ptr %this, i64 0, i32 46, !llfi_index !11
  %0 = load ptr, ptr %m_elemMass, align 8, !tbaa !12, !llfi_index !18
  %fi4 = call ptr @injectFault0(i64 7, ptr %0, i32 32, i32 0, i32 1, i32 0, ptr @load_namestr), !llfi_injectfault !7
  %tobool.not.i.i.i = icmp eq ptr %fi4, null, !llfi_index !19
  %fi5 = call i1 @injectFault1(i64 8, i1 %tobool.not.i.i.i, i32 53, i32 0, i32 1, i32 0, ptr @icmp_namestr), !llfi_injectfault !7
  br i1 %fi5, label %_ZNSt6vectorIdSaIdEED2Ev.exit, label %if.then.i.i.i, !llfi_index !20

if.then.i.i.i:                                    ; preds = %entry
  call void @_ZdlPv(ptr noundef nonnull %fi4) #2, !llfi_index !21
  br label %_ZNSt6vectorIdSaIdEED2Ev.exit, !llfi_index !22

_ZNSt6vectorIdSaIdEED2Ev.exit:                    ; preds = %if.then.i.i.i, %entry
  %m_ss = getelementptr inbounds %struct.Mesh, ptr %this, i64 0, i32 45, !llfi_index !23
  %1 = load ptr, ptr %m_ss, align 8, !tbaa !12, !llfi_index !24
  %fi6 = call ptr @injectFault0(i64 13, ptr %1, i32 32, i32 0, i32 1, i32 0, ptr @load_namestr), !llfi_injectfault !7
  %tobool.not.i.i.i2 = icmp eq ptr %fi6, null, !llfi_index !25
  %fi7 = call i1 @injectFault1(i64 14, i1 %tobool.not.i.i.i2, i32 53, i32 0, i32 1, i32 0, ptr @icmp_namestr), !llfi_injectfault !7
  br i1 %fi7, label %_ZNSt6vectorIdSaIdEED2Ev.exit4, label %if.then.i.i.i3, !llfi_index !26

if.then.i.i.i3:                                   ; preds = %_ZNSt6vectorIdSaIdEED2Ev.exit
  call void @_ZdlPv(ptr noundef nonnull %fi6) #2, !llfi_index !27
  br label %_ZNSt6vectorIdSaIdEED2Ev.exit4, !llfi_index !28

_ZNSt6vectorIdSaIdEED2Ev.exit4:                   ; preds = %if.then.i.i.i3, %_ZNSt6vectorIdSaIdEED2Ev.exit
  %m_arealg = getelementptr inbounds %struct.Mesh, ptr %this, i64 0, i32 44, !llfi_index !29
  %2 = load ptr, ptr %m_arealg, align 8, !tbaa !12, !llfi_index !30
  %fi8 = call ptr @injectFault0(i64 19, ptr %2, i32 32, i32 0, i32 1, i32 0, ptr @load_namestr), !llfi_injectfault !7
  %tobool.not.i.i.i5 = icmp eq ptr %fi8, null, !llfi_index !31
  %fi9 = call i1 @injectFault1(i64 20, i1 %tobool.not.i.i.i5, i32 53, i32 0, i32 1, i32 0, ptr @icmp_namestr), !llfi_injectfault !7
  br i1 %fi9, label %_ZNSt6vectorIdSaIdEED2Ev.exit7, label %if.then.i.i.i6, !llfi_index !32

if.then.i.i.i6:                                   ; preds = %_ZNSt6vectorIdSaIdEED2Ev.exit4
  call void @_ZdlPv(ptr noundef nonnull %fi8) #2, !llfi_index !33
  br label %_ZNSt6vectorIdSaIdEED2Ev.exit7, !llfi_index !34

_ZNSt6vectorIdSaIdEED2Ev.exit7:                   ; preds = %if.then.i.i.i6, %_ZNSt6vectorIdSaIdEED2Ev.exit4
  %m_vdov = getelementptr inbounds %struct.Mesh, ptr %this, i64 0, i32 43, !llfi_index !35
  %3 = load ptr, ptr %m_vdov, align 8, !tbaa !12, !llfi_index !36
  %fi10 = call ptr @injectFault0(i64 25, ptr %3, i32 32, i32 0, i32 1, i32 0, ptr @load_namestr), !llfi_injectfault !7
  %tobool.not.i.i.i8 = icmp eq ptr %fi10, null, !llfi_index !37
  %fi11 = call i1 @injectFault1(i64 26, i1 %tobool.not.i.i.i8, i32 53, i32 0, i32 1, i32 0, ptr @icmp_namestr), !llfi_injectfault !7
  br i1 %fi11, label %_ZNSt6vectorIdSaIdEED2Ev.exit10, label %if.then.i.i.i9, !llfi_index !38

if.then.i.i.i9:                                   ; preds = %_ZNSt6vectorIdSaIdEED2Ev.exit7
  call void @_ZdlPv(ptr noundef nonnull %fi10) #2, !llfi_index !39
  br label %_ZNSt6vectorIdSaIdEED2Ev.exit10, !llfi_index !40

_ZNSt6vectorIdSaIdEED2Ev.exit10:                  ; preds = %if.then.i.i.i9, %_ZNSt6vectorIdSaIdEED2Ev.exit7
  %m_delv = getelementptr inbounds %struct.Mesh, ptr %this, i64 0, i32 42, !llfi_index !41
  %4 = load ptr, ptr %m_delv, align 8, !tbaa !12, !llfi_index !42
  %fi12 = call ptr @injectFault0(i64 31, ptr %4, i32 32, i32 0, i32 1, i32 0, ptr @load_namestr), !llfi_injectfault !7
  %tobool.not.i.i.i11 = icmp eq ptr %fi12, null, !llfi_index !43
  %fi13 = call i1 @injectFault1(i64 32, i1 %tobool.not.i.i.i11, i32 53, i32 0, i32 1, i32 0, ptr @icmp_namestr), !llfi_injectfault !7
  br i1 %fi13, label %_ZNSt6vectorIdSaIdEED2Ev.exit13, label %if.then.i.i.i12, !llfi_index !44

if.then.i.i.i12:                                  ; preds = %_ZNSt6vectorIdSaIdEED2Ev.exit10
  call void @_ZdlPv(ptr noundef nonnull %fi12) #2, !llfi_index !45
  br label %_ZNSt6vectorIdSaIdEED2Ev.exit13, !llfi_index !46

_ZNSt6vectorIdSaIdEED2Ev.exit13:                  ; preds = %if.then.i.i.i12, %_ZNSt6vectorIdSaIdEED2Ev.exit10
  %m_vnew = getelementptr inbounds %struct.Mesh, ptr %this, i64 0, i32 41, !llfi_index !47
  %5 = load ptr, ptr %m_vnew, align 8, !tbaa !12, !llfi_index !48
  %fi14 = call ptr @injectFault0(i64 37, ptr %5, i32 32, i32 0, i32 1, i32 0, ptr @load_namestr), !llfi_injectfault !7
  %tobool.not.i.i.i14 = icmp eq ptr %fi14, null, !llfi_index !49
  %fi15 = call i1 @injectFault1(i64 38, i1 %tobool.not.i.i.i14, i32 53, i32 0, i32 1, i32 0, ptr @icmp_namestr), !llfi_injectfault !7
  br i1 %fi15, label %_ZNSt6vectorIdSaIdEED2Ev.exit16, label %if.then.i.i.i15, !llfi_index !50

if.then.i.i.i15:                                  ; preds = %_ZNSt6vectorIdSaIdEED2Ev.exit13
  call void @_ZdlPv(ptr noundef nonnull %fi14) #2, !llfi_index !51
  br label %_ZNSt6vectorIdSaIdEED2Ev.exit16, !llfi_index !52

_ZNSt6vectorIdSaIdEED2Ev.exit16:                  ; preds = %if.then.i.i.i15, %_ZNSt6vectorIdSaIdEED2Ev.exit13
  %m_volo = getelementptr inbounds %struct.Mesh, ptr %this, i64 0, i32 40, !llfi_index !53
  %6 = load ptr, ptr %m_volo, align 8, !tbaa !12, !llfi_index !54
  %fi16 = call ptr @injectFault0(i64 43, ptr %6, i32 32, i32 0, i32 1, i32 0, ptr @load_namestr), !llfi_injectfault !7
  %tobool.not.i.i.i17 = icmp eq ptr %fi16, null, !llfi_index !55
  %fi17 = call i1 @injectFault1(i64 44, i1 %tobool.not.i.i.i17, i32 53, i32 0, i32 1, i32 0, ptr @icmp_namestr), !llfi_injectfault !7
  br i1 %fi17, label %_ZNSt6vectorIdSaIdEED2Ev.exit19, label %if.then.i.i.i18, !llfi_index !56

if.then.i.i.i18:                                  ; preds = %_ZNSt6vectorIdSaIdEED2Ev.exit16
  call void @_ZdlPv(ptr noundef nonnull %fi16) #2, !llfi_index !57
  br label %_ZNSt6vectorIdSaIdEED2Ev.exit19, !llfi_index !58

_ZNSt6vectorIdSaIdEED2Ev.exit19:                  ; preds = %if.then.i.i.i18, %_ZNSt6vectorIdSaIdEED2Ev.exit16
  %m_v = getelementptr inbounds %struct.Mesh, ptr %this, i64 0, i32 39, !llfi_index !59
  %7 = load ptr, ptr %m_v, align 8, !tbaa !12, !llfi_index !60
  %fi2 = call ptr @injectFault0(i64 49, ptr %7, i32 32, i32 0, i32 1, i32 0, ptr @load_namestr), !llfi_injectfault !7
  %tobool.not.i.i.i20 = icmp eq ptr %fi2, null, !llfi_index !61
  %fi3 = call i1 @injectFault1(i64 50, i1 %tobool.not.i.i.i20, i32 53, i32 0, i32 1, i32 0, ptr @icmp_namestr), !llfi_injectfault !7
  br i1 %fi3, label %_ZNSt6vectorIdSaIdEED2Ev.exit22, label %if.then.i.i.i21, !llfi_index !62

if.then.i.i.i21:                                  ; preds = %_ZNSt6vectorIdSaIdEED2Ev.exit19
  call void @_ZdlPv(ptr noundef nonnull %fi2) #2, !llfi_index !63
  br label %_ZNSt6vectorIdSaIdEED2Ev.exit22, !llfi_index !64

_ZNSt6vectorIdSaIdEED2Ev.exit22:                  ; preds = %if.then.i.i.i21, %_ZNSt6vectorIdSaIdEED2Ev.exit19
  %m_qq = getelementptr inbounds %struct.Mesh, ptr %this, i64 0, i32 38, !llfi_index !65
  %8 = load ptr, ptr %m_qq, align 8, !tbaa !12, !llfi_index !66
  %fi21 = call ptr @injectFault0(i64 55, ptr %8, i32 32, i32 0, i32 1, i32 0, ptr @load_namestr), !llfi_injectfault !7
  %tobool.not.i.i.i23 = icmp eq ptr %fi21, null, !llfi_index !67
  %fi23 = call i1 @injectFault1(i64 56, i1 %tobool.not.i.i.i23, i32 53, i32 0, i32 1, i32 0, ptr @icmp_namestr), !llfi_injectfault !7
  br i1 %fi23, label %_ZNSt6vectorIdSaIdEED2Ev.exit25, label %if.then.i.i.i24, !llfi_index !68

if.then.i.i.i24:                                  ; preds = %_ZNSt6vectorIdSaIdEED2Ev.exit22
  call void @_ZdlPv(ptr noundef nonnull %fi21) #2, !llfi_index !69
  br label %_ZNSt6vectorIdSaIdEED2Ev.exit25, !llfi_index !70

_ZNSt6vectorIdSaIdEED2Ev.exit25:                  ; preds = %if.then.i.i.i24, %_ZNSt6vectorIdSaIdEED2Ev.exit22
  %m_ql = getelementptr inbounds %struct.Mesh, ptr %this, i64 0, i32 37, !llfi_index !71
  %9 = load ptr, ptr %m_ql, align 8, !tbaa !12, !llfi_index !72
  %fi24 = call ptr @injectFault0(i64 61, ptr %9, i32 32, i32 0, i32 1, i32 0, ptr @load_namestr), !llfi_injectfault !7
  %tobool.not.i.i.i26 = icmp eq ptr %fi24, null, !llfi_index !73
  %fi25 = call i1 @injectFault1(i64 62, i1 %tobool.not.i.i.i26, i32 53, i32 0, i32 1, i32 0, ptr @icmp_namestr), !llfi_injectfault !7
  br i1 %fi25, label %_ZNSt6vectorIdSaIdEED2Ev.exit28, label %if.then.i.i.i27, !llfi_index !74

if.then.i.i.i27:                                  ; preds = %_ZNSt6vectorIdSaIdEED2Ev.exit25
  call void @_ZdlPv(ptr noundef nonnull %fi24) #2, !llfi_index !75
  br label %_ZNSt6vectorIdSaIdEED2Ev.exit28, !llfi_index !76

_ZNSt6vectorIdSaIdEED2Ev.exit28:                  ; preds = %if.then.i.i.i27, %_ZNSt6vectorIdSaIdEED2Ev.exit25
  %m_q = getelementptr inbounds %struct.Mesh, ptr %this, i64 0, i32 36, !llfi_index !77
  %10 = load ptr, ptr %m_q, align 8, !tbaa !12, !llfi_index !78
  %fi26 = call ptr @injectFault0(i64 67, ptr %10, i32 32, i32 0, i32 1, i32 0, ptr @load_namestr), !llfi_injectfault !7
  %tobool.not.i.i.i29 = icmp eq ptr %fi26, null, !llfi_index !79
  %fi27 = call i1 @injectFault1(i64 68, i1 %tobool.not.i.i.i29, i32 53, i32 0, i32 1, i32 0, ptr @icmp_namestr), !llfi_injectfault !7
  br i1 %fi27, label %_ZNSt6vectorIdSaIdEED2Ev.exit31, label %if.then.i.i.i30, !llfi_index !80

if.then.i.i.i30:                                  ; preds = %_ZNSt6vectorIdSaIdEED2Ev.exit28
  call void @_ZdlPv(ptr noundef nonnull %fi26) #2, !llfi_index !81
  br label %_ZNSt6vectorIdSaIdEED2Ev.exit31, !llfi_index !82

_ZNSt6vectorIdSaIdEED2Ev.exit31:                  ; preds = %if.then.i.i.i30, %_ZNSt6vectorIdSaIdEED2Ev.exit28
  %m_p = getelementptr inbounds %struct.Mesh, ptr %this, i64 0, i32 35, !llfi_index !83
  %11 = load ptr, ptr %m_p, align 8, !tbaa !12, !llfi_index !84
  %fi28 = call ptr @injectFault0(i64 73, ptr %11, i32 32, i32 0, i32 1, i32 0, ptr @load_namestr), !llfi_injectfault !7
  %tobool.not.i.i.i32 = icmp eq ptr %fi28, null, !llfi_index !85
  %fi29 = call i1 @injectFault1(i64 74, i1 %tobool.not.i.i.i32, i32 53, i32 0, i32 1, i32 0, ptr @icmp_namestr), !llfi_injectfault !7
  br i1 %fi29, label %_ZNSt6vectorIdSaIdEED2Ev.exit34, label %if.then.i.i.i33, !llfi_index !86

if.then.i.i.i33:                                  ; preds = %_ZNSt6vectorIdSaIdEED2Ev.exit31
  call void @_ZdlPv(ptr noundef nonnull %fi28) #2, !llfi_index !87
  br label %_ZNSt6vectorIdSaIdEED2Ev.exit34, !llfi_index !88

_ZNSt6vectorIdSaIdEED2Ev.exit34:                  ; preds = %if.then.i.i.i33, %_ZNSt6vectorIdSaIdEED2Ev.exit31
  %m_e = getelementptr inbounds %struct.Mesh, ptr %this, i64 0, i32 34, !llfi_index !89
  %12 = load ptr, ptr %m_e, align 8, !tbaa !12, !llfi_index !90
  %fi30 = call ptr @injectFault0(i64 79, ptr %12, i32 32, i32 0, i32 1, i32 0, ptr @load_namestr), !llfi_injectfault !7
  %tobool.not.i.i.i35 = icmp eq ptr %fi30, null, !llfi_index !91
  %fi31 = call i1 @injectFault1(i64 80, i1 %tobool.not.i.i.i35, i32 53, i32 0, i32 1, i32 0, ptr @icmp_namestr), !llfi_injectfault !7
  br i1 %fi31, label %_ZNSt6vectorIdSaIdEED2Ev.exit37, label %if.then.i.i.i36, !llfi_index !92

if.then.i.i.i36:                                  ; preds = %_ZNSt6vectorIdSaIdEED2Ev.exit34
  call void @_ZdlPv(ptr noundef nonnull %fi30) #2, !llfi_index !93
  br label %_ZNSt6vectorIdSaIdEED2Ev.exit37, !llfi_index !94

_ZNSt6vectorIdSaIdEED2Ev.exit37:                  ; preds = %if.then.i.i.i36, %_ZNSt6vectorIdSaIdEED2Ev.exit34
  %m_delx_zeta = getelementptr inbounds %struct.Mesh, ptr %this, i64 0, i32 33, !llfi_index !95
  %13 = load ptr, ptr %m_delx_zeta, align 8, !tbaa !12, !llfi_index !96
  %fi32 = call ptr @injectFault0(i64 85, ptr %13, i32 32, i32 0, i32 1, i32 0, ptr @load_namestr), !llfi_injectfault !7
  %tobool.not.i.i.i38 = icmp eq ptr %fi32, null, !llfi_index !97
  %fi33 = call i1 @injectFault1(i64 86, i1 %tobool.not.i.i.i38, i32 53, i32 0, i32 1, i32 0, ptr @icmp_namestr), !llfi_injectfault !7
  br i1 %fi33, label %_ZNSt6vectorIdSaIdEED2Ev.exit40, label %if.then.i.i.i39, !llfi_index !98

if.then.i.i.i39:                                  ; preds = %_ZNSt6vectorIdSaIdEED2Ev.exit37
  call void @_ZdlPv(ptr noundef nonnull %fi32) #2, !llfi_index !99
  br label %_ZNSt6vectorIdSaIdEED2Ev.exit40, !llfi_index !100

_ZNSt6vectorIdSaIdEED2Ev.exit40:                  ; preds = %if.then.i.i.i39, %_ZNSt6vectorIdSaIdEED2Ev.exit37
  %m_delx_eta = getelementptr inbounds %struct.Mesh, ptr %this, i64 0, i32 32, !llfi_index !101
  %14 = load ptr, ptr %m_delx_eta, align 8, !tbaa !12, !llfi_index !102
  %fi34 = call ptr @injectFault0(i64 91, ptr %14, i32 32, i32 0, i32 1, i32 0, ptr @load_namestr), !llfi_injectfault !7
  %tobool.not.i.i.i41 = icmp eq ptr %fi34, null, !llfi_index !103
  %fi35 = call i1 @injectFault1(i64 92, i1 %tobool.not.i.i.i41, i32 53, i32 0, i32 1, i32 0, ptr @icmp_namestr), !llfi_injectfault !7
  br i1 %fi35, label %_ZNSt6vectorIdSaIdEED2Ev.exit43, label %if.then.i.i.i42, !llfi_index !104

if.then.i.i.i42:                                  ; preds = %_ZNSt6vectorIdSaIdEED2Ev.exit40
  call void @_ZdlPv(ptr noundef nonnull %fi34) #2, !llfi_index !105
  br label %_ZNSt6vectorIdSaIdEED2Ev.exit43, !llfi_index !106

_ZNSt6vectorIdSaIdEED2Ev.exit43:                  ; preds = %if.then.i.i.i42, %_ZNSt6vectorIdSaIdEED2Ev.exit40
  %m_delx_xi = getelementptr inbounds %struct.Mesh, ptr %this, i64 0, i32 31, !llfi_index !107
  %15 = load ptr, ptr %m_delx_xi, align 8, !tbaa !12, !llfi_index !108
  %fi18 = call ptr @injectFault0(i64 97, ptr %15, i32 32, i32 0, i32 1, i32 0, ptr @load_namestr), !llfi_injectfault !7
  %tobool.not.i.i.i44 = icmp eq ptr %fi18, null, !llfi_index !109
  %fi19 = call i1 @injectFault1(i64 98, i1 %tobool.not.i.i.i44, i32 53, i32 0, i32 1, i32 0, ptr @icmp_namestr), !llfi_injectfault !7
  br i1 %fi19, label %_ZNSt6vectorIdSaIdEED2Ev.exit46, label %if.then.i.i.i45, !llfi_index !110

if.then.i.i.i45:                                  ; preds = %_ZNSt6vectorIdSaIdEED2Ev.exit43
  call void @_ZdlPv(ptr noundef nonnull %fi18) #2, !llfi_index !111
  br label %_ZNSt6vectorIdSaIdEED2Ev.exit46, !llfi_index !112

_ZNSt6vectorIdSaIdEED2Ev.exit46:                  ; preds = %if.then.i.i.i45, %_ZNSt6vectorIdSaIdEED2Ev.exit43
  %m_delv_zeta = getelementptr inbounds %struct.Mesh, ptr %this, i64 0, i32 30, !llfi_index !113
  %16 = load ptr, ptr %m_delv_zeta, align 8, !tbaa !12, !llfi_index !114
  %fi20 = call ptr @injectFault0(i64 103, ptr %16, i32 32, i32 0, i32 1, i32 0, ptr @load_namestr), !llfi_injectfault !7
  %tobool.not.i.i.i47 = icmp eq ptr %fi20, null, !llfi_index !115
  %fi22 = call i1 @injectFault1(i64 104, i1 %tobool.not.i.i.i47, i32 53, i32 0, i32 1, i32 0, ptr @icmp_namestr), !llfi_injectfault !7
  br i1 %fi22, label %_ZNSt6vectorIdSaIdEED2Ev.exit49, label %if.then.i.i.i48, !llfi_index !116

if.then.i.i.i48:                                  ; preds = %_ZNSt6vectorIdSaIdEED2Ev.exit46
  call void @_ZdlPv(ptr noundef nonnull %fi20) #2, !llfi_index !117
  br label %_ZNSt6vectorIdSaIdEED2Ev.exit49, !llfi_index !118

_ZNSt6vectorIdSaIdEED2Ev.exit49:                  ; preds = %if.then.i.i.i48, %_ZNSt6vectorIdSaIdEED2Ev.exit46
  %m_delv_eta = getelementptr inbounds %struct.Mesh, ptr %this, i64 0, i32 29, !llfi_index !119
  %17 = load ptr, ptr %m_delv_eta, align 8, !tbaa !12, !llfi_index !120
  %fi42 = call ptr @injectFault0(i64 109, ptr %17, i32 32, i32 0, i32 1, i32 0, ptr @load_namestr), !llfi_injectfault !7
  %tobool.not.i.i.i50 = icmp eq ptr %fi42, null, !llfi_index !121
  %fi43 = call i1 @injectFault1(i64 110, i1 %tobool.not.i.i.i50, i32 53, i32 0, i32 1, i32 0, ptr @icmp_namestr), !llfi_injectfault !7
  br i1 %fi43, label %_ZNSt6vectorIdSaIdEED2Ev.exit52, label %if.then.i.i.i51, !llfi_index !122

if.then.i.i.i51:                                  ; preds = %_ZNSt6vectorIdSaIdEED2Ev.exit49
  call void @_ZdlPv(ptr noundef nonnull %fi42) #2, !llfi_index !123
  br label %_ZNSt6vectorIdSaIdEED2Ev.exit52, !llfi_index !124

_ZNSt6vectorIdSaIdEED2Ev.exit52:                  ; preds = %if.then.i.i.i51, %_ZNSt6vectorIdSaIdEED2Ev.exit49
  %m_delv_xi = getelementptr inbounds %struct.Mesh, ptr %this, i64 0, i32 28, !llfi_index !125
  %18 = load ptr, ptr %m_delv_xi, align 8, !tbaa !12, !llfi_index !126
  %fi44 = call ptr @injectFault0(i64 115, ptr %18, i32 32, i32 0, i32 1, i32 0, ptr @load_namestr), !llfi_injectfault !7
  %tobool.not.i.i.i53 = icmp eq ptr %fi44, null, !llfi_index !127
  %fi45 = call i1 @injectFault1(i64 116, i1 %tobool.not.i.i.i53, i32 53, i32 0, i32 1, i32 0, ptr @icmp_namestr), !llfi_injectfault !7
  br i1 %fi45, label %_ZNSt6vectorIdSaIdEED2Ev.exit55, label %if.then.i.i.i54, !llfi_index !128

if.then.i.i.i54:                                  ; preds = %_ZNSt6vectorIdSaIdEED2Ev.exit52
  call void @_ZdlPv(ptr noundef nonnull %fi44) #2, !llfi_index !129
  br label %_ZNSt6vectorIdSaIdEED2Ev.exit55, !llfi_index !130

_ZNSt6vectorIdSaIdEED2Ev.exit55:                  ; preds = %if.then.i.i.i54, %_ZNSt6vectorIdSaIdEED2Ev.exit52
  %m_dzz = getelementptr inbounds %struct.Mesh, ptr %this, i64 0, i32 27, !llfi_index !131
  %19 = load ptr, ptr %m_dzz, align 8, !tbaa !12, !llfi_index !132
  %fi46 = call ptr @injectFault0(i64 121, ptr %19, i32 32, i32 0, i32 1, i32 0, ptr @load_namestr), !llfi_injectfault !7
  %tobool.not.i.i.i56 = icmp eq ptr %fi46, null, !llfi_index !133
  %fi47 = call i1 @injectFault1(i64 122, i1 %tobool.not.i.i.i56, i32 53, i32 0, i32 1, i32 0, ptr @icmp_namestr), !llfi_injectfault !7
  br i1 %fi47, label %_ZNSt6vectorIdSaIdEED2Ev.exit58, label %if.then.i.i.i57, !llfi_index !134

if.then.i.i.i57:                                  ; preds = %_ZNSt6vectorIdSaIdEED2Ev.exit55
  call void @_ZdlPv(ptr noundef nonnull %fi46) #2, !llfi_index !135
  br label %_ZNSt6vectorIdSaIdEED2Ev.exit58, !llfi_index !136

_ZNSt6vectorIdSaIdEED2Ev.exit58:                  ; preds = %if.then.i.i.i57, %_ZNSt6vectorIdSaIdEED2Ev.exit55
  %m_dyy = getelementptr inbounds %struct.Mesh, ptr %this, i64 0, i32 26, !llfi_index !137
  %20 = load ptr, ptr %m_dyy, align 8, !tbaa !12, !llfi_index !138
  %fi50 = call ptr @injectFault0(i64 127, ptr %20, i32 32, i32 0, i32 1, i32 0, ptr @load_namestr), !llfi_injectfault !7
  %tobool.not.i.i.i59 = icmp eq ptr %fi50, null, !llfi_index !139
  %fi51 = call i1 @injectFault1(i64 128, i1 %tobool.not.i.i.i59, i32 53, i32 0, i32 1, i32 0, ptr @icmp_namestr), !llfi_injectfault !7
  br i1 %fi51, label %_ZNSt6vectorIdSaIdEED2Ev.exit61, label %if.then.i.i.i60, !llfi_index !140

if.then.i.i.i60:                                  ; preds = %_ZNSt6vectorIdSaIdEED2Ev.exit58
  call void @_ZdlPv(ptr noundef nonnull %fi50) #2, !llfi_index !141
  br label %_ZNSt6vectorIdSaIdEED2Ev.exit61, !llfi_index !142

_ZNSt6vectorIdSaIdEED2Ev.exit61:                  ; preds = %if.then.i.i.i60, %_ZNSt6vectorIdSaIdEED2Ev.exit58
  %m_dxx = getelementptr inbounds %struct.Mesh, ptr %this, i64 0, i32 25, !llfi_index !143
  %21 = load ptr, ptr %m_dxx, align 8, !tbaa !12, !llfi_index !144
  %fi52 = call ptr @injectFault0(i64 133, ptr %21, i32 32, i32 0, i32 1, i32 0, ptr @load_namestr), !llfi_injectfault !7
  %tobool.not.i.i.i62 = icmp eq ptr %fi52, null, !llfi_index !145
  %fi53 = call i1 @injectFault1(i64 134, i1 %tobool.not.i.i.i62, i32 53, i32 0, i32 1, i32 0, ptr @icmp_namestr), !llfi_injectfault !7
  br i1 %fi53, label %_ZNSt6vectorIdSaIdEED2Ev.exit64, label %if.then.i.i.i63, !llfi_index !146

if.then.i.i.i63:                                  ; preds = %_ZNSt6vectorIdSaIdEED2Ev.exit61
  call void @_ZdlPv(ptr noundef nonnull %fi52) #2, !llfi_index !147
  br label %_ZNSt6vectorIdSaIdEED2Ev.exit64, !llfi_index !148

_ZNSt6vectorIdSaIdEED2Ev.exit64:                  ; preds = %if.then.i.i.i63, %_ZNSt6vectorIdSaIdEED2Ev.exit61
  %m_elemBC = getelementptr inbounds %struct.Mesh, ptr %this, i64 0, i32 24, !llfi_index !149
  %22 = load ptr, ptr %m_elemBC, align 8, !tbaa !150, !llfi_index !153
  %fi54 = call ptr @injectFault0(i64 139, ptr %22, i32 32, i32 0, i32 1, i32 0, ptr @load_namestr), !llfi_injectfault !7
  %tobool.not.i.i.i65 = icmp eq ptr %fi54, null, !llfi_index !154
  %fi55 = call i1 @injectFault1(i64 140, i1 %tobool.not.i.i.i65, i32 53, i32 0, i32 1, i32 0, ptr @icmp_namestr), !llfi_injectfault !7
  br i1 %fi55, label %_ZNSt6vectorIiSaIiEED2Ev.exit, label %if.then.i.i.i66, !llfi_index !155

if.then.i.i.i66:                                  ; preds = %_ZNSt6vectorIdSaIdEED2Ev.exit64
  call void @_ZdlPv(ptr noundef nonnull %fi54) #2, !llfi_index !156
  br label %_ZNSt6vectorIiSaIiEED2Ev.exit, !llfi_index !157

_ZNSt6vectorIiSaIiEED2Ev.exit:                    ; preds = %if.then.i.i.i66, %_ZNSt6vectorIdSaIdEED2Ev.exit64
  %m_lzetap = getelementptr inbounds %struct.Mesh, ptr %this, i64 0, i32 23, !llfi_index !158
  %23 = load ptr, ptr %m_lzetap, align 8, !tbaa !150, !llfi_index !159
  %fi56 = call ptr @injectFault0(i64 145, ptr %23, i32 32, i32 0, i32 1, i32 0, ptr @load_namestr), !llfi_injectfault !7
  %tobool.not.i.i.i67 = icmp eq ptr %fi56, null, !llfi_index !160
  %fi57 = call i1 @injectFault1(i64 146, i1 %tobool.not.i.i.i67, i32 53, i32 0, i32 1, i32 0, ptr @icmp_namestr), !llfi_injectfault !7
  br i1 %fi57, label %_ZNSt6vectorIiSaIiEED2Ev.exit69, label %if.then.i.i.i68, !llfi_index !161

if.then.i.i.i68:                                  ; preds = %_ZNSt6vectorIiSaIiEED2Ev.exit
  call void @_ZdlPv(ptr noundef nonnull %fi56) #2, !llfi_index !162
  br label %_ZNSt6vectorIiSaIiEED2Ev.exit69, !llfi_index !163

_ZNSt6vectorIiSaIiEED2Ev.exit69:                  ; preds = %if.then.i.i.i68, %_ZNSt6vectorIiSaIiEED2Ev.exit
  %m_lzetam = getelementptr inbounds %struct.Mesh, ptr %this, i64 0, i32 22, !llfi_index !164
  %24 = load ptr, ptr %m_lzetam, align 8, !tbaa !150, !llfi_index !165
  %fi58 = call ptr @injectFault0(i64 151, ptr %24, i32 32, i32 0, i32 1, i32 0, ptr @load_namestr), !llfi_injectfault !7
  %tobool.not.i.i.i70 = icmp eq ptr %fi58, null, !llfi_index !166
  %fi59 = call i1 @injectFault1(i64 152, i1 %tobool.not.i.i.i70, i32 53, i32 0, i32 1, i32 0, ptr @icmp_namestr), !llfi_injectfault !7
  br i1 %fi59, label %_ZNSt6vectorIiSaIiEED2Ev.exit72, label %if.then.i.i.i71, !llfi_index !167

if.then.i.i.i71:                                  ; preds = %_ZNSt6vectorIiSaIiEED2Ev.exit69
  call void @_ZdlPv(ptr noundef nonnull %fi58) #2, !llfi_index !168
  br label %_ZNSt6vectorIiSaIiEED2Ev.exit72, !llfi_index !169

_ZNSt6vectorIiSaIiEED2Ev.exit72:                  ; preds = %if.then.i.i.i71, %_ZNSt6vectorIiSaIiEED2Ev.exit69
  %m_letap = getelementptr inbounds %struct.Mesh, ptr %this, i64 0, i32 21, !llfi_index !170
  %25 = load ptr, ptr %m_letap, align 8, !tbaa !150, !llfi_index !171
  %fi60 = call ptr @injectFault0(i64 157, ptr %25, i32 32, i32 0, i32 1, i32 0, ptr @load_namestr), !llfi_injectfault !7
  %tobool.not.i.i.i73 = icmp eq ptr %fi60, null, !llfi_index !172
  %fi61 = call i1 @injectFault1(i64 158, i1 %tobool.not.i.i.i73, i32 53, i32 0, i32 1, i32 0, ptr @icmp_namestr), !llfi_injectfault !7
  br i1 %fi61, label %_ZNSt6vectorIiSaIiEED2Ev.exit75, label %if.then.i.i.i74, !llfi_index !173

if.then.i.i.i74:                                  ; preds = %_ZNSt6vectorIiSaIiEED2Ev.exit72
  call void @_ZdlPv(ptr noundef nonnull %fi60) #2, !llfi_index !174
  br label %_ZNSt6vectorIiSaIiEED2Ev.exit75, !llfi_index !175

_ZNSt6vectorIiSaIiEED2Ev.exit75:                  ; preds = %if.then.i.i.i74, %_ZNSt6vectorIiSaIiEED2Ev.exit72
  %m_letam = getelementptr inbounds %struct.Mesh, ptr %this, i64 0, i32 20, !llfi_index !176
  %26 = load ptr, ptr %m_letam, align 8, !tbaa !150, !llfi_index !177
  %fi62 = call ptr @injectFault0(i64 163, ptr %26, i32 32, i32 0, i32 1, i32 0, ptr @load_namestr), !llfi_injectfault !7
  %tobool.not.i.i.i76 = icmp eq ptr %fi62, null, !llfi_index !178
  %fi63 = call i1 @injectFault1(i64 164, i1 %tobool.not.i.i.i76, i32 53, i32 0, i32 1, i32 0, ptr @icmp_namestr), !llfi_injectfault !7
  br i1 %fi63, label %_ZNSt6vectorIiSaIiEED2Ev.exit78, label %if.then.i.i.i77, !llfi_index !179

if.then.i.i.i77:                                  ; preds = %_ZNSt6vectorIiSaIiEED2Ev.exit75
  call void @_ZdlPv(ptr noundef nonnull %fi62) #2, !llfi_index !180
  br label %_ZNSt6vectorIiSaIiEED2Ev.exit78, !llfi_index !181

_ZNSt6vectorIiSaIiEED2Ev.exit78:                  ; preds = %if.then.i.i.i77, %_ZNSt6vectorIiSaIiEED2Ev.exit75
  %m_lxip = getelementptr inbounds %struct.Mesh, ptr %this, i64 0, i32 19, !llfi_index !182
  %27 = load ptr, ptr %m_lxip, align 8, !tbaa !150, !llfi_index !183
  %fi64 = call ptr @injectFault0(i64 169, ptr %27, i32 32, i32 0, i32 1, i32 0, ptr @load_namestr), !llfi_injectfault !7
  %tobool.not.i.i.i79 = icmp eq ptr %fi64, null, !llfi_index !184
  %fi65 = call i1 @injectFault1(i64 170, i1 %tobool.not.i.i.i79, i32 53, i32 0, i32 1, i32 0, ptr @icmp_namestr), !llfi_injectfault !7
  br i1 %fi65, label %_ZNSt6vectorIiSaIiEED2Ev.exit81, label %if.then.i.i.i80, !llfi_index !185

if.then.i.i.i80:                                  ; preds = %_ZNSt6vectorIiSaIiEED2Ev.exit78
  call void @_ZdlPv(ptr noundef nonnull %fi64) #2, !llfi_index !186
  br label %_ZNSt6vectorIiSaIiEED2Ev.exit81, !llfi_index !187

_ZNSt6vectorIiSaIiEED2Ev.exit81:                  ; preds = %if.then.i.i.i80, %_ZNSt6vectorIiSaIiEED2Ev.exit78
  %m_lxim = getelementptr inbounds %struct.Mesh, ptr %this, i64 0, i32 18, !llfi_index !188
  %28 = load ptr, ptr %m_lxim, align 8, !tbaa !150, !llfi_index !189
  %fi66 = call ptr @injectFault0(i64 175, ptr %28, i32 32, i32 0, i32 1, i32 0, ptr @load_namestr), !llfi_injectfault !7
  %tobool.not.i.i.i82 = icmp eq ptr %fi66, null, !llfi_index !190
  %fi67 = call i1 @injectFault1(i64 176, i1 %tobool.not.i.i.i82, i32 53, i32 0, i32 1, i32 0, ptr @icmp_namestr), !llfi_injectfault !7
  br i1 %fi67, label %_ZNSt6vectorIiSaIiEED2Ev.exit84, label %if.then.i.i.i83, !llfi_index !191

if.then.i.i.i83:                                  ; preds = %_ZNSt6vectorIiSaIiEED2Ev.exit81
  call void @_ZdlPv(ptr noundef nonnull %fi66) #2, !llfi_index !192
  br label %_ZNSt6vectorIiSaIiEED2Ev.exit84, !llfi_index !193

_ZNSt6vectorIiSaIiEED2Ev.exit84:                  ; preds = %if.then.i.i.i83, %_ZNSt6vectorIiSaIiEED2Ev.exit81
  %m_nodelist = getelementptr inbounds %struct.Mesh, ptr %this, i64 0, i32 17, !llfi_index !194
  %29 = load ptr, ptr %m_nodelist, align 8, !tbaa !150, !llfi_index !195
  %fi68 = call ptr @injectFault0(i64 181, ptr %29, i32 32, i32 0, i32 1, i32 0, ptr @load_namestr), !llfi_injectfault !7
  %tobool.not.i.i.i85 = icmp eq ptr %fi68, null, !llfi_index !196
  %fi69 = call i1 @injectFault1(i64 182, i1 %tobool.not.i.i.i85, i32 53, i32 0, i32 1, i32 0, ptr @icmp_namestr), !llfi_injectfault !7
  br i1 %fi69, label %_ZNSt6vectorIiSaIiEED2Ev.exit87, label %if.then.i.i.i86, !llfi_index !197

if.then.i.i.i86:                                  ; preds = %_ZNSt6vectorIiSaIiEED2Ev.exit84
  call void @_ZdlPv(ptr noundef nonnull %fi68) #2, !llfi_index !198
  br label %_ZNSt6vectorIiSaIiEED2Ev.exit87, !llfi_index !199

_ZNSt6vectorIiSaIiEED2Ev.exit87:                  ; preds = %if.then.i.i.i86, %_ZNSt6vectorIiSaIiEED2Ev.exit84
  %m_matElemlist = getelementptr inbounds %struct.Mesh, ptr %this, i64 0, i32 16, !llfi_index !200
  %30 = load ptr, ptr %m_matElemlist, align 8, !tbaa !150, !llfi_index !201
  %fi70 = call ptr @injectFault0(i64 187, ptr %30, i32 32, i32 0, i32 1, i32 0, ptr @load_namestr), !llfi_injectfault !7
  %tobool.not.i.i.i88 = icmp eq ptr %fi70, null, !llfi_index !202
  %fi71 = call i1 @injectFault1(i64 188, i1 %tobool.not.i.i.i88, i32 53, i32 0, i32 1, i32 0, ptr @icmp_namestr), !llfi_injectfault !7
  br i1 %fi71, label %_ZNSt6vectorIiSaIiEED2Ev.exit90, label %if.then.i.i.i89, !llfi_index !203

if.then.i.i.i89:                                  ; preds = %_ZNSt6vectorIiSaIiEED2Ev.exit87
  call void @_ZdlPv(ptr noundef nonnull %fi70) #2, !llfi_index !204
  br label %_ZNSt6vectorIiSaIiEED2Ev.exit90, !llfi_index !205

_ZNSt6vectorIiSaIiEED2Ev.exit90:                  ; preds = %if.then.i.i.i89, %_ZNSt6vectorIiSaIiEED2Ev.exit87
  %m_symmZ = getelementptr inbounds %struct.Mesh, ptr %this, i64 0, i32 15, !llfi_index !206
  %31 = load ptr, ptr %m_symmZ, align 8, !tbaa !150, !llfi_index !207
  %fi36 = call ptr @injectFault0(i64 193, ptr %31, i32 32, i32 0, i32 1, i32 0, ptr @load_namestr), !llfi_injectfault !7
  %tobool.not.i.i.i91 = icmp eq ptr %fi36, null, !llfi_index !208
  %fi37 = call i1 @injectFault1(i64 194, i1 %tobool.not.i.i.i91, i32 53, i32 0, i32 1, i32 0, ptr @icmp_namestr), !llfi_injectfault !7
  br i1 %fi37, label %_ZNSt6vectorIiSaIiEED2Ev.exit93, label %if.then.i.i.i92, !llfi_index !209

if.then.i.i.i92:                                  ; preds = %_ZNSt6vectorIiSaIiEED2Ev.exit90
  call void @_ZdlPv(ptr noundef nonnull %fi36) #2, !llfi_index !210
  br label %_ZNSt6vectorIiSaIiEED2Ev.exit93, !llfi_index !211

_ZNSt6vectorIiSaIiEED2Ev.exit93:                  ; preds = %if.then.i.i.i92, %_ZNSt6vectorIiSaIiEED2Ev.exit90
  %m_symmY = getelementptr inbounds %struct.Mesh, ptr %this, i64 0, i32 14, !llfi_index !212
  %32 = load ptr, ptr %m_symmY, align 8, !tbaa !150, !llfi_index !213
  %fi38 = call ptr @injectFault0(i64 199, ptr %32, i32 32, i32 0, i32 1, i32 0, ptr @load_namestr), !llfi_injectfault !7
  %tobool.not.i.i.i94 = icmp eq ptr %fi38, null, !llfi_index !214
  %fi39 = call i1 @injectFault1(i64 200, i1 %tobool.not.i.i.i94, i32 53, i32 0, i32 1, i32 0, ptr @icmp_namestr), !llfi_injectfault !7
  br i1 %fi39, label %_ZNSt6vectorIiSaIiEED2Ev.exit96, label %if.then.i.i.i95, !llfi_index !215

if.then.i.i.i95:                                  ; preds = %_ZNSt6vectorIiSaIiEED2Ev.exit93
  call void @_ZdlPv(ptr noundef nonnull %fi38) #2, !llfi_index !216
  br label %_ZNSt6vectorIiSaIiEED2Ev.exit96, !llfi_index !217

_ZNSt6vectorIiSaIiEED2Ev.exit96:                  ; preds = %if.then.i.i.i95, %_ZNSt6vectorIiSaIiEED2Ev.exit93
  %m_symmX = getelementptr inbounds %struct.Mesh, ptr %this, i64 0, i32 13, !llfi_index !218
  %33 = load ptr, ptr %m_symmX, align 8, !tbaa !150, !llfi_index !219
  %fi40 = call ptr @injectFault0(i64 205, ptr %33, i32 32, i32 0, i32 1, i32 0, ptr @load_namestr), !llfi_injectfault !7
  %tobool.not.i.i.i97 = icmp eq ptr %fi40, null, !llfi_index !220
  %fi41 = call i1 @injectFault1(i64 206, i1 %tobool.not.i.i.i97, i32 53, i32 0, i32 1, i32 0, ptr @icmp_namestr), !llfi_injectfault !7
  br i1 %fi41, label %_ZNSt6vectorIiSaIiEED2Ev.exit99, label %if.then.i.i.i98, !llfi_index !221

if.then.i.i.i98:                                  ; preds = %_ZNSt6vectorIiSaIiEED2Ev.exit96
  call void @_ZdlPv(ptr noundef nonnull %fi40) #2, !llfi_index !222
  br label %_ZNSt6vectorIiSaIiEED2Ev.exit99, !llfi_index !223

_ZNSt6vectorIiSaIiEED2Ev.exit99:                  ; preds = %if.then.i.i.i98, %_ZNSt6vectorIiSaIiEED2Ev.exit96
  %m_nodalMass = getelementptr inbounds %struct.Mesh, ptr %this, i64 0, i32 12, !llfi_index !224
  %34 = load ptr, ptr %m_nodalMass, align 8, !tbaa !12, !llfi_index !225
  %fi72 = call ptr @injectFault0(i64 211, ptr %34, i32 32, i32 0, i32 1, i32 0, ptr @load_namestr), !llfi_injectfault !7
  %tobool.not.i.i.i100 = icmp eq ptr %fi72, null, !llfi_index !226
  %fi73 = call i1 @injectFault1(i64 212, i1 %tobool.not.i.i.i100, i32 53, i32 0, i32 1, i32 0, ptr @icmp_namestr), !llfi_injectfault !7
  br i1 %fi73, label %_ZNSt6vectorIdSaIdEED2Ev.exit102, label %if.then.i.i.i101, !llfi_index !227

if.then.i.i.i101:                                 ; preds = %_ZNSt6vectorIiSaIiEED2Ev.exit99
  call void @_ZdlPv(ptr noundef nonnull %fi72) #2, !llfi_index !228
  br label %_ZNSt6vectorIdSaIdEED2Ev.exit102, !llfi_index !229

_ZNSt6vectorIdSaIdEED2Ev.exit102:                 ; preds = %if.then.i.i.i101, %_ZNSt6vectorIiSaIiEED2Ev.exit99
  %m_fz = getelementptr inbounds %struct.Mesh, ptr %this, i64 0, i32 11, !llfi_index !230
  %35 = load ptr, ptr %m_fz, align 8, !tbaa !12, !llfi_index !231
  %fi74 = call ptr @injectFault0(i64 217, ptr %35, i32 32, i32 0, i32 1, i32 0, ptr @load_namestr), !llfi_injectfault !7
  %tobool.not.i.i.i103 = icmp eq ptr %fi74, null, !llfi_index !232
  %fi75 = call i1 @injectFault1(i64 218, i1 %tobool.not.i.i.i103, i32 53, i32 0, i32 1, i32 0, ptr @icmp_namestr), !llfi_injectfault !7
  br i1 %fi75, label %_ZNSt6vectorIdSaIdEED2Ev.exit105, label %if.then.i.i.i104, !llfi_index !233

if.then.i.i.i104:                                 ; preds = %_ZNSt6vectorIdSaIdEED2Ev.exit102
  call void @_ZdlPv(ptr noundef nonnull %fi74) #2, !llfi_index !234
  br label %_ZNSt6vectorIdSaIdEED2Ev.exit105, !llfi_index !235

_ZNSt6vectorIdSaIdEED2Ev.exit105:                 ; preds = %if.then.i.i.i104, %_ZNSt6vectorIdSaIdEED2Ev.exit102
  %m_fy = getelementptr inbounds %struct.Mesh, ptr %this, i64 0, i32 10, !llfi_index !236
  %36 = load ptr, ptr %m_fy, align 8, !tbaa !12, !llfi_index !237
  %fi76 = call ptr @injectFault0(i64 223, ptr %36, i32 32, i32 0, i32 1, i32 0, ptr @load_namestr), !llfi_injectfault !7
  %tobool.not.i.i.i106 = icmp eq ptr %fi76, null, !llfi_index !238
  %fi77 = call i1 @injectFault1(i64 224, i1 %tobool.not.i.i.i106, i32 53, i32 0, i32 1, i32 0, ptr @icmp_namestr), !llfi_injectfault !7
  br i1 %fi77, label %_ZNSt6vectorIdSaIdEED2Ev.exit108, label %if.then.i.i.i107, !llfi_index !239

if.then.i.i.i107:                                 ; preds = %_ZNSt6vectorIdSaIdEED2Ev.exit105
  call void @_ZdlPv(ptr noundef nonnull %fi76) #2, !llfi_index !240
  br label %_ZNSt6vectorIdSaIdEED2Ev.exit108, !llfi_index !241

_ZNSt6vectorIdSaIdEED2Ev.exit108:                 ; preds = %if.then.i.i.i107, %_ZNSt6vectorIdSaIdEED2Ev.exit105
  %m_fx = getelementptr inbounds %struct.Mesh, ptr %this, i64 0, i32 9, !llfi_index !242
  %37 = load ptr, ptr %m_fx, align 8, !tbaa !12, !llfi_index !243
  %fi78 = call ptr @injectFault0(i64 229, ptr %37, i32 32, i32 0, i32 1, i32 0, ptr @load_namestr), !llfi_injectfault !7
  %tobool.not.i.i.i109 = icmp eq ptr %fi78, null, !llfi_index !244
  %fi79 = call i1 @injectFault1(i64 230, i1 %tobool.not.i.i.i109, i32 53, i32 0, i32 1, i32 0, ptr @icmp_namestr), !llfi_injectfault !7
  br i1 %fi79, label %_ZNSt6vectorIdSaIdEED2Ev.exit111, label %if.then.i.i.i110, !llfi_index !245

if.then.i.i.i110:                                 ; preds = %_ZNSt6vectorIdSaIdEED2Ev.exit108
  call void @_ZdlPv(ptr noundef nonnull %fi78) #2, !llfi_index !246
  br label %_ZNSt6vectorIdSaIdEED2Ev.exit111, !llfi_index !247

_ZNSt6vectorIdSaIdEED2Ev.exit111:                 ; preds = %if.then.i.i.i110, %_ZNSt6vectorIdSaIdEED2Ev.exit108
  %m_zdd = getelementptr inbounds %struct.Mesh, ptr %this, i64 0, i32 8, !llfi_index !248
  %38 = load ptr, ptr %m_zdd, align 8, !tbaa !12, !llfi_index !249
  %fi80 = call ptr @injectFault0(i64 235, ptr %38, i32 32, i32 0, i32 1, i32 0, ptr @load_namestr), !llfi_injectfault !7
  %tobool.not.i.i.i112 = icmp eq ptr %fi80, null, !llfi_index !250
  %fi81 = call i1 @injectFault1(i64 236, i1 %tobool.not.i.i.i112, i32 53, i32 0, i32 1, i32 0, ptr @icmp_namestr), !llfi_injectfault !7
  br i1 %fi81, label %_ZNSt6vectorIdSaIdEED2Ev.exit114, label %if.then.i.i.i113, !llfi_index !251

if.then.i.i.i113:                                 ; preds = %_ZNSt6vectorIdSaIdEED2Ev.exit111
  call void @_ZdlPv(ptr noundef nonnull %fi80) #2, !llfi_index !252
  br label %_ZNSt6vectorIdSaIdEED2Ev.exit114, !llfi_index !253

_ZNSt6vectorIdSaIdEED2Ev.exit114:                 ; preds = %if.then.i.i.i113, %_ZNSt6vectorIdSaIdEED2Ev.exit111
  %m_ydd = getelementptr inbounds %struct.Mesh, ptr %this, i64 0, i32 7, !llfi_index !254
  %39 = load ptr, ptr %m_ydd, align 8, !tbaa !12, !llfi_index !255
  %fi82 = call ptr @injectFault0(i64 241, ptr %39, i32 32, i32 0, i32 1, i32 0, ptr @load_namestr), !llfi_injectfault !7
  %tobool.not.i.i.i115 = icmp eq ptr %fi82, null, !llfi_index !256
  %fi83 = call i1 @injectFault1(i64 242, i1 %tobool.not.i.i.i115, i32 53, i32 0, i32 1, i32 0, ptr @icmp_namestr), !llfi_injectfault !7
  br i1 %fi83, label %_ZNSt6vectorIdSaIdEED2Ev.exit117, label %if.then.i.i.i116, !llfi_index !257

if.then.i.i.i116:                                 ; preds = %_ZNSt6vectorIdSaIdEED2Ev.exit114
  call void @_ZdlPv(ptr noundef nonnull %fi82) #2, !llfi_index !258
  br label %_ZNSt6vectorIdSaIdEED2Ev.exit117, !llfi_index !259

_ZNSt6vectorIdSaIdEED2Ev.exit117:                 ; preds = %if.then.i.i.i116, %_ZNSt6vectorIdSaIdEED2Ev.exit114
  %m_xdd = getelementptr inbounds %struct.Mesh, ptr %this, i64 0, i32 6, !llfi_index !260
  %40 = load ptr, ptr %m_xdd, align 8, !tbaa !12, !llfi_index !261
  %fi84 = call ptr @injectFault0(i64 247, ptr %40, i32 32, i32 0, i32 1, i32 0, ptr @load_namestr), !llfi_injectfault !7
  %tobool.not.i.i.i118 = icmp eq ptr %fi84, null, !llfi_index !262
  %fi85 = call i1 @injectFault1(i64 248, i1 %tobool.not.i.i.i118, i32 53, i32 0, i32 1, i32 0, ptr @icmp_namestr), !llfi_injectfault !7
  br i1 %fi85, label %_ZNSt6vectorIdSaIdEED2Ev.exit120, label %if.then.i.i.i119, !llfi_index !263

if.then.i.i.i119:                                 ; preds = %_ZNSt6vectorIdSaIdEED2Ev.exit117
  call void @_ZdlPv(ptr noundef nonnull %fi84) #2, !llfi_index !264
  br label %_ZNSt6vectorIdSaIdEED2Ev.exit120, !llfi_index !265

_ZNSt6vectorIdSaIdEED2Ev.exit120:                 ; preds = %if.then.i.i.i119, %_ZNSt6vectorIdSaIdEED2Ev.exit117
  %m_zd = getelementptr inbounds %struct.Mesh, ptr %this, i64 0, i32 5, !llfi_index !266
  %41 = load ptr, ptr %m_zd, align 8, !tbaa !12, !llfi_index !267
  %fi86 = call ptr @injectFault0(i64 253, ptr %41, i32 32, i32 0, i32 1, i32 0, ptr @load_namestr), !llfi_injectfault !7
  %tobool.not.i.i.i121 = icmp eq ptr %fi86, null, !llfi_index !268
  %fi87 = call i1 @injectFault1(i64 254, i1 %tobool.not.i.i.i121, i32 53, i32 0, i32 1, i32 0, ptr @icmp_namestr), !llfi_injectfault !7
  br i1 %fi87, label %_ZNSt6vectorIdSaIdEED2Ev.exit123, label %if.then.i.i.i122, !llfi_index !269

if.then.i.i.i122:                                 ; preds = %_ZNSt6vectorIdSaIdEED2Ev.exit120
  call void @_ZdlPv(ptr noundef nonnull %fi86) #2, !llfi_index !270
  br label %_ZNSt6vectorIdSaIdEED2Ev.exit123, !llfi_index !271

_ZNSt6vectorIdSaIdEED2Ev.exit123:                 ; preds = %if.then.i.i.i122, %_ZNSt6vectorIdSaIdEED2Ev.exit120
  %m_yd = getelementptr inbounds %struct.Mesh, ptr %this, i64 0, i32 4, !llfi_index !272
  %42 = load ptr, ptr %m_yd, align 8, !tbaa !12, !llfi_index !273
  %fi = call ptr @injectFault0(i64 259, ptr %42, i32 32, i32 0, i32 1, i32 0, ptr @load_namestr), !llfi_injectfault !7
  %tobool.not.i.i.i124 = icmp eq ptr %fi, null, !llfi_index !274
  %fi1 = call i1 @injectFault1(i64 260, i1 %tobool.not.i.i.i124, i32 53, i32 0, i32 1, i32 0, ptr @icmp_namestr), !llfi_injectfault !7
  br i1 %fi1, label %_ZNSt6vectorIdSaIdEED2Ev.exit126, label %if.then.i.i.i125, !llfi_index !275

if.then.i.i.i125:                                 ; preds = %_ZNSt6vectorIdSaIdEED2Ev.exit123
  call void @_ZdlPv(ptr noundef nonnull %fi) #2, !llfi_index !276
  br label %_ZNSt6vectorIdSaIdEED2Ev.exit126, !llfi_index !277

_ZNSt6vectorIdSaIdEED2Ev.exit126:                 ; preds = %if.then.i.i.i125, %_ZNSt6vectorIdSaIdEED2Ev.exit123
  %m_xd = getelementptr inbounds %struct.Mesh, ptr %this, i64 0, i32 3, !llfi_index !278
  %43 = load ptr, ptr %m_xd, align 8, !tbaa !12, !llfi_index !279
  %fi88 = call ptr @injectFault0(i64 265, ptr %43, i32 32, i32 0, i32 1, i32 0, ptr @load_namestr), !llfi_injectfault !7
  %tobool.not.i.i.i127 = icmp eq ptr %fi88, null, !llfi_index !280
  %fi89 = call i1 @injectFault1(i64 266, i1 %tobool.not.i.i.i127, i32 53, i32 0, i32 1, i32 0, ptr @icmp_namestr), !llfi_injectfault !7
  br i1 %fi89, label %_ZNSt6vectorIdSaIdEED2Ev.exit129, label %if.then.i.i.i128, !llfi_index !281

if.then.i.i.i128:                                 ; preds = %_ZNSt6vectorIdSaIdEED2Ev.exit126
  call void @_ZdlPv(ptr noundef nonnull %fi88) #2, !llfi_index !282
  br label %_ZNSt6vectorIdSaIdEED2Ev.exit129, !llfi_index !283

_ZNSt6vectorIdSaIdEED2Ev.exit129:                 ; preds = %if.then.i.i.i128, %_ZNSt6vectorIdSaIdEED2Ev.exit126
  %m_z = getelementptr inbounds %struct.Mesh, ptr %this, i64 0, i32 2, !llfi_index !284
  %44 = load ptr, ptr %m_z, align 8, !tbaa !12, !llfi_index !285
  %fi48 = call ptr @injectFault0(i64 271, ptr %44, i32 32, i32 0, i32 1, i32 0, ptr @load_namestr), !llfi_injectfault !7
  %tobool.not.i.i.i130 = icmp eq ptr %fi48, null, !llfi_index !286
  %fi49 = call i1 @injectFault1(i64 272, i1 %tobool.not.i.i.i130, i32 53, i32 0, i32 1, i32 0, ptr @icmp_namestr), !llfi_injectfault !7
  br i1 %fi49, label %_ZNSt6vectorIdSaIdEED2Ev.exit132, label %if.then.i.i.i131, !llfi_index !287

if.then.i.i.i131:                                 ; preds = %_ZNSt6vectorIdSaIdEED2Ev.exit129
  call void @_ZdlPv(ptr noundef nonnull %fi48) #2, !llfi_index !288
  br label %_ZNSt6vectorIdSaIdEED2Ev.exit132, !llfi_index !289

_ZNSt6vectorIdSaIdEED2Ev.exit132:                 ; preds = %if.then.i.i.i131, %_ZNSt6vectorIdSaIdEED2Ev.exit129
  %m_y = getelementptr inbounds %struct.Mesh, ptr %this, i64 0, i32 1, !llfi_index !290
  %45 = load ptr, ptr %m_y, align 8, !tbaa !12, !llfi_index !291
  %fi90 = call ptr @injectFault0(i64 277, ptr %45, i32 32, i32 0, i32 1, i32 0, ptr @load_namestr), !llfi_injectfault !7
  %tobool.not.i.i.i133 = icmp eq ptr %fi90, null, !llfi_index !292
  %fi91 = call i1 @injectFault1(i64 278, i1 %tobool.not.i.i.i133, i32 53, i32 0, i32 1, i32 0, ptr @icmp_namestr), !llfi_injectfault !7
  br i1 %fi91, label %_ZNSt6vectorIdSaIdEED2Ev.exit135, label %if.then.i.i.i134, !llfi_index !293

if.then.i.i.i134:                                 ; preds = %_ZNSt6vectorIdSaIdEED2Ev.exit132
  call void @_ZdlPv(ptr noundef nonnull %fi90) #2, !llfi_index !294
  br label %_ZNSt6vectorIdSaIdEED2Ev.exit135, !llfi_index !295

_ZNSt6vectorIdSaIdEED2Ev.exit135:                 ; preds = %if.then.i.i.i134, %_ZNSt6vectorIdSaIdEED2Ev.exit132
  %46 = load ptr, ptr %this, align 8, !tbaa !12, !llfi_index !296
  %fi92 = call ptr @injectFault0(i64 282, ptr %46, i32 32, i32 0, i32 1, i32 0, ptr @load_namestr), !llfi_injectfault !7
  %tobool.not.i.i.i136 = icmp eq ptr %fi92, null, !llfi_index !297
  %fi93 = call i1 @injectFault1(i64 283, i1 %tobool.not.i.i.i136, i32 53, i32 0, i32 1, i32 0, ptr @icmp_namestr), !llfi_injectfault !7
  br i1 %fi93, label %_ZNSt6vectorIdSaIdEED2Ev.exit138, label %if.then.i.i.i137, !llfi_index !298

if.then.i.i.i137:                                 ; preds = %_ZNSt6vectorIdSaIdEED2Ev.exit135
  call void @_ZdlPv(ptr noundef nonnull %fi92) #2, !llfi_index !299
  br label %_ZNSt6vectorIdSaIdEED2Ev.exit138, !llfi_index !300

_ZNSt6vectorIdSaIdEED2Ev.exit138:                 ; preds = %if.then.i.i.i137, %_ZNSt6vectorIdSaIdEED2Ev.exit135
  ret void, !llfi_index !301
}

; Function Attrs: nobuiltin nounwind
declare void @_ZdlPv(ptr noundef) local_unnamed_addr #4

; Function Attrs: mustprogress nofree noinline norecurse nosync nounwind willreturn uwtable
define dso_local void @_Z13TimeIncrementv() local_unnamed_addr #5 {
entry:
  %0 = load double, ptr getelementptr inbounds (%struct.Mesh, ptr @mesh, i64 0, i32 52), align 8, !tbaa !302, !llfi_index !304
  %fi = call double @injectFault4(i64 288, double %0, i32 32, i32 0, i32 1, i32 0, ptr @load_namestr), !llfi_injectfault !7
  %1 = load double, ptr getelementptr inbounds (%struct.Mesh, ptr @mesh, i64 0, i32 48), align 8, !tbaa !302, !llfi_index !305
  %fi1 = call double @injectFault4(i64 289, double %1, i32 32, i32 0, i32 1, i32 0, ptr @load_namestr), !llfi_injectfault !7
  %sub = fsub double %fi, %fi1, !llfi_index !306
  %fi2 = call double @injectFault4(i64 290, double %sub, i32 16, i32 0, i32 1, i32 0, ptr @fsub_namestr), !llfi_injectfault !7
  %2 = load double, ptr getelementptr inbounds (%struct.Mesh, ptr @mesh, i64 0, i32 47), align 8, !tbaa !302, !llfi_index !307
  %fi3 = call double @injectFault4(i64 291, double %2, i32 32, i32 0, i32 1, i32 0, ptr @load_namestr), !llfi_injectfault !7
  %cmp = fcmp ugt double %fi3, 0.000000e+00, !llfi_index !308
  %fi4 = call i1 @injectFault1(i64 292, i1 %cmp, i32 54, i32 0, i32 1, i32 0, ptr @fcmp_namestr), !llfi_injectfault !7
  %3 = load i32, ptr getelementptr inbounds (%struct.Mesh, ptr @mesh, i64 0, i32 75), align 8, !llfi_index !309
  %fi5 = call i32 @injectFault2(i64 293, i32 %3, i32 32, i32 0, i32 1, i32 0, ptr @load_namestr), !llfi_injectfault !7
  %cmp4.not = icmp eq i32 %fi5, 0, !llfi_index !310
  %fi6 = call i1 @injectFault1(i64 294, i1 %cmp4.not, i32 53, i32 0, i32 1, i32 0, ptr @icmp_namestr), !llfi_injectfault !7
  %or.cond = select i1 %fi4, i1 true, i1 %fi6, !llfi_index !311
  %fi7 = call i1 @injectFault1(i64 295, i1 %or.cond, i32 57, i32 0, i32 1, i32 0, ptr @select_namestr), !llfi_injectfault !7
  br i1 %fi7, label %if.end36, label %if.then, !llfi_index !312

if.then:                                          ; preds = %entry
  %4 = load double, ptr getelementptr inbounds (%struct.Mesh, ptr @mesh, i64 0, i32 49), align 8, !tbaa !302, !llfi_index !313
  %fi8 = call double @injectFault4(i64 297, double %4, i32 32, i32 0, i32 1, i32 0, ptr @load_namestr), !llfi_injectfault !7
  %5 = load double, ptr getelementptr inbounds (%struct.Mesh, ptr @mesh, i64 0, i32 72), align 8, !tbaa !302, !llfi_index !314
  %fi9 = call double @injectFault4(i64 298, double %5, i32 32, i32 0, i32 1, i32 0, ptr @load_namestr), !llfi_injectfault !7
  %cmp7 = fcmp olt double %fi9, 1.000000e+20, !llfi_index !315
  %fi10 = call i1 @injectFault1(i64 299, i1 %cmp7, i32 54, i32 0, i32 1, i32 0, ptr @fcmp_namestr), !llfi_injectfault !7
  %div = fmul double %fi9, 5.000000e-01, !llfi_index !316
  %fi11 = call double @injectFault4(i64 300, double %div, i32 18, i32 0, i32 1, i32 0, ptr @fmul_namestr), !llfi_injectfault !7
  %newdt.0 = select i1 %fi10, double %fi11, double 1.000000e+20, !llfi_index !317
  %fi12 = call double @injectFault4(i64 301, double %newdt.0, i32 57, i32 0, i32 1, i32 0, ptr @select_namestr), !llfi_injectfault !7
  %6 = load double, ptr getelementptr inbounds (%struct.Mesh, ptr @mesh, i64 0, i32 73), align 8, !tbaa !302, !llfi_index !318
  %fi13 = call double @injectFault4(i64 302, double %6, i32 32, i32 0, i32 1, i32 0, ptr @load_namestr), !llfi_injectfault !7
  %cmp11 = fcmp olt double %fi13, %fi12, !llfi_index !319
  %fi14 = call i1 @injectFault1(i64 303, i1 %cmp11, i32 54, i32 0, i32 1, i32 0, ptr @fcmp_namestr), !llfi_injectfault !7
  br i1 %fi14, label %if.then12, label %if.end15, !llfi_index !320

if.then12:                                        ; preds = %if.then
  %mul = fmul double %fi13, 2.000000e+00, !llfi_index !321
  %fi15 = call double @injectFault4(i64 305, double %mul, i32 18, i32 0, i32 1, i32 0, ptr @fmul_namestr), !llfi_injectfault !7
  %div14 = fdiv double %fi15, 3.000000e+00, !llfi_index !322
  %fi16 = call double @injectFault4(i64 306, double %div14, i32 21, i32 0, i32 1, i32 0, ptr @fdiv_namestr), !llfi_injectfault !7
  br label %if.end15, !llfi_index !323

if.end15:                                         ; preds = %if.then12, %if.then
  %newdt.1 = phi double [ %fi16, %if.then12 ], [ %fi12, %if.then ], !llfi_index !324
  %fi17 = call double @injectFault4(i64 308, double %newdt.1, i32 55, i32 0, i32 1, i32 0, ptr @phi_namestr), !llfi_injectfault !7
  %div16 = fdiv double %fi17, %fi8, !llfi_index !325
  %fi18 = call double @injectFault4(i64 309, double %div16, i32 21, i32 0, i32 1, i32 0, ptr @fdiv_namestr), !llfi_injectfault !7
  %cmp17 = fcmp ult double %fi18, 1.000000e+00, !llfi_index !326
  %fi19 = call i1 @injectFault1(i64 310, i1 %cmp17, i32 54, i32 0, i32 1, i32 0, ptr @fcmp_namestr), !llfi_injectfault !7
  br i1 %fi19, label %if.end29, label %if.then18, !llfi_index !327

if.then18:                                        ; preds = %if.end15
  %7 = load double, ptr getelementptr inbounds (%struct.Mesh, ptr @mesh, i64 0, i32 50), align 8, !tbaa !302, !llfi_index !328
  %fi20 = call double @injectFault4(i64 312, double %7, i32 32, i32 0, i32 1, i32 0, ptr @load_namestr), !llfi_injectfault !7
  %cmp20 = fcmp olt double %fi18, %fi20, !llfi_index !329
  %fi21 = call i1 @injectFault1(i64 313, i1 %cmp20, i32 54, i32 0, i32 1, i32 0, ptr @fcmp_namestr), !llfi_injectfault !7
  br i1 %fi21, label %if.end29, label %if.else, !llfi_index !330

if.else:                                          ; preds = %if.then18
  %8 = load double, ptr getelementptr inbounds (%struct.Mesh, ptr @mesh, i64 0, i32 51), align 8, !tbaa !302, !llfi_index !331
  %fi22 = call double @injectFault4(i64 315, double %8, i32 32, i32 0, i32 1, i32 0, ptr @load_namestr), !llfi_injectfault !7
  %cmp23 = fcmp ogt double %fi18, %fi22, !llfi_index !332
  %fi23 = call i1 @injectFault1(i64 316, i1 %cmp23, i32 54, i32 0, i32 1, i32 0, ptr @fcmp_namestr), !llfi_injectfault !7
  br i1 %fi23, label %if.then24, label %if.end29, !llfi_index !333

if.then24:                                        ; preds = %if.else
  %mul26 = fmul double %fi8, %fi22, !llfi_index !334
  %fi24 = call double @injectFault4(i64 318, double %mul26, i32 18, i32 0, i32 1, i32 0, ptr @fmul_namestr), !llfi_injectfault !7
  br label %if.end29, !llfi_index !335

if.end29:                                         ; preds = %if.then24, %if.else, %if.then18, %if.end15
  %newdt.2 = phi double [ %fi24, %if.then24 ], [ %fi17, %if.else ], [ %fi17, %if.end15 ], [ %fi8, %if.then18 ], !llfi_index !336
  %fi25 = call double @injectFault4(i64 320, double %newdt.2, i32 55, i32 0, i32 1, i32 0, ptr @phi_namestr), !llfi_injectfault !7
  %9 = load double, ptr getelementptr inbounds (%struct.Mesh, ptr @mesh, i64 0, i32 74), align 8, !tbaa !302, !llfi_index !337
  %fi26 = call double @injectFault4(i64 321, double %9, i32 32, i32 0, i32 1, i32 0, ptr @load_namestr), !llfi_injectfault !7
  %cmp31 = fcmp ogt double %fi25, %fi26, !llfi_index !338
  %fi27 = call i1 @injectFault1(i64 322, i1 %cmp31, i32 54, i32 0, i32 1, i32 0, ptr @fcmp_namestr), !llfi_injectfault !7
  %newdt.3 = select i1 %fi27, double %fi26, double %fi25, !llfi_index !339
  %fi28 = call double @injectFault4(i64 323, double %newdt.3, i32 57, i32 0, i32 1, i32 0, ptr @select_namestr), !llfi_injectfault !7
  store double %fi28, ptr getelementptr inbounds (%struct.Mesh, ptr @mesh, i64 0, i32 49), align 8, !tbaa !302, !llfi_index !340
  br label %if.end36, !llfi_index !341

if.end36:                                         ; preds = %if.end29, %entry
  %10 = load double, ptr getelementptr inbounds (%struct.Mesh, ptr @mesh, i64 0, i32 49), align 8, !tbaa !302, !llfi_index !342
  %fi29 = call double @injectFault4(i64 326, double %10, i32 32, i32 0, i32 1, i32 0, ptr @load_namestr), !llfi_injectfault !7
  %cmp38 = fcmp ogt double %fi2, %fi29, !llfi_index !343
  %fi30 = call i1 @injectFault1(i64 327, i1 %cmp38, i32 54, i32 0, i32 1, i32 0, ptr @fcmp_namestr), !llfi_injectfault !7
  br i1 %fi30, label %land.lhs.true39, label %if.end48, !llfi_index !344

land.lhs.true39:                                  ; preds = %if.end36
  %mul41 = fmul double %fi29, 4.000000e+00, !llfi_index !345
  %fi31 = call double @injectFault4(i64 329, double %mul41, i32 18, i32 0, i32 1, i32 0, ptr @fmul_namestr), !llfi_injectfault !7
  %div42 = fdiv double %fi31, 3.000000e+00, !llfi_index !346
  %fi32 = call double @injectFault4(i64 330, double %div42, i32 21, i32 0, i32 1, i32 0, ptr @fdiv_namestr), !llfi_injectfault !7
  %cmp43 = fcmp olt double %fi2, %fi32, !llfi_index !347
  %fi33 = call i1 @injectFault1(i64 331, i1 %cmp43, i32 54, i32 0, i32 1, i32 0, ptr @fcmp_namestr), !llfi_injectfault !7
  br i1 %fi33, label %if.then44, label %if.end48, !llfi_index !348

if.then44:                                        ; preds = %land.lhs.true39
  %mul46 = fmul double %fi29, 2.000000e+00, !llfi_index !349
  %fi34 = call double @injectFault4(i64 333, double %mul46, i32 18, i32 0, i32 1, i32 0, ptr @fmul_namestr), !llfi_injectfault !7
  %div47 = fdiv double %fi34, 3.000000e+00, !llfi_index !350
  %fi35 = call double @injectFault4(i64 334, double %div47, i32 21, i32 0, i32 1, i32 0, ptr @fdiv_namestr), !llfi_injectfault !7
  br label %if.end48, !llfi_index !351

if.end48:                                         ; preds = %if.then44, %land.lhs.true39, %if.end36
  %targetdt.0 = phi double [ %fi35, %if.then44 ], [ %fi2, %land.lhs.true39 ], [ %fi2, %if.end36 ], !llfi_index !352
  %fi36 = call double @injectFault4(i64 336, double %targetdt.0, i32 55, i32 0, i32 1, i32 0, ptr @phi_namestr), !llfi_injectfault !7
  %cmp50 = fcmp olt double %fi36, %fi29, !llfi_index !353
  %fi37 = call i1 @injectFault1(i64 337, i1 %cmp50, i32 54, i32 0, i32 1, i32 0, ptr @fcmp_namestr), !llfi_injectfault !7
  br i1 %fi37, label %if.then51, label %if.end53, !llfi_index !354

if.then51:                                        ; preds = %if.end48
  store double %fi36, ptr getelementptr inbounds (%struct.Mesh, ptr @mesh, i64 0, i32 49), align 8, !tbaa !302, !llfi_index !355
  br label %if.end53, !llfi_index !356

if.end53:                                         ; preds = %if.then51, %if.end48
  %11 = load double, ptr getelementptr inbounds (%struct.Mesh, ptr @mesh, i64 0, i32 49), align 8, !tbaa !302, !llfi_index !357
  %fi38 = call double @injectFault4(i64 341, double %11, i32 32, i32 0, i32 1, i32 0, ptr @load_namestr), !llfi_injectfault !7
  %add = fadd double %fi1, %fi38, !llfi_index !358
  %fi39 = call double @injectFault4(i64 342, double %add, i32 14, i32 0, i32 1, i32 0, ptr @fadd_namestr), !llfi_injectfault !7
  store double %fi39, ptr getelementptr inbounds (%struct.Mesh, ptr @mesh, i64 0, i32 48), align 8, !tbaa !302, !llfi_index !359
  %inc = add nsw i32 %fi5, 1, !llfi_index !360
  %fi40 = call i32 @injectFault2(i64 344, i32 %inc, i32 13, i32 0, i32 1, i32 0, ptr @add_namestr), !llfi_injectfault !7
  store i32 %fi40, ptr getelementptr inbounds (%struct.Mesh, ptr @mesh, i64 0, i32 75), align 8, !tbaa !361, !llfi_index !363
  ret void, !llfi_index !364
}

; Function Attrs: mustprogress nofree noinline norecurse nosync nounwind uwtable
define dso_local void @_Z23InitStressTermsForElemsiPdS_S_(i32 noundef %numElem, ptr nocapture noundef writeonly %sigxx, ptr nocapture noundef writeonly %sigyy, ptr nocapture noundef writeonly %sigzz) local_unnamed_addr #6 {
entry:
  %cmp14 = icmp sgt i32 %numElem, 0, !llfi_index !365
  %fi2 = call i1 @injectFault1(i64 347, i1 %cmp14, i32 53, i32 0, i32 1, i32 0, ptr @icmp_namestr), !llfi_injectfault !7
  br i1 %fi2, label %for.body.lr.ph, label %for.cond.cleanup, !llfi_index !366

for.body.lr.ph:                                   ; preds = %entry
  %0 = load ptr, ptr getelementptr inbounds (%struct.Mesh, ptr @mesh, i64 0, i32 35), align 8, !tbaa !12, !llfi_index !367
  %fi3 = call ptr @injectFault0(i64 349, ptr %0, i32 32, i32 0, i32 1, i32 0, ptr @load_namestr), !llfi_injectfault !7
  %1 = load ptr, ptr getelementptr inbounds (%struct.Mesh, ptr @mesh, i64 0, i32 36), align 8, !tbaa !12, !llfi_index !368
  %fi = call ptr @injectFault0(i64 350, ptr %1, i32 32, i32 0, i32 1, i32 0, ptr @load_namestr), !llfi_injectfault !7
  %wide.trip.count = zext i32 %numElem to i64, !llfi_index !369
  %fi1 = call i64 @injectFault3(i64 351, i64 %wide.trip.count, i32 39, i32 0, i32 1, i32 0, ptr @zext_namestr), !llfi_injectfault !7
  br label %for.body, !llfi_index !370

for.cond.cleanup:                                 ; preds = %for.body, %entry
  ret void, !llfi_index !371

for.body:                                         ; preds = %for.body, %for.body.lr.ph
  %indvars.iv = phi i64 [ 0, %for.body.lr.ph ], [ %fi9, %for.body ], !llfi_index !372
  %fi4 = call i64 @injectFault3(i64 354, i64 %indvars.iv, i32 55, i32 0, i32 1, i32 0, ptr @phi_namestr), !llfi_injectfault !7
  %add.ptr.i.i = getelementptr inbounds double, ptr %fi3, i64 %fi4, !llfi_index !373
  %2 = load double, ptr %add.ptr.i.i, align 8, !tbaa !302, !llfi_index !374
  %fi5 = call double @injectFault4(i64 356, double %2, i32 32, i32 0, i32 1, i32 0, ptr @load_namestr), !llfi_injectfault !7
  %fneg = fneg double %fi5, !llfi_index !375
  %fi6 = call double @injectFault4(i64 357, double %fneg, i32 12, i32 0, i32 1, i32 0, ptr @fneg_namestr), !llfi_injectfault !7
  %add.ptr.i.i13 = getelementptr inbounds double, ptr %fi, i64 %fi4, !llfi_index !376
  %3 = load double, ptr %add.ptr.i.i13, align 8, !tbaa !302, !llfi_index !377
  %fi7 = call double @injectFault4(i64 359, double %3, i32 32, i32 0, i32 1, i32 0, ptr @load_namestr), !llfi_injectfault !7
  %sub = fsub double %fi6, %fi7, !llfi_index !378
  %fi8 = call double @injectFault4(i64 360, double %sub, i32 16, i32 0, i32 1, i32 0, ptr @fsub_namestr), !llfi_injectfault !7
  %arrayidx = getelementptr inbounds double, ptr %sigzz, i64 %fi4, !llfi_index !379
  store double %fi8, ptr %arrayidx, align 8, !tbaa !302, !llfi_index !380
  %arrayidx3 = getelementptr inbounds double, ptr %sigyy, i64 %fi4, !llfi_index !381
  store double %fi8, ptr %arrayidx3, align 8, !tbaa !302, !llfi_index !382
  %arrayidx5 = getelementptr inbounds double, ptr %sigxx, i64 %fi4, !llfi_index !383
  store double %fi8, ptr %arrayidx5, align 8, !tbaa !302, !llfi_index !384
  %indvars.iv.next = add nuw nsw i64 %fi4, 1, !llfi_index !385
  %fi9 = call i64 @injectFault3(i64 367, i64 %indvars.iv.next, i32 13, i32 0, i32 1, i32 0, ptr @add_namestr), !llfi_injectfault !7
  %exitcond.not = icmp eq i64 %fi9, %fi1, !llfi_index !386
  %fi10 = call i1 @injectFault1(i64 368, i1 %exitcond.not, i32 53, i32 0, i32 1, i32 0, ptr @icmp_namestr), !llfi_injectfault !7
  br i1 %fi10, label %for.cond.cleanup, label %for.body, !llvm.loop !387, !llfi_index !390
}

; Function Attrs: argmemonly mustprogress nofree noinline nosync nounwind willreturn uwtable
define dso_local void @_Z32CalcElemShapeFunctionDerivativesPKdS0_S0_PA8_dPd(ptr nocapture noundef readonly %x, ptr nocapture noundef readonly %y, ptr nocapture noundef readonly %z, ptr noundef writeonly %b, ptr nocapture noundef writeonly %volume) local_unnamed_addr #7 {
entry:
  %0 = load double, ptr %x, align 8, !tbaa !302, !llfi_index !391
  %fi33 = call double @injectFault4(i64 370, double %0, i32 32, i32 0, i32 1, i32 0, ptr @load_namestr), !llfi_injectfault !7
  %arrayidx1 = getelementptr inbounds double, ptr %x, i64 1, !llfi_index !392
  %1 = load double, ptr %arrayidx1, align 8, !tbaa !302, !llfi_index !393
  %fi34 = call double @injectFault4(i64 372, double %1, i32 32, i32 0, i32 1, i32 0, ptr @load_namestr), !llfi_injectfault !7
  %arrayidx2 = getelementptr inbounds double, ptr %x, i64 2, !llfi_index !394
  %2 = load double, ptr %arrayidx2, align 8, !tbaa !302, !llfi_index !395
  %fi35 = call double @injectFault4(i64 374, double %2, i32 32, i32 0, i32 1, i32 0, ptr @load_namestr), !llfi_injectfault !7
  %arrayidx3 = getelementptr inbounds double, ptr %x, i64 3, !llfi_index !396
  %3 = load double, ptr %arrayidx3, align 8, !tbaa !302, !llfi_index !397
  %fi36 = call double @injectFault4(i64 376, double %3, i32 32, i32 0, i32 1, i32 0, ptr @load_namestr), !llfi_injectfault !7
  %arrayidx4 = getelementptr inbounds double, ptr %x, i64 4, !llfi_index !398
  %4 = load double, ptr %arrayidx4, align 8, !tbaa !302, !llfi_index !399
  %fi37 = call double @injectFault4(i64 378, double %4, i32 32, i32 0, i32 1, i32 0, ptr @load_namestr), !llfi_injectfault !7
  %arrayidx5 = getelementptr inbounds double, ptr %x, i64 5, !llfi_index !400
  %5 = load double, ptr %arrayidx5, align 8, !tbaa !302, !llfi_index !401
  %fi38 = call double @injectFault4(i64 380, double %5, i32 32, i32 0, i32 1, i32 0, ptr @load_namestr), !llfi_injectfault !7
  %arrayidx6 = getelementptr inbounds double, ptr %x, i64 6, !llfi_index !402
  %6 = load double, ptr %arrayidx6, align 8, !tbaa !302, !llfi_index !403
  %fi39 = call double @injectFault4(i64 382, double %6, i32 32, i32 0, i32 1, i32 0, ptr @load_namestr), !llfi_injectfault !7
  %arrayidx7 = getelementptr inbounds double, ptr %x, i64 7, !llfi_index !404
  %7 = load double, ptr %arrayidx7, align 8, !tbaa !302, !llfi_index !405
  %fi40 = call double @injectFault4(i64 384, double %7, i32 32, i32 0, i32 1, i32 0, ptr @load_namestr), !llfi_injectfault !7
  %8 = load double, ptr %y, align 8, !tbaa !302, !llfi_index !406
  %fi = call double @injectFault4(i64 385, double %8, i32 32, i32 0, i32 1, i32 0, ptr @load_namestr), !llfi_injectfault !7
  %arrayidx9 = getelementptr inbounds double, ptr %y, i64 1, !llfi_index !407
  %9 = load double, ptr %arrayidx9, align 8, !tbaa !302, !llfi_index !408
  %fi1 = call double @injectFault4(i64 387, double %9, i32 32, i32 0, i32 1, i32 0, ptr @load_namestr), !llfi_injectfault !7
  %arrayidx10 = getelementptr inbounds double, ptr %y, i64 2, !llfi_index !409
  %10 = load double, ptr %arrayidx10, align 8, !tbaa !302, !llfi_index !410
  %fi2 = call double @injectFault4(i64 389, double %10, i32 32, i32 0, i32 1, i32 0, ptr @load_namestr), !llfi_injectfault !7
  %arrayidx11 = getelementptr inbounds double, ptr %y, i64 3, !llfi_index !411
  %11 = load double, ptr %arrayidx11, align 8, !tbaa !302, !llfi_index !412
  %fi3 = call double @injectFault4(i64 391, double %11, i32 32, i32 0, i32 1, i32 0, ptr @load_namestr), !llfi_injectfault !7
  %arrayidx12 = getelementptr inbounds double, ptr %y, i64 4, !llfi_index !413
  %12 = load double, ptr %arrayidx12, align 8, !tbaa !302, !llfi_index !414
  %fi4 = call double @injectFault4(i64 393, double %12, i32 32, i32 0, i32 1, i32 0, ptr @load_namestr), !llfi_injectfault !7
  %arrayidx13 = getelementptr inbounds double, ptr %y, i64 5, !llfi_index !415
  %13 = load double, ptr %arrayidx13, align 8, !tbaa !302, !llfi_index !416
  %fi5 = call double @injectFault4(i64 395, double %13, i32 32, i32 0, i32 1, i32 0, ptr @load_namestr), !llfi_injectfault !7
  %arrayidx14 = getelementptr inbounds double, ptr %y, i64 6, !llfi_index !417
  %14 = load double, ptr %arrayidx14, align 8, !tbaa !302, !llfi_index !418
  %fi6 = call double @injectFault4(i64 397, double %14, i32 32, i32 0, i32 1, i32 0, ptr @load_namestr), !llfi_injectfault !7
  %arrayidx15 = getelementptr inbounds double, ptr %y, i64 7, !llfi_index !419
  %15 = load double, ptr %arrayidx15, align 8, !tbaa !302, !llfi_index !420
  %fi7 = call double @injectFault4(i64 399, double %15, i32 32, i32 0, i32 1, i32 0, ptr @load_namestr), !llfi_injectfault !7
  %16 = load double, ptr %z, align 8, !tbaa !302, !llfi_index !421
  %fi8 = call double @injectFault4(i64 400, double %16, i32 32, i32 0, i32 1, i32 0, ptr @load_namestr), !llfi_injectfault !7
  %arrayidx17 = getelementptr inbounds double, ptr %z, i64 1, !llfi_index !422
  %17 = load double, ptr %arrayidx17, align 8, !tbaa !302, !llfi_index !423
  %fi9 = call double @injectFault4(i64 402, double %17, i32 32, i32 0, i32 1, i32 0, ptr @load_namestr), !llfi_injectfault !7
  %arrayidx18 = getelementptr inbounds double, ptr %z, i64 2, !llfi_index !424
  %18 = load double, ptr %arrayidx18, align 8, !tbaa !302, !llfi_index !425
  %fi10 = call double @injectFault4(i64 404, double %18, i32 32, i32 0, i32 1, i32 0, ptr @load_namestr), !llfi_injectfault !7
  %arrayidx19 = getelementptr inbounds double, ptr %z, i64 3, !llfi_index !426
  %19 = load double, ptr %arrayidx19, align 8, !tbaa !302, !llfi_index !427
  %fi11 = call double @injectFault4(i64 406, double %19, i32 32, i32 0, i32 1, i32 0, ptr @load_namestr), !llfi_injectfault !7
  %arrayidx20 = getelementptr inbounds double, ptr %z, i64 4, !llfi_index !428
  %20 = load double, ptr %arrayidx20, align 8, !tbaa !302, !llfi_index !429
  %fi32 = call double @injectFault4(i64 408, double %20, i32 32, i32 0, i32 1, i32 0, ptr @load_namestr), !llfi_injectfault !7
  %arrayidx21 = getelementptr inbounds double, ptr %z, i64 5, !llfi_index !430
  %21 = load double, ptr %arrayidx21, align 8, !tbaa !302, !llfi_index !431
  %fi13 = call double @injectFault4(i64 410, double %21, i32 32, i32 0, i32 1, i32 0, ptr @load_namestr), !llfi_injectfault !7
  %arrayidx22 = getelementptr inbounds double, ptr %z, i64 6, !llfi_index !432
  %22 = load double, ptr %arrayidx22, align 8, !tbaa !302, !llfi_index !433
  %fi14 = call double @injectFault4(i64 412, double %22, i32 32, i32 0, i32 1, i32 0, ptr @load_namestr), !llfi_injectfault !7
  %arrayidx23 = getelementptr inbounds double, ptr %z, i64 7, !llfi_index !434
  %23 = load double, ptr %arrayidx23, align 8, !tbaa !302, !llfi_index !435
  %fi15 = call double @injectFault4(i64 414, double %23, i32 32, i32 0, i32 1, i32 0, ptr @load_namestr), !llfi_injectfault !7
  %sub = fsub double %fi39, %fi33, !llfi_index !436
  %fi16 = call double @injectFault4(i64 415, double %sub, i32 16, i32 0, i32 1, i32 0, ptr @fsub_namestr), !llfi_injectfault !7
  %sub24 = fsub double %fi38, %fi36, !llfi_index !437
  %fi17 = call double @injectFault4(i64 416, double %sub24, i32 16, i32 0, i32 1, i32 0, ptr @fsub_namestr), !llfi_injectfault !7
  %add = fadd double %fi17, %fi16, !llfi_index !438
  %fi18 = call double @injectFault4(i64 417, double %add, i32 14, i32 0, i32 1, i32 0, ptr @fadd_namestr), !llfi_injectfault !7
  %sub25 = fsub double %fi40, %fi34, !llfi_index !439
  %fi19 = call double @injectFault4(i64 418, double %sub25, i32 16, i32 0, i32 1, i32 0, ptr @fsub_namestr), !llfi_injectfault !7
  %sub26 = fsub double %fi18, %fi19, !llfi_index !440
  %fi20 = call double @injectFault4(i64 419, double %sub26, i32 16, i32 0, i32 1, i32 0, ptr @fsub_namestr), !llfi_injectfault !7
  %sub27 = fsub double %fi37, %fi35, !llfi_index !441
  %fi21 = call double @injectFault4(i64 420, double %sub27, i32 16, i32 0, i32 1, i32 0, ptr @fsub_namestr), !llfi_injectfault !7
  %sub28 = fsub double %fi20, %fi21, !llfi_index !442
  %fi22 = call double @injectFault4(i64 421, double %sub28, i32 16, i32 0, i32 1, i32 0, ptr @fsub_namestr), !llfi_injectfault !7
  %mul = fmul double %fi22, 1.250000e-01, !llfi_index !443
  %fi23 = call double @injectFault4(i64 422, double %mul, i32 18, i32 0, i32 1, i32 0, ptr @fmul_namestr), !llfi_injectfault !7
  %sub31 = fsub double %fi16, %fi17, !llfi_index !444
  %fi24 = call double @injectFault4(i64 423, double %sub31, i32 16, i32 0, i32 1, i32 0, ptr @fsub_namestr), !llfi_injectfault !7
  %add33 = fadd double %fi24, %fi19, !llfi_index !445
  %fi41 = call double @injectFault4(i64 424, double %add33, i32 14, i32 0, i32 1, i32 0, ptr @fadd_namestr), !llfi_injectfault !7
  %sub35 = fsub double %fi41, %fi21, !llfi_index !446
  %fi42 = call double @injectFault4(i64 425, double %sub35, i32 16, i32 0, i32 1, i32 0, ptr @fsub_namestr), !llfi_injectfault !7
  %mul36 = fmul double %fi42, 1.250000e-01, !llfi_index !447
  %fi43 = call double @injectFault4(i64 426, double %mul36, i32 18, i32 0, i32 1, i32 0, ptr @fmul_namestr), !llfi_injectfault !7
  %add41 = fadd double %fi18, %fi19, !llfi_index !448
  %fi44 = call double @injectFault4(i64 427, double %add41, i32 14, i32 0, i32 1, i32 0, ptr @fadd_namestr), !llfi_injectfault !7
  %add43 = fadd double %fi21, %fi44, !llfi_index !449
  %fi45 = call double @injectFault4(i64 428, double %add43, i32 14, i32 0, i32 1, i32 0, ptr @fadd_namestr), !llfi_injectfault !7
  %mul44 = fmul double %fi45, 1.250000e-01, !llfi_index !450
  %fi46 = call double @injectFault4(i64 429, double %mul44, i32 18, i32 0, i32 1, i32 0, ptr @fmul_namestr), !llfi_injectfault !7
  %sub45 = fsub double %fi6, %fi, !llfi_index !451
  %fi47 = call double @injectFault4(i64 430, double %sub45, i32 16, i32 0, i32 1, i32 0, ptr @fsub_namestr), !llfi_injectfault !7
  %sub46 = fsub double %fi5, %fi3, !llfi_index !452
  %fi48 = call double @injectFault4(i64 431, double %sub46, i32 16, i32 0, i32 1, i32 0, ptr @fsub_namestr), !llfi_injectfault !7
  %add47 = fadd double %fi48, %fi47, !llfi_index !453
  %fi49 = call double @injectFault4(i64 432, double %add47, i32 14, i32 0, i32 1, i32 0, ptr @fadd_namestr), !llfi_injectfault !7
  %sub48 = fsub double %fi7, %fi1, !llfi_index !454
  %fi50 = call double @injectFault4(i64 433, double %sub48, i32 16, i32 0, i32 1, i32 0, ptr @fsub_namestr), !llfi_injectfault !7
  %sub49 = fsub double %fi49, %fi50, !llfi_index !455
  %fi51 = call double @injectFault4(i64 434, double %sub49, i32 16, i32 0, i32 1, i32 0, ptr @fsub_namestr), !llfi_injectfault !7
  %sub50 = fsub double %fi4, %fi2, !llfi_index !456
  %fi52 = call double @injectFault4(i64 435, double %sub50, i32 16, i32 0, i32 1, i32 0, ptr @fsub_namestr), !llfi_injectfault !7
  %sub51 = fsub double %fi51, %fi52, !llfi_index !457
  %fi53 = call double @injectFault4(i64 436, double %sub51, i32 16, i32 0, i32 1, i32 0, ptr @fsub_namestr), !llfi_injectfault !7
  %mul52 = fmul double %fi53, 1.250000e-01, !llfi_index !458
  %fi55 = call double @injectFault4(i64 437, double %mul52, i32 18, i32 0, i32 1, i32 0, ptr @fmul_namestr), !llfi_injectfault !7
  %sub55 = fsub double %fi47, %fi48, !llfi_index !459
  %fi56 = call double @injectFault4(i64 438, double %sub55, i32 16, i32 0, i32 1, i32 0, ptr @fsub_namestr), !llfi_injectfault !7
  %add57 = fadd double %fi56, %fi50, !llfi_index !460
  %fi57 = call double @injectFault4(i64 439, double %add57, i32 14, i32 0, i32 1, i32 0, ptr @fadd_namestr), !llfi_injectfault !7
  %sub59 = fsub double %fi57, %fi52, !llfi_index !461
  %fi58 = call double @injectFault4(i64 440, double %sub59, i32 16, i32 0, i32 1, i32 0, ptr @fsub_namestr), !llfi_injectfault !7
  %mul60 = fmul double %fi58, 1.250000e-01, !llfi_index !462
  %fi59 = call double @injectFault4(i64 441, double %mul60, i32 18, i32 0, i32 1, i32 0, ptr @fmul_namestr), !llfi_injectfault !7
  %add65 = fadd double %fi49, %fi50, !llfi_index !463
  %fi60 = call double @injectFault4(i64 442, double %add65, i32 14, i32 0, i32 1, i32 0, ptr @fadd_namestr), !llfi_injectfault !7
  %add67 = fadd double %fi52, %fi60, !llfi_index !464
  %fi61 = call double @injectFault4(i64 443, double %add67, i32 14, i32 0, i32 1, i32 0, ptr @fadd_namestr), !llfi_injectfault !7
  %mul68 = fmul double %fi61, 1.250000e-01, !llfi_index !465
  %fi62 = call double @injectFault4(i64 444, double %mul68, i32 18, i32 0, i32 1, i32 0, ptr @fmul_namestr), !llfi_injectfault !7
  %sub69 = fsub double %fi14, %fi8, !llfi_index !466
  %fi63 = call double @injectFault4(i64 445, double %sub69, i32 16, i32 0, i32 1, i32 0, ptr @fsub_namestr), !llfi_injectfault !7
  %sub70 = fsub double %fi13, %fi11, !llfi_index !467
  %fi64 = call double @injectFault4(i64 446, double %sub70, i32 16, i32 0, i32 1, i32 0, ptr @fsub_namestr), !llfi_injectfault !7
  %add71 = fadd double %fi64, %fi63, !llfi_index !468
  %fi65 = call double @injectFault4(i64 447, double %add71, i32 14, i32 0, i32 1, i32 0, ptr @fadd_namestr), !llfi_injectfault !7
  %sub72 = fsub double %fi15, %fi9, !llfi_index !469
  %fi66 = call double @injectFault4(i64 448, double %sub72, i32 16, i32 0, i32 1, i32 0, ptr @fsub_namestr), !llfi_injectfault !7
  %sub73 = fsub double %fi65, %fi66, !llfi_index !470
  %fi67 = call double @injectFault4(i64 449, double %sub73, i32 16, i32 0, i32 1, i32 0, ptr @fsub_namestr), !llfi_injectfault !7
  %sub74 = fsub double %fi32, %fi10, !llfi_index !471
  %fi68 = call double @injectFault4(i64 450, double %sub74, i32 16, i32 0, i32 1, i32 0, ptr @fsub_namestr), !llfi_injectfault !7
  %sub75 = fsub double %fi67, %fi68, !llfi_index !472
  %fi69 = call double @injectFault4(i64 451, double %sub75, i32 16, i32 0, i32 1, i32 0, ptr @fsub_namestr), !llfi_injectfault !7
  %mul76 = fmul double %fi69, 1.250000e-01, !llfi_index !473
  %fi70 = call double @injectFault4(i64 452, double %mul76, i32 18, i32 0, i32 1, i32 0, ptr @fmul_namestr), !llfi_injectfault !7
  %sub79 = fsub double %fi63, %fi64, !llfi_index !474
  %fi71 = call double @injectFault4(i64 453, double %sub79, i32 16, i32 0, i32 1, i32 0, ptr @fsub_namestr), !llfi_injectfault !7
  %add81 = fadd double %fi71, %fi66, !llfi_index !475
  %fi72 = call double @injectFault4(i64 454, double %add81, i32 14, i32 0, i32 1, i32 0, ptr @fadd_namestr), !llfi_injectfault !7
  %sub83 = fsub double %fi72, %fi68, !llfi_index !476
  %fi73 = call double @injectFault4(i64 455, double %sub83, i32 16, i32 0, i32 1, i32 0, ptr @fsub_namestr), !llfi_injectfault !7
  %mul84 = fmul double %fi73, 1.250000e-01, !llfi_index !477
  %fi74 = call double @injectFault4(i64 456, double %mul84, i32 18, i32 0, i32 1, i32 0, ptr @fmul_namestr), !llfi_injectfault !7
  %add89 = fadd double %fi65, %fi66, !llfi_index !478
  %fi75 = call double @injectFault4(i64 457, double %add89, i32 14, i32 0, i32 1, i32 0, ptr @fadd_namestr), !llfi_injectfault !7
  %add91 = fadd double %fi68, %fi75, !llfi_index !479
  %fi76 = call double @injectFault4(i64 458, double %add91, i32 14, i32 0, i32 1, i32 0, ptr @fadd_namestr), !llfi_injectfault !7
  %mul92 = fmul double %fi76, 1.250000e-01, !llfi_index !480
  %fi77 = call double @injectFault4(i64 459, double %mul92, i32 18, i32 0, i32 1, i32 0, ptr @fmul_namestr), !llfi_injectfault !7
  %24 = fneg double %fi74, !llfi_index !481
  %fi78 = call double @injectFault4(i64 460, double %24, i32 12, i32 0, i32 1, i32 0, ptr @fneg_namestr), !llfi_injectfault !7
  %neg = fmul double %fi62, %fi78, !llfi_index !482
  %fi79 = call double @injectFault4(i64 461, double %neg, i32 18, i32 0, i32 1, i32 0, ptr @fmul_namestr), !llfi_injectfault !7
  %25 = call double @llvm.fmuladd.f64(double %fi59, double %fi77, double %fi79), !llfi_index !483
  %26 = fneg double %fi55, !llfi_index !484
  %fi80 = call double @injectFault4(i64 463, double %26, i32 12, i32 0, i32 1, i32 0, ptr @fneg_namestr), !llfi_injectfault !7
  %fneg = fmul double %fi77, %fi80, !llfi_index !485
  %fi81 = call double @injectFault4(i64 464, double %fneg, i32 18, i32 0, i32 1, i32 0, ptr @fmul_namestr), !llfi_injectfault !7
  %27 = call double @llvm.fmuladd.f64(double %fi70, double %fi62, double %fi81), !llfi_index !486
  %28 = fneg double %fi70, !llfi_index !487
  %fi82 = call double @injectFault4(i64 466, double %28, i32 12, i32 0, i32 1, i32 0, ptr @fneg_namestr), !llfi_injectfault !7
  %neg99 = fmul double %fi59, %fi82, !llfi_index !488
  %fi83 = call double @injectFault4(i64 467, double %neg99, i32 18, i32 0, i32 1, i32 0, ptr @fmul_namestr), !llfi_injectfault !7
  %29 = call double @llvm.fmuladd.f64(double %fi55, double %fi74, double %fi83), !llfi_index !489
  %30 = fneg double %fi43, !llfi_index !490
  %fi84 = call double @injectFault4(i64 469, double %30, i32 12, i32 0, i32 1, i32 0, ptr @fneg_namestr), !llfi_injectfault !7
  %fneg101 = fmul double %fi77, %fi84, !llfi_index !491
  %fi85 = call double @injectFault4(i64 470, double %fneg101, i32 18, i32 0, i32 1, i32 0, ptr @fmul_namestr), !llfi_injectfault !7
  %31 = call double @llvm.fmuladd.f64(double %fi74, double %fi46, double %fi85), !llfi_index !492
  %neg105 = fmul double %fi46, %fi82, !llfi_index !493
  %fi86 = call double @injectFault4(i64 472, double %neg105, i32 18, i32 0, i32 1, i32 0, ptr @fmul_namestr), !llfi_injectfault !7
  %32 = call double @llvm.fmuladd.f64(double %fi23, double %fi77, double %fi86), !llfi_index !494
  %33 = fneg double %fi23, !llfi_index !495
  %fi87 = call double @injectFault4(i64 474, double %33, i32 12, i32 0, i32 1, i32 0, ptr @fneg_namestr), !llfi_injectfault !7
  %fneg107 = fmul double %fi74, %fi87, !llfi_index !496
  %fi88 = call double @injectFault4(i64 475, double %fneg107, i32 18, i32 0, i32 1, i32 0, ptr @fmul_namestr), !llfi_injectfault !7
  %34 = call double @llvm.fmuladd.f64(double %fi70, double %fi43, double %fi88), !llfi_index !497
  %35 = fneg double %fi59, !llfi_index !498
  %fi89 = call double @injectFault4(i64 477, double %35, i32 12, i32 0, i32 1, i32 0, ptr @fneg_namestr), !llfi_injectfault !7
  %neg111 = fmul double %fi46, %fi89, !llfi_index !499
  %fi90 = call double @injectFault4(i64 478, double %neg111, i32 18, i32 0, i32 1, i32 0, ptr @fmul_namestr), !llfi_injectfault !7
  %36 = call double @llvm.fmuladd.f64(double %fi43, double %fi62, double %fi90), !llfi_index !500
  %fneg113 = fmul double %fi62, %fi87, !llfi_index !501
  %fi91 = call double @injectFault4(i64 480, double %fneg113, i32 18, i32 0, i32 1, i32 0, ptr @fmul_namestr), !llfi_injectfault !7
  %37 = call double @llvm.fmuladd.f64(double %fi55, double %fi46, double %fi91), !llfi_index !502
  %neg117 = fmul double %fi43, %fi80, !llfi_index !503
  %fi92 = call double @injectFault4(i64 482, double %neg117, i32 18, i32 0, i32 1, i32 0, ptr @fmul_namestr), !llfi_injectfault !7
  %38 = call double @llvm.fmuladd.f64(double %fi23, double %fi59, double %fi92), !llfi_index !504
  %fneg118 = fneg double %25, !llfi_index !505
  %fi93 = call double @injectFault4(i64 484, double %fneg118, i32 12, i32 0, i32 1, i32 0, ptr @fneg_namestr), !llfi_injectfault !7
  %sub119 = fsub double %fi93, %27, !llfi_index !506
  %fi94 = call double @injectFault4(i64 485, double %sub119, i32 16, i32 0, i32 1, i32 0, ptr @fsub_namestr), !llfi_injectfault !7
  %sub120 = fsub double %fi94, %29, !llfi_index !507
  %fi95 = call double @injectFault4(i64 486, double %sub120, i32 16, i32 0, i32 1, i32 0, ptr @fsub_namestr), !llfi_injectfault !7
  store double %fi95, ptr %b, align 8, !tbaa !302, !llfi_index !508
  %sub123 = fsub double %25, %27, !llfi_index !509
  %fi96 = call double @injectFault4(i64 488, double %sub123, i32 16, i32 0, i32 1, i32 0, ptr @fsub_namestr), !llfi_injectfault !7
  %sub124 = fsub double %fi96, %29, !llfi_index !510
  %fi97 = call double @injectFault4(i64 489, double %sub124, i32 16, i32 0, i32 1, i32 0, ptr @fsub_namestr), !llfi_injectfault !7
  %arrayidx126 = getelementptr inbounds [8 x double], ptr %b, i64 0, i64 1, !llfi_index !511
  store double %fi97, ptr %arrayidx126, align 8, !tbaa !302, !llfi_index !512
  %add127 = fadd double %25, %27, !llfi_index !513
  %fi98 = call double @injectFault4(i64 492, double %add127, i32 14, i32 0, i32 1, i32 0, ptr @fadd_namestr), !llfi_injectfault !7
  %sub128 = fsub double %fi98, %29, !llfi_index !514
  %fi99 = call double @injectFault4(i64 493, double %sub128, i32 16, i32 0, i32 1, i32 0, ptr @fsub_namestr), !llfi_injectfault !7
  %arrayidx130 = getelementptr inbounds [8 x double], ptr %b, i64 0, i64 2, !llfi_index !515
  store double %fi99, ptr %arrayidx130, align 8, !tbaa !302, !llfi_index !516
  %add132 = fsub double %27, %25, !llfi_index !517
  %fi100 = call double @injectFault4(i64 496, double %add132, i32 16, i32 0, i32 1, i32 0, ptr @fsub_namestr), !llfi_injectfault !7
  %sub133 = fsub double %fi100, %29, !llfi_index !518
  %fi101 = call double @injectFault4(i64 497, double %sub133, i32 16, i32 0, i32 1, i32 0, ptr @fsub_namestr), !llfi_injectfault !7
  %arrayidx135 = getelementptr inbounds [8 x double], ptr %b, i64 0, i64 3, !llfi_index !519
  store double %fi101, ptr %arrayidx135, align 8, !tbaa !302, !llfi_index !520
  %fneg138 = fneg double %fi99, !llfi_index !521
  %fi12 = call double @injectFault4(i64 500, double %fneg138, i32 12, i32 0, i32 1, i32 0, ptr @fneg_namestr), !llfi_injectfault !7
  %arrayidx140 = getelementptr inbounds [8 x double], ptr %b, i64 0, i64 4, !llfi_index !522
  store double %fi12, ptr %arrayidx140, align 8, !tbaa !302, !llfi_index !523
  %fneg143 = fneg double %fi101, !llfi_index !524
  %fi102 = call double @injectFault4(i64 503, double %fneg143, i32 12, i32 0, i32 1, i32 0, ptr @fneg_namestr), !llfi_injectfault !7
  %arrayidx145 = getelementptr inbounds [8 x double], ptr %b, i64 0, i64 5, !llfi_index !525
  store double %fi102, ptr %arrayidx145, align 8, !tbaa !302, !llfi_index !526
  %fneg148 = fneg double %fi95, !llfi_index !527
  %fi54 = call double @injectFault4(i64 506, double %fneg148, i32 12, i32 0, i32 1, i32 0, ptr @fneg_namestr), !llfi_injectfault !7
  %arrayidx150 = getelementptr inbounds [8 x double], ptr %b, i64 0, i64 6, !llfi_index !528
  store double %fi54, ptr %arrayidx150, align 8, !tbaa !302, !llfi_index !529
  %fneg153 = fneg double %fi97, !llfi_index !530
  %fi103 = call double @injectFault4(i64 509, double %fneg153, i32 12, i32 0, i32 1, i32 0, ptr @fneg_namestr), !llfi_injectfault !7
  %arrayidx155 = getelementptr inbounds [8 x double], ptr %b, i64 0, i64 7, !llfi_index !531
  store double %fi103, ptr %arrayidx155, align 8, !tbaa !302, !llfi_index !532
  %fneg156 = fneg double %31, !llfi_index !533
  %fi104 = call double @injectFault4(i64 512, double %fneg156, i32 12, i32 0, i32 1, i32 0, ptr @fneg_namestr), !llfi_injectfault !7
  %sub157 = fsub double %fi104, %32, !llfi_index !534
  %fi105 = call double @injectFault4(i64 513, double %sub157, i32 16, i32 0, i32 1, i32 0, ptr @fsub_namestr), !llfi_injectfault !7
  %sub158 = fsub double %fi105, %34, !llfi_index !535
  %fi106 = call double @injectFault4(i64 514, double %sub158, i32 16, i32 0, i32 1, i32 0, ptr @fsub_namestr), !llfi_injectfault !7
  %arrayidx159 = getelementptr inbounds [8 x double], ptr %b, i64 1, !llfi_index !536
  store double %fi106, ptr %arrayidx159, align 8, !tbaa !302, !llfi_index !537
  %sub161 = fsub double %31, %32, !llfi_index !538
  %fi107 = call double @injectFault4(i64 517, double %sub161, i32 16, i32 0, i32 1, i32 0, ptr @fsub_namestr), !llfi_injectfault !7
  %sub162 = fsub double %fi107, %34, !llfi_index !539
  %fi108 = call double @injectFault4(i64 518, double %sub162, i32 16, i32 0, i32 1, i32 0, ptr @fsub_namestr), !llfi_injectfault !7
  %arrayidx164 = getelementptr inbounds [8 x double], ptr %b, i64 1, i64 1, !llfi_index !540
  store double %fi108, ptr %arrayidx164, align 8, !tbaa !302, !llfi_index !541
  %add165 = fadd double %31, %32, !llfi_index !542
  %fi109 = call double @injectFault4(i64 521, double %add165, i32 14, i32 0, i32 1, i32 0, ptr @fadd_namestr), !llfi_injectfault !7
  %sub166 = fsub double %fi109, %34, !llfi_index !543
  %fi110 = call double @injectFault4(i64 522, double %sub166, i32 16, i32 0, i32 1, i32 0, ptr @fsub_namestr), !llfi_injectfault !7
  %arrayidx168 = getelementptr inbounds [8 x double], ptr %b, i64 1, i64 2, !llfi_index !544
  store double %fi110, ptr %arrayidx168, align 8, !tbaa !302, !llfi_index !545
  %add170 = fsub double %32, %31, !llfi_index !546
  %fi111 = call double @injectFault4(i64 525, double %add170, i32 16, i32 0, i32 1, i32 0, ptr @fsub_namestr), !llfi_injectfault !7
  %sub171 = fsub double %fi111, %34, !llfi_index !547
  %fi112 = call double @injectFault4(i64 526, double %sub171, i32 16, i32 0, i32 1, i32 0, ptr @fsub_namestr), !llfi_injectfault !7
  %arrayidx173 = getelementptr inbounds [8 x double], ptr %b, i64 1, i64 3, !llfi_index !548
  store double %fi112, ptr %arrayidx173, align 8, !tbaa !302, !llfi_index !549
  %fneg176 = fneg double %fi110, !llfi_index !550
  %fi25 = call double @injectFault4(i64 529, double %fneg176, i32 12, i32 0, i32 1, i32 0, ptr @fneg_namestr), !llfi_injectfault !7
  %arrayidx178 = getelementptr inbounds [8 x double], ptr %b, i64 1, i64 4, !llfi_index !551
  store double %fi25, ptr %arrayidx178, align 8, !tbaa !302, !llfi_index !552
  %fneg181 = fneg double %fi112, !llfi_index !553
  %fi26 = call double @injectFault4(i64 532, double %fneg181, i32 12, i32 0, i32 1, i32 0, ptr @fneg_namestr), !llfi_injectfault !7
  %arrayidx183 = getelementptr inbounds [8 x double], ptr %b, i64 1, i64 5, !llfi_index !554
  store double %fi26, ptr %arrayidx183, align 8, !tbaa !302, !llfi_index !555
  %fneg186 = fneg double %fi106, !llfi_index !556
  %fi27 = call double @injectFault4(i64 535, double %fneg186, i32 12, i32 0, i32 1, i32 0, ptr @fneg_namestr), !llfi_injectfault !7
  %arrayidx188 = getelementptr inbounds [8 x double], ptr %b, i64 1, i64 6, !llfi_index !557
  store double %fi27, ptr %arrayidx188, align 8, !tbaa !302, !llfi_index !558
  %fneg191 = fneg double %fi108, !llfi_index !559
  %fi28 = call double @injectFault4(i64 538, double %fneg191, i32 12, i32 0, i32 1, i32 0, ptr @fneg_namestr), !llfi_injectfault !7
  %arrayidx193 = getelementptr inbounds [8 x double], ptr %b, i64 1, i64 7, !llfi_index !560
  store double %fi28, ptr %arrayidx193, align 8, !tbaa !302, !llfi_index !561
  %fneg194 = fneg double %36, !llfi_index !562
  %fi29 = call double @injectFault4(i64 541, double %fneg194, i32 12, i32 0, i32 1, i32 0, ptr @fneg_namestr), !llfi_injectfault !7
  %sub195 = fsub double %fi29, %37, !llfi_index !563
  %fi30 = call double @injectFault4(i64 542, double %sub195, i32 16, i32 0, i32 1, i32 0, ptr @fsub_namestr), !llfi_injectfault !7
  %sub196 = fsub double %fi30, %38, !llfi_index !564
  %fi31 = call double @injectFault4(i64 543, double %sub196, i32 16, i32 0, i32 1, i32 0, ptr @fsub_namestr), !llfi_injectfault !7
  %arrayidx197 = getelementptr inbounds [8 x double], ptr %b, i64 2, !llfi_index !565
  store double %fi31, ptr %arrayidx197, align 8, !tbaa !302, !llfi_index !566
  %sub199 = fsub double %36, %37, !llfi_index !567
  %fi113 = call double @injectFault4(i64 546, double %sub199, i32 16, i32 0, i32 1, i32 0, ptr @fsub_namestr), !llfi_injectfault !7
  %sub200 = fsub double %fi113, %38, !llfi_index !568
  %fi114 = call double @injectFault4(i64 547, double %sub200, i32 16, i32 0, i32 1, i32 0, ptr @fsub_namestr), !llfi_injectfault !7
  %arrayidx202 = getelementptr inbounds [8 x double], ptr %b, i64 2, i64 1, !llfi_index !569
  store double %fi114, ptr %arrayidx202, align 8, !tbaa !302, !llfi_index !570
  %add203 = fadd double %36, %37, !llfi_index !571
  %fi115 = call double @injectFault4(i64 550, double %add203, i32 14, i32 0, i32 1, i32 0, ptr @fadd_namestr), !llfi_injectfault !7
  %sub204 = fsub double %fi115, %38, !llfi_index !572
  %fi116 = call double @injectFault4(i64 551, double %sub204, i32 16, i32 0, i32 1, i32 0, ptr @fsub_namestr), !llfi_injectfault !7
  %arrayidx206 = getelementptr inbounds [8 x double], ptr %b, i64 2, i64 2, !llfi_index !573
  store double %fi116, ptr %arrayidx206, align 8, !tbaa !302, !llfi_index !574
  %add208 = fsub double %37, %36, !llfi_index !575
  %fi117 = call double @injectFault4(i64 554, double %add208, i32 16, i32 0, i32 1, i32 0, ptr @fsub_namestr), !llfi_injectfault !7
  %sub209 = fsub double %fi117, %38, !llfi_index !576
  %fi118 = call double @injectFault4(i64 555, double %sub209, i32 16, i32 0, i32 1, i32 0, ptr @fsub_namestr), !llfi_injectfault !7
  %arrayidx211 = getelementptr inbounds [8 x double], ptr %b, i64 2, i64 3, !llfi_index !577
  store double %fi118, ptr %arrayidx211, align 8, !tbaa !302, !llfi_index !578
  %fneg214 = fneg double %fi116, !llfi_index !579
  %fi119 = call double @injectFault4(i64 558, double %fneg214, i32 12, i32 0, i32 1, i32 0, ptr @fneg_namestr), !llfi_injectfault !7
  %arrayidx216 = getelementptr inbounds [8 x double], ptr %b, i64 2, i64 4, !llfi_index !580
  store double %fi119, ptr %arrayidx216, align 8, !tbaa !302, !llfi_index !581
  %fneg219 = fneg double %fi118, !llfi_index !582
  %fi120 = call double @injectFault4(i64 561, double %fneg219, i32 12, i32 0, i32 1, i32 0, ptr @fneg_namestr), !llfi_injectfault !7
  %arrayidx221 = getelementptr inbounds [8 x double], ptr %b, i64 2, i64 5, !llfi_index !583
  store double %fi120, ptr %arrayidx221, align 8, !tbaa !302, !llfi_index !584
  %fneg224 = fneg double %fi31, !llfi_index !585
  %fi121 = call double @injectFault4(i64 564, double %fneg224, i32 12, i32 0, i32 1, i32 0, ptr @fneg_namestr), !llfi_injectfault !7
  %arrayidx226 = getelementptr inbounds [8 x double], ptr %b, i64 2, i64 6, !llfi_index !586
  store double %fi121, ptr %arrayidx226, align 8, !tbaa !302, !llfi_index !587
  %fneg229 = fneg double %fi114, !llfi_index !588
  %fi122 = call double @injectFault4(i64 567, double %fneg229, i32 12, i32 0, i32 1, i32 0, ptr @fneg_namestr), !llfi_injectfault !7
  %arrayidx231 = getelementptr inbounds [8 x double], ptr %b, i64 2, i64 7, !llfi_index !589
  store double %fi122, ptr %arrayidx231, align 8, !tbaa !302, !llfi_index !590
  %mul233 = fmul double %fi59, %32, !llfi_index !591
  %fi123 = call double @injectFault4(i64 570, double %mul233, i32 18, i32 0, i32 1, i32 0, ptr @fmul_namestr), !llfi_injectfault !7
  %39 = call double @llvm.fmuladd.f64(double %fi43, double %27, double %fi123), !llfi_index !592
  %40 = call double @llvm.fmuladd.f64(double %fi74, double %37, double %39), !llfi_index !593
  %mul235 = fmul double %40, 8.000000e+00, !llfi_index !594
  %fi124 = call double @injectFault4(i64 573, double %mul235, i32 18, i32 0, i32 1, i32 0, ptr @fmul_namestr), !llfi_injectfault !7
  store double %fi124, ptr %volume, align 8, !tbaa !302, !llfi_index !595
  ret void, !llfi_index !596
}

; Function Attrs: nocallback nofree nosync nounwind readnone speculatable willreturn
declare double @llvm.fmuladd.f64(double, double, double) #8

; Function Attrs: argmemonly mustprogress nofree noinline nosync nounwind willreturn uwtable
define dso_local void @_Z17SumElemFaceNormalPdS_S_S_S_S_S_S_S_S_S_S_dddddddddddd(ptr nocapture noundef %normalX0, ptr nocapture noundef %normalY0, ptr nocapture noundef %normalZ0, ptr nocapture noundef %normalX1, ptr nocapture noundef %normalY1, ptr nocapture noundef %normalZ1, ptr nocapture noundef %normalX2, ptr nocapture noundef %normalY2, ptr nocapture noundef %normalZ2, ptr nocapture noundef %normalX3, ptr nocapture noundef %normalY3, ptr nocapture noundef %normalZ3, double noundef %x0, double noundef %y0, double noundef %z0, double noundef %x1, double noundef %y1, double noundef %z1, double noundef %x2, double noundef %y2, double noundef %z2, double noundef %x3, double noundef %y3, double noundef %z3) local_unnamed_addr #7 {
entry:
  %add = fadd double %x2, %x3, !llfi_index !597
  %fi2 = call double @injectFault4(i64 576, double %add, i32 14, i32 0, i32 1, i32 0, ptr @fadd_namestr), !llfi_injectfault !7
  %sub = fsub double %fi2, %x1, !llfi_index !598
  %fi3 = call double @injectFault4(i64 577, double %sub, i32 16, i32 0, i32 1, i32 0, ptr @fsub_namestr), !llfi_injectfault !7
  %sub1 = fsub double %fi3, %x0, !llfi_index !599
  %fi4 = call double @injectFault4(i64 578, double %sub1, i32 16, i32 0, i32 1, i32 0, ptr @fsub_namestr), !llfi_injectfault !7
  %mul = fmul double %fi4, 5.000000e-01, !llfi_index !600
  %fi5 = call double @injectFault4(i64 579, double %mul, i32 18, i32 0, i32 1, i32 0, ptr @fmul_namestr), !llfi_injectfault !7
  %add2 = fadd double %y2, %y3, !llfi_index !601
  %fi6 = call double @injectFault4(i64 580, double %add2, i32 14, i32 0, i32 1, i32 0, ptr @fadd_namestr), !llfi_injectfault !7
  %sub3 = fsub double %fi6, %y1, !llfi_index !602
  %fi7 = call double @injectFault4(i64 581, double %sub3, i32 16, i32 0, i32 1, i32 0, ptr @fsub_namestr), !llfi_injectfault !7
  %sub4 = fsub double %fi7, %y0, !llfi_index !603
  %fi8 = call double @injectFault4(i64 582, double %sub4, i32 16, i32 0, i32 1, i32 0, ptr @fsub_namestr), !llfi_injectfault !7
  %mul5 = fmul double %fi8, 5.000000e-01, !llfi_index !604
  %fi9 = call double @injectFault4(i64 583, double %mul5, i32 18, i32 0, i32 1, i32 0, ptr @fmul_namestr), !llfi_injectfault !7
  %add6 = fadd double %z2, %z3, !llfi_index !605
  %fi10 = call double @injectFault4(i64 584, double %add6, i32 14, i32 0, i32 1, i32 0, ptr @fadd_namestr), !llfi_injectfault !7
  %sub7 = fsub double %fi10, %z1, !llfi_index !606
  %fi11 = call double @injectFault4(i64 585, double %sub7, i32 16, i32 0, i32 1, i32 0, ptr @fsub_namestr), !llfi_injectfault !7
  %sub8 = fsub double %fi11, %z0, !llfi_index !607
  %fi12 = call double @injectFault4(i64 586, double %sub8, i32 16, i32 0, i32 1, i32 0, ptr @fsub_namestr), !llfi_injectfault !7
  %mul9 = fmul double %fi12, 5.000000e-01, !llfi_index !608
  %fi13 = call double @injectFault4(i64 587, double %mul9, i32 18, i32 0, i32 1, i32 0, ptr @fmul_namestr), !llfi_injectfault !7
  %add10 = fadd double %x1, %x2, !llfi_index !609
  %fi14 = call double @injectFault4(i64 588, double %add10, i32 14, i32 0, i32 1, i32 0, ptr @fadd_namestr), !llfi_injectfault !7
  %sub11 = fsub double %fi14, %x3, !llfi_index !610
  %fi15 = call double @injectFault4(i64 589, double %sub11, i32 16, i32 0, i32 1, i32 0, ptr @fsub_namestr), !llfi_injectfault !7
  %sub12 = fsub double %fi15, %x0, !llfi_index !611
  %fi16 = call double @injectFault4(i64 590, double %sub12, i32 16, i32 0, i32 1, i32 0, ptr @fsub_namestr), !llfi_injectfault !7
  %mul13 = fmul double %fi16, 5.000000e-01, !llfi_index !612
  %fi17 = call double @injectFault4(i64 591, double %mul13, i32 18, i32 0, i32 1, i32 0, ptr @fmul_namestr), !llfi_injectfault !7
  %add14 = fadd double %y1, %y2, !llfi_index !613
  %fi18 = call double @injectFault4(i64 592, double %add14, i32 14, i32 0, i32 1, i32 0, ptr @fadd_namestr), !llfi_injectfault !7
  %sub15 = fsub double %fi18, %y3, !llfi_index !614
  %fi19 = call double @injectFault4(i64 593, double %sub15, i32 16, i32 0, i32 1, i32 0, ptr @fsub_namestr), !llfi_injectfault !7
  %sub16 = fsub double %fi19, %y0, !llfi_index !615
  %fi20 = call double @injectFault4(i64 594, double %sub16, i32 16, i32 0, i32 1, i32 0, ptr @fsub_namestr), !llfi_injectfault !7
  %mul17 = fmul double %fi20, 5.000000e-01, !llfi_index !616
  %fi21 = call double @injectFault4(i64 595, double %mul17, i32 18, i32 0, i32 1, i32 0, ptr @fmul_namestr), !llfi_injectfault !7
  %add18 = fadd double %z1, %z2, !llfi_index !617
  %fi22 = call double @injectFault4(i64 596, double %add18, i32 14, i32 0, i32 1, i32 0, ptr @fadd_namestr), !llfi_injectfault !7
  %sub19 = fsub double %fi22, %z3, !llfi_index !618
  %fi23 = call double @injectFault4(i64 597, double %sub19, i32 16, i32 0, i32 1, i32 0, ptr @fsub_namestr), !llfi_injectfault !7
  %sub20 = fsub double %fi23, %z0, !llfi_index !619
  %fi24 = call double @injectFault4(i64 598, double %sub20, i32 16, i32 0, i32 1, i32 0, ptr @fsub_namestr), !llfi_injectfault !7
  %mul21 = fmul double %fi24, 5.000000e-01, !llfi_index !620
  %fi25 = call double @injectFault4(i64 599, double %mul21, i32 18, i32 0, i32 1, i32 0, ptr @fmul_namestr), !llfi_injectfault !7
  %0 = fneg double %fi13, !llfi_index !621
  %fi26 = call double @injectFault4(i64 600, double %0, i32 12, i32 0, i32 1, i32 0, ptr @fneg_namestr), !llfi_injectfault !7
  %neg = fmul double %fi21, %fi26, !llfi_index !622
  %fi27 = call double @injectFault4(i64 601, double %neg, i32 18, i32 0, i32 1, i32 0, ptr @fmul_namestr), !llfi_injectfault !7
  %1 = call double @llvm.fmuladd.f64(double %fi9, double %fi25, double %fi27), !llfi_index !623
  %mul24 = fmul double %1, 2.500000e-01, !llfi_index !624
  %fi28 = call double @injectFault4(i64 603, double %mul24, i32 18, i32 0, i32 1, i32 0, ptr @fmul_namestr), !llfi_injectfault !7
  %2 = fneg double %fi5, !llfi_index !625
  %fi29 = call double @injectFault4(i64 604, double %2, i32 12, i32 0, i32 1, i32 0, ptr @fneg_namestr), !llfi_injectfault !7
  %neg27 = fmul double %fi25, %fi29, !llfi_index !626
  %fi30 = call double @injectFault4(i64 605, double %neg27, i32 18, i32 0, i32 1, i32 0, ptr @fmul_namestr), !llfi_injectfault !7
  %3 = call double @llvm.fmuladd.f64(double %fi13, double %fi17, double %fi30), !llfi_index !627
  %mul28 = fmul double %3, 2.500000e-01, !llfi_index !628
  %fi31 = call double @injectFault4(i64 607, double %mul28, i32 18, i32 0, i32 1, i32 0, ptr @fmul_namestr), !llfi_injectfault !7
  %4 = fneg double %fi9, !llfi_index !629
  %fi32 = call double @injectFault4(i64 608, double %4, i32 12, i32 0, i32 1, i32 0, ptr @fneg_namestr), !llfi_injectfault !7
  %neg31 = fmul double %fi17, %fi32, !llfi_index !630
  %fi33 = call double @injectFault4(i64 609, double %neg31, i32 18, i32 0, i32 1, i32 0, ptr @fmul_namestr), !llfi_injectfault !7
  %5 = call double @llvm.fmuladd.f64(double %fi5, double %fi21, double %fi33), !llfi_index !631
  %mul32 = fmul double %5, 2.500000e-01, !llfi_index !632
  %fi34 = call double @injectFault4(i64 611, double %mul32, i32 18, i32 0, i32 1, i32 0, ptr @fmul_namestr), !llfi_injectfault !7
  %6 = load double, ptr %normalX0, align 8, !tbaa !302, !llfi_index !633
  %fi35 = call double @injectFault4(i64 612, double %6, i32 32, i32 0, i32 1, i32 0, ptr @load_namestr), !llfi_injectfault !7
  %add33 = fadd double %fi28, %fi35, !llfi_index !634
  %fi36 = call double @injectFault4(i64 613, double %add33, i32 14, i32 0, i32 1, i32 0, ptr @fadd_namestr), !llfi_injectfault !7
  store double %fi36, ptr %normalX0, align 8, !tbaa !302, !llfi_index !635
  %7 = load double, ptr %normalX1, align 8, !tbaa !302, !llfi_index !636
  %fi37 = call double @injectFault4(i64 615, double %7, i32 32, i32 0, i32 1, i32 0, ptr @load_namestr), !llfi_injectfault !7
  %add34 = fadd double %fi28, %fi37, !llfi_index !637
  %fi38 = call double @injectFault4(i64 616, double %add34, i32 14, i32 0, i32 1, i32 0, ptr @fadd_namestr), !llfi_injectfault !7
  store double %fi38, ptr %normalX1, align 8, !tbaa !302, !llfi_index !638
  %8 = load double, ptr %normalX2, align 8, !tbaa !302, !llfi_index !639
  %fi39 = call double @injectFault4(i64 618, double %8, i32 32, i32 0, i32 1, i32 0, ptr @load_namestr), !llfi_injectfault !7
  %add35 = fadd double %fi28, %fi39, !llfi_index !640
  %fi41 = call double @injectFault4(i64 619, double %add35, i32 14, i32 0, i32 1, i32 0, ptr @fadd_namestr), !llfi_injectfault !7
  store double %fi41, ptr %normalX2, align 8, !tbaa !302, !llfi_index !641
  %9 = load double, ptr %normalX3, align 8, !tbaa !302, !llfi_index !642
  %fi42 = call double @injectFault4(i64 621, double %9, i32 32, i32 0, i32 1, i32 0, ptr @load_namestr), !llfi_injectfault !7
  %add36 = fadd double %fi28, %fi42, !llfi_index !643
  %fi43 = call double @injectFault4(i64 622, double %add36, i32 14, i32 0, i32 1, i32 0, ptr @fadd_namestr), !llfi_injectfault !7
  store double %fi43, ptr %normalX3, align 8, !tbaa !302, !llfi_index !644
  %10 = load double, ptr %normalY0, align 8, !tbaa !302, !llfi_index !645
  %fi44 = call double @injectFault4(i64 624, double %10, i32 32, i32 0, i32 1, i32 0, ptr @load_namestr), !llfi_injectfault !7
  %add37 = fadd double %fi31, %fi44, !llfi_index !646
  %fi45 = call double @injectFault4(i64 625, double %add37, i32 14, i32 0, i32 1, i32 0, ptr @fadd_namestr), !llfi_injectfault !7
  store double %fi45, ptr %normalY0, align 8, !tbaa !302, !llfi_index !647
  %11 = load double, ptr %normalY1, align 8, !tbaa !302, !llfi_index !648
  %fi46 = call double @injectFault4(i64 627, double %11, i32 32, i32 0, i32 1, i32 0, ptr @load_namestr), !llfi_injectfault !7
  %add38 = fadd double %fi31, %fi46, !llfi_index !649
  %fi47 = call double @injectFault4(i64 628, double %add38, i32 14, i32 0, i32 1, i32 0, ptr @fadd_namestr), !llfi_injectfault !7
  store double %fi47, ptr %normalY1, align 8, !tbaa !302, !llfi_index !650
  %12 = load double, ptr %normalY2, align 8, !tbaa !302, !llfi_index !651
  %fi48 = call double @injectFault4(i64 630, double %12, i32 32, i32 0, i32 1, i32 0, ptr @load_namestr), !llfi_injectfault !7
  %add39 = fadd double %fi31, %fi48, !llfi_index !652
  %fi49 = call double @injectFault4(i64 631, double %add39, i32 14, i32 0, i32 1, i32 0, ptr @fadd_namestr), !llfi_injectfault !7
  store double %fi49, ptr %normalY2, align 8, !tbaa !302, !llfi_index !653
  %13 = load double, ptr %normalY3, align 8, !tbaa !302, !llfi_index !654
  %fi50 = call double @injectFault4(i64 633, double %13, i32 32, i32 0, i32 1, i32 0, ptr @load_namestr), !llfi_injectfault !7
  %add40 = fadd double %fi31, %fi50, !llfi_index !655
  %fi51 = call double @injectFault4(i64 634, double %add40, i32 14, i32 0, i32 1, i32 0, ptr @fadd_namestr), !llfi_injectfault !7
  store double %fi51, ptr %normalY3, align 8, !tbaa !302, !llfi_index !656
  %14 = load double, ptr %normalZ0, align 8, !tbaa !302, !llfi_index !657
  %fi52 = call double @injectFault4(i64 636, double %14, i32 32, i32 0, i32 1, i32 0, ptr @load_namestr), !llfi_injectfault !7
  %add41 = fadd double %fi34, %fi52, !llfi_index !658
  %fi53 = call double @injectFault4(i64 637, double %add41, i32 14, i32 0, i32 1, i32 0, ptr @fadd_namestr), !llfi_injectfault !7
  store double %fi53, ptr %normalZ0, align 8, !tbaa !302, !llfi_index !659
  %15 = load double, ptr %normalZ1, align 8, !tbaa !302, !llfi_index !660
  %fi54 = call double @injectFault4(i64 639, double %15, i32 32, i32 0, i32 1, i32 0, ptr @load_namestr), !llfi_injectfault !7
  %add42 = fadd double %fi34, %fi54, !llfi_index !661
  %fi55 = call double @injectFault4(i64 640, double %add42, i32 14, i32 0, i32 1, i32 0, ptr @fadd_namestr), !llfi_injectfault !7
  store double %fi55, ptr %normalZ1, align 8, !tbaa !302, !llfi_index !662
  %16 = load double, ptr %normalZ2, align 8, !tbaa !302, !llfi_index !663
  %fi56 = call double @injectFault4(i64 642, double %16, i32 32, i32 0, i32 1, i32 0, ptr @load_namestr), !llfi_injectfault !7
  %add43 = fadd double %fi34, %fi56, !llfi_index !664
  %fi40 = call double @injectFault4(i64 643, double %add43, i32 14, i32 0, i32 1, i32 0, ptr @fadd_namestr), !llfi_injectfault !7
  store double %fi40, ptr %normalZ2, align 8, !tbaa !302, !llfi_index !665
  %17 = load double, ptr %normalZ3, align 8, !tbaa !302, !llfi_index !666
  %fi = call double @injectFault4(i64 645, double %17, i32 32, i32 0, i32 1, i32 0, ptr @load_namestr), !llfi_injectfault !7
  %add44 = fadd double %fi34, %fi, !llfi_index !667
  %fi1 = call double @injectFault4(i64 646, double %add44, i32 14, i32 0, i32 1, i32 0, ptr @fadd_namestr), !llfi_injectfault !7
  store double %fi1, ptr %normalZ3, align 8, !tbaa !302, !llfi_index !668
  ret void, !llfi_index !669
}

; Function Attrs: argmemonly mustprogress nofree noinline nosync nounwind uwtable
define dso_local void @_Z19CalcElemNodeNormalsPdS_S_PKdS1_S1_(ptr nocapture noundef %pfx, ptr nocapture noundef %pfy, ptr nocapture noundef %pfz, ptr nocapture noundef readonly %x, ptr nocapture noundef readonly %y, ptr nocapture noundef readonly %z) local_unnamed_addr #9 {
entry:
  br label %for.body, !llfi_index !670

for.cond.cleanup:                                 ; preds = %for.body
  %arrayidx8 = getelementptr inbounds double, ptr %pfx, i64 1, !llfi_index !671
  %arrayidx9 = getelementptr inbounds double, ptr %pfy, i64 1, !llfi_index !672
  %arrayidx10 = getelementptr inbounds double, ptr %pfz, i64 1, !llfi_index !673
  %arrayidx11 = getelementptr inbounds double, ptr %pfx, i64 2, !llfi_index !674
  %arrayidx12 = getelementptr inbounds double, ptr %pfy, i64 2, !llfi_index !675
  %arrayidx13 = getelementptr inbounds double, ptr %pfz, i64 2, !llfi_index !676
  %arrayidx14 = getelementptr inbounds double, ptr %pfx, i64 3, !llfi_index !677
  %arrayidx15 = getelementptr inbounds double, ptr %pfy, i64 3, !llfi_index !678
  %arrayidx16 = getelementptr inbounds double, ptr %pfz, i64 3, !llfi_index !679
  %0 = load double, ptr %x, align 8, !tbaa !302, !llfi_index !680
  %fi7 = call double @injectFault4(i64 659, double %0, i32 32, i32 0, i32 1, i32 0, ptr @load_namestr), !llfi_injectfault !7
  %1 = load double, ptr %y, align 8, !tbaa !302, !llfi_index !681
  %fi8 = call double @injectFault4(i64 660, double %1, i32 32, i32 0, i32 1, i32 0, ptr @load_namestr), !llfi_injectfault !7
  %2 = load double, ptr %z, align 8, !tbaa !302, !llfi_index !682
  %fi9 = call double @injectFault4(i64 661, double %2, i32 32, i32 0, i32 1, i32 0, ptr @load_namestr), !llfi_injectfault !7
  %arrayidx20 = getelementptr inbounds double, ptr %x, i64 1, !llfi_index !683
  %3 = load double, ptr %arrayidx20, align 8, !tbaa !302, !llfi_index !684
  %fi3 = call double @injectFault4(i64 663, double %3, i32 32, i32 0, i32 1, i32 0, ptr @load_namestr), !llfi_injectfault !7
  %arrayidx21 = getelementptr inbounds double, ptr %y, i64 1, !llfi_index !685
  %4 = load double, ptr %arrayidx21, align 8, !tbaa !302, !llfi_index !686
  %fi4 = call double @injectFault4(i64 665, double %4, i32 32, i32 0, i32 1, i32 0, ptr @load_namestr), !llfi_injectfault !7
  %arrayidx22 = getelementptr inbounds double, ptr %z, i64 1, !llfi_index !687
  %5 = load double, ptr %arrayidx22, align 8, !tbaa !302, !llfi_index !688
  %fi5 = call double @injectFault4(i64 667, double %5, i32 32, i32 0, i32 1, i32 0, ptr @load_namestr), !llfi_injectfault !7
  %arrayidx23 = getelementptr inbounds double, ptr %x, i64 2, !llfi_index !689
  %6 = load double, ptr %arrayidx23, align 8, !tbaa !302, !llfi_index !690
  %fi10 = call double @injectFault4(i64 669, double %6, i32 32, i32 0, i32 1, i32 0, ptr @load_namestr), !llfi_injectfault !7
  %arrayidx24 = getelementptr inbounds double, ptr %y, i64 2, !llfi_index !691
  %7 = load double, ptr %arrayidx24, align 8, !tbaa !302, !llfi_index !692
  %fi11 = call double @injectFault4(i64 671, double %7, i32 32, i32 0, i32 1, i32 0, ptr @load_namestr), !llfi_injectfault !7
  %arrayidx25 = getelementptr inbounds double, ptr %z, i64 2, !llfi_index !693
  %8 = load double, ptr %arrayidx25, align 8, !tbaa !302, !llfi_index !694
  %fi12 = call double @injectFault4(i64 673, double %8, i32 32, i32 0, i32 1, i32 0, ptr @load_namestr), !llfi_injectfault !7
  %arrayidx26 = getelementptr inbounds double, ptr %x, i64 3, !llfi_index !695
  %9 = load double, ptr %arrayidx26, align 8, !tbaa !302, !llfi_index !696
  %fi6 = call double @injectFault4(i64 675, double %9, i32 32, i32 0, i32 1, i32 0, ptr @load_namestr), !llfi_injectfault !7
  %arrayidx27 = getelementptr inbounds double, ptr %y, i64 3, !llfi_index !697
  %10 = load double, ptr %arrayidx27, align 8, !tbaa !302, !llfi_index !698
  %fi13 = call double @injectFault4(i64 677, double %10, i32 32, i32 0, i32 1, i32 0, ptr @load_namestr), !llfi_injectfault !7
  %arrayidx28 = getelementptr inbounds double, ptr %z, i64 3, !llfi_index !699
  %11 = load double, ptr %arrayidx28, align 8, !tbaa !302, !llfi_index !700
  %fi14 = call double @injectFault4(i64 679, double %11, i32 32, i32 0, i32 1, i32 0, ptr @load_namestr), !llfi_injectfault !7
  call void @_Z17SumElemFaceNormalPdS_S_S_S_S_S_S_S_S_S_S_dddddddddddd(ptr noundef %pfx, ptr noundef %pfy, ptr noundef %pfz, ptr noundef nonnull %arrayidx8, ptr noundef nonnull %arrayidx9, ptr noundef nonnull %arrayidx10, ptr noundef nonnull %arrayidx11, ptr noundef nonnull %arrayidx12, ptr noundef nonnull %arrayidx13, ptr noundef nonnull %arrayidx14, ptr noundef nonnull %arrayidx15, ptr noundef nonnull %arrayidx16, double noundef %fi7, double noundef %fi8, double noundef %fi9, double noundef %fi3, double noundef %fi4, double noundef %fi5, double noundef %fi10, double noundef %fi11, double noundef %fi12, double noundef %fi6, double noundef %fi13, double noundef %fi14), !llfi_index !701
  %arrayidx32 = getelementptr inbounds double, ptr %pfx, i64 4, !llfi_index !702
  %arrayidx33 = getelementptr inbounds double, ptr %pfy, i64 4, !llfi_index !703
  %arrayidx34 = getelementptr inbounds double, ptr %pfz, i64 4, !llfi_index !704
  %arrayidx35 = getelementptr inbounds double, ptr %pfx, i64 5, !llfi_index !705
  %arrayidx36 = getelementptr inbounds double, ptr %pfy, i64 5, !llfi_index !706
  %arrayidx37 = getelementptr inbounds double, ptr %pfz, i64 5, !llfi_index !707
  %12 = load double, ptr %x, align 8, !tbaa !302, !llfi_index !708
  %fi15 = call double @injectFault4(i64 687, double %12, i32 32, i32 0, i32 1, i32 0, ptr @load_namestr), !llfi_injectfault !7
  %13 = load double, ptr %y, align 8, !tbaa !302, !llfi_index !709
  %fi16 = call double @injectFault4(i64 688, double %13, i32 32, i32 0, i32 1, i32 0, ptr @load_namestr), !llfi_injectfault !7
  %14 = load double, ptr %z, align 8, !tbaa !302, !llfi_index !710
  %fi17 = call double @injectFault4(i64 689, double %14, i32 32, i32 0, i32 1, i32 0, ptr @load_namestr), !llfi_injectfault !7
  %arrayidx44 = getelementptr inbounds double, ptr %x, i64 4, !llfi_index !711
  %15 = load double, ptr %arrayidx44, align 8, !tbaa !302, !llfi_index !712
  %fi18 = call double @injectFault4(i64 691, double %15, i32 32, i32 0, i32 1, i32 0, ptr @load_namestr), !llfi_injectfault !7
  %arrayidx45 = getelementptr inbounds double, ptr %y, i64 4, !llfi_index !713
  %16 = load double, ptr %arrayidx45, align 8, !tbaa !302, !llfi_index !714
  %fi19 = call double @injectFault4(i64 693, double %16, i32 32, i32 0, i32 1, i32 0, ptr @load_namestr), !llfi_injectfault !7
  %arrayidx46 = getelementptr inbounds double, ptr %z, i64 4, !llfi_index !715
  %17 = load double, ptr %arrayidx46, align 8, !tbaa !302, !llfi_index !716
  %fi20 = call double @injectFault4(i64 695, double %17, i32 32, i32 0, i32 1, i32 0, ptr @load_namestr), !llfi_injectfault !7
  %arrayidx47 = getelementptr inbounds double, ptr %x, i64 5, !llfi_index !717
  %18 = load double, ptr %arrayidx47, align 8, !tbaa !302, !llfi_index !718
  %fi21 = call double @injectFault4(i64 697, double %18, i32 32, i32 0, i32 1, i32 0, ptr @load_namestr), !llfi_injectfault !7
  %arrayidx48 = getelementptr inbounds double, ptr %y, i64 5, !llfi_index !719
  %19 = load double, ptr %arrayidx48, align 8, !tbaa !302, !llfi_index !720
  %fi22 = call double @injectFault4(i64 699, double %19, i32 32, i32 0, i32 1, i32 0, ptr @load_namestr), !llfi_injectfault !7
  %arrayidx49 = getelementptr inbounds double, ptr %z, i64 5, !llfi_index !721
  %20 = load double, ptr %arrayidx49, align 8, !tbaa !302, !llfi_index !722
  %fi23 = call double @injectFault4(i64 701, double %20, i32 32, i32 0, i32 1, i32 0, ptr @load_namestr), !llfi_injectfault !7
  %21 = load double, ptr %arrayidx20, align 8, !tbaa !302, !llfi_index !723
  %fi24 = call double @injectFault4(i64 702, double %21, i32 32, i32 0, i32 1, i32 0, ptr @load_namestr), !llfi_injectfault !7
  %22 = load double, ptr %arrayidx21, align 8, !tbaa !302, !llfi_index !724
  %fi25 = call double @injectFault4(i64 703, double %22, i32 32, i32 0, i32 1, i32 0, ptr @load_namestr), !llfi_injectfault !7
  %23 = load double, ptr %arrayidx22, align 8, !tbaa !302, !llfi_index !725
  %fi26 = call double @injectFault4(i64 704, double %23, i32 32, i32 0, i32 1, i32 0, ptr @load_namestr), !llfi_injectfault !7
  call void @_Z17SumElemFaceNormalPdS_S_S_S_S_S_S_S_S_S_S_dddddddddddd(ptr noundef %pfx, ptr noundef %pfy, ptr noundef %pfz, ptr noundef nonnull %arrayidx32, ptr noundef nonnull %arrayidx33, ptr noundef nonnull %arrayidx34, ptr noundef nonnull %arrayidx35, ptr noundef nonnull %arrayidx36, ptr noundef nonnull %arrayidx37, ptr noundef nonnull %arrayidx8, ptr noundef nonnull %arrayidx9, ptr noundef nonnull %arrayidx10, double noundef %fi15, double noundef %fi16, double noundef %fi17, double noundef %fi18, double noundef %fi19, double noundef %fi20, double noundef %fi21, double noundef %fi22, double noundef %fi23, double noundef %fi24, double noundef %fi25, double noundef %fi26), !llfi_index !726
  %arrayidx59 = getelementptr inbounds double, ptr %pfx, i64 6, !llfi_index !727
  %arrayidx60 = getelementptr inbounds double, ptr %pfy, i64 6, !llfi_index !728
  %arrayidx61 = getelementptr inbounds double, ptr %pfz, i64 6, !llfi_index !729
  %24 = load double, ptr %arrayidx20, align 8, !tbaa !302, !llfi_index !730
  %fi27 = call double @injectFault4(i64 709, double %24, i32 32, i32 0, i32 1, i32 0, ptr @load_namestr), !llfi_injectfault !7
  %25 = load double, ptr %arrayidx21, align 8, !tbaa !302, !llfi_index !731
  %fi28 = call double @injectFault4(i64 710, double %25, i32 32, i32 0, i32 1, i32 0, ptr @load_namestr), !llfi_injectfault !7
  %26 = load double, ptr %arrayidx22, align 8, !tbaa !302, !llfi_index !732
  %fi29 = call double @injectFault4(i64 711, double %26, i32 32, i32 0, i32 1, i32 0, ptr @load_namestr), !llfi_injectfault !7
  %27 = load double, ptr %arrayidx47, align 8, !tbaa !302, !llfi_index !733
  %fi30 = call double @injectFault4(i64 712, double %27, i32 32, i32 0, i32 1, i32 0, ptr @load_namestr), !llfi_injectfault !7
  %28 = load double, ptr %arrayidx48, align 8, !tbaa !302, !llfi_index !734
  %fi31 = call double @injectFault4(i64 713, double %28, i32 32, i32 0, i32 1, i32 0, ptr @load_namestr), !llfi_injectfault !7
  %29 = load double, ptr %arrayidx49, align 8, !tbaa !302, !llfi_index !735
  %fi32 = call double @injectFault4(i64 714, double %29, i32 32, i32 0, i32 1, i32 0, ptr @load_namestr), !llfi_injectfault !7
  %arrayidx71 = getelementptr inbounds double, ptr %x, i64 6, !llfi_index !736
  %30 = load double, ptr %arrayidx71, align 8, !tbaa !302, !llfi_index !737
  %fi33 = call double @injectFault4(i64 716, double %30, i32 32, i32 0, i32 1, i32 0, ptr @load_namestr), !llfi_injectfault !7
  %arrayidx72 = getelementptr inbounds double, ptr %y, i64 6, !llfi_index !738
  %31 = load double, ptr %arrayidx72, align 8, !tbaa !302, !llfi_index !739
  %fi34 = call double @injectFault4(i64 718, double %31, i32 32, i32 0, i32 1, i32 0, ptr @load_namestr), !llfi_injectfault !7
  %arrayidx73 = getelementptr inbounds double, ptr %z, i64 6, !llfi_index !740
  %32 = load double, ptr %arrayidx73, align 8, !tbaa !302, !llfi_index !741
  %fi35 = call double @injectFault4(i64 720, double %32, i32 32, i32 0, i32 1, i32 0, ptr @load_namestr), !llfi_injectfault !7
  %33 = load double, ptr %arrayidx23, align 8, !tbaa !302, !llfi_index !742
  %fi36 = call double @injectFault4(i64 721, double %33, i32 32, i32 0, i32 1, i32 0, ptr @load_namestr), !llfi_injectfault !7
  %34 = load double, ptr %arrayidx24, align 8, !tbaa !302, !llfi_index !743
  %fi37 = call double @injectFault4(i64 722, double %34, i32 32, i32 0, i32 1, i32 0, ptr @load_namestr), !llfi_injectfault !7
  %35 = load double, ptr %arrayidx25, align 8, !tbaa !302, !llfi_index !744
  %fi38 = call double @injectFault4(i64 723, double %35, i32 32, i32 0, i32 1, i32 0, ptr @load_namestr), !llfi_injectfault !7
  call void @_Z17SumElemFaceNormalPdS_S_S_S_S_S_S_S_S_S_S_dddddddddddd(ptr noundef nonnull %arrayidx8, ptr noundef nonnull %arrayidx9, ptr noundef nonnull %arrayidx10, ptr noundef nonnull %arrayidx35, ptr noundef nonnull %arrayidx36, ptr noundef nonnull %arrayidx37, ptr noundef nonnull %arrayidx59, ptr noundef nonnull %arrayidx60, ptr noundef nonnull %arrayidx61, ptr noundef nonnull %arrayidx11, ptr noundef nonnull %arrayidx12, ptr noundef nonnull %arrayidx13, double noundef %fi27, double noundef %fi28, double noundef %fi29, double noundef %fi30, double noundef %fi31, double noundef %fi32, double noundef %fi33, double noundef %fi34, double noundef %fi35, double noundef %fi36, double noundef %fi37, double noundef %fi38), !llfi_index !745
  %arrayidx83 = getelementptr inbounds double, ptr %pfx, i64 7, !llfi_index !746
  %arrayidx84 = getelementptr inbounds double, ptr %pfy, i64 7, !llfi_index !747
  %arrayidx85 = getelementptr inbounds double, ptr %pfz, i64 7, !llfi_index !748
  %36 = load double, ptr %arrayidx23, align 8, !tbaa !302, !llfi_index !749
  %fi39 = call double @injectFault4(i64 728, double %36, i32 32, i32 0, i32 1, i32 0, ptr @load_namestr), !llfi_injectfault !7
  %37 = load double, ptr %arrayidx24, align 8, !tbaa !302, !llfi_index !750
  %fi40 = call double @injectFault4(i64 729, double %37, i32 32, i32 0, i32 1, i32 0, ptr @load_namestr), !llfi_injectfault !7
  %38 = load double, ptr %arrayidx25, align 8, !tbaa !302, !llfi_index !751
  %fi41 = call double @injectFault4(i64 730, double %38, i32 32, i32 0, i32 1, i32 0, ptr @load_namestr), !llfi_injectfault !7
  %39 = load double, ptr %arrayidx71, align 8, !tbaa !302, !llfi_index !752
  %fi42 = call double @injectFault4(i64 731, double %39, i32 32, i32 0, i32 1, i32 0, ptr @load_namestr), !llfi_injectfault !7
  %40 = load double, ptr %arrayidx72, align 8, !tbaa !302, !llfi_index !753
  %fi43 = call double @injectFault4(i64 732, double %40, i32 32, i32 0, i32 1, i32 0, ptr @load_namestr), !llfi_injectfault !7
  %41 = load double, ptr %arrayidx73, align 8, !tbaa !302, !llfi_index !754
  %fi44 = call double @injectFault4(i64 733, double %41, i32 32, i32 0, i32 1, i32 0, ptr @load_namestr), !llfi_injectfault !7
  %arrayidx95 = getelementptr inbounds double, ptr %x, i64 7, !llfi_index !755
  %42 = load double, ptr %arrayidx95, align 8, !tbaa !302, !llfi_index !756
  %fi45 = call double @injectFault4(i64 735, double %42, i32 32, i32 0, i32 1, i32 0, ptr @load_namestr), !llfi_injectfault !7
  %arrayidx96 = getelementptr inbounds double, ptr %y, i64 7, !llfi_index !757
  %43 = load double, ptr %arrayidx96, align 8, !tbaa !302, !llfi_index !758
  %fi46 = call double @injectFault4(i64 737, double %43, i32 32, i32 0, i32 1, i32 0, ptr @load_namestr), !llfi_injectfault !7
  %arrayidx97 = getelementptr inbounds double, ptr %z, i64 7, !llfi_index !759
  %44 = load double, ptr %arrayidx97, align 8, !tbaa !302, !llfi_index !760
  %fi47 = call double @injectFault4(i64 739, double %44, i32 32, i32 0, i32 1, i32 0, ptr @load_namestr), !llfi_injectfault !7
  %45 = load double, ptr %arrayidx26, align 8, !tbaa !302, !llfi_index !761
  %fi48 = call double @injectFault4(i64 740, double %45, i32 32, i32 0, i32 1, i32 0, ptr @load_namestr), !llfi_injectfault !7
  %46 = load double, ptr %arrayidx27, align 8, !tbaa !302, !llfi_index !762
  %fi49 = call double @injectFault4(i64 741, double %46, i32 32, i32 0, i32 1, i32 0, ptr @load_namestr), !llfi_injectfault !7
  %47 = load double, ptr %arrayidx28, align 8, !tbaa !302, !llfi_index !763
  %fi50 = call double @injectFault4(i64 742, double %47, i32 32, i32 0, i32 1, i32 0, ptr @load_namestr), !llfi_injectfault !7
  call void @_Z17SumElemFaceNormalPdS_S_S_S_S_S_S_S_S_S_S_dddddddddddd(ptr noundef nonnull %arrayidx11, ptr noundef nonnull %arrayidx12, ptr noundef nonnull %arrayidx13, ptr noundef nonnull %arrayidx59, ptr noundef nonnull %arrayidx60, ptr noundef nonnull %arrayidx61, ptr noundef nonnull %arrayidx83, ptr noundef nonnull %arrayidx84, ptr noundef nonnull %arrayidx85, ptr noundef nonnull %arrayidx14, ptr noundef nonnull %arrayidx15, ptr noundef nonnull %arrayidx16, double noundef %fi39, double noundef %fi40, double noundef %fi41, double noundef %fi42, double noundef %fi43, double noundef %fi44, double noundef %fi45, double noundef %fi46, double noundef %fi47, double noundef %fi48, double noundef %fi49, double noundef %fi50), !llfi_index !764
  %48 = load double, ptr %arrayidx26, align 8, !tbaa !302, !llfi_index !765
  %fi51 = call double @injectFault4(i64 744, double %48, i32 32, i32 0, i32 1, i32 0, ptr @load_namestr), !llfi_injectfault !7
  %49 = load double, ptr %arrayidx27, align 8, !tbaa !302, !llfi_index !766
  %fi52 = call double @injectFault4(i64 745, double %49, i32 32, i32 0, i32 1, i32 0, ptr @load_namestr), !llfi_injectfault !7
  %50 = load double, ptr %arrayidx28, align 8, !tbaa !302, !llfi_index !767
  %fi53 = call double @injectFault4(i64 746, double %50, i32 32, i32 0, i32 1, i32 0, ptr @load_namestr), !llfi_injectfault !7
  %51 = load double, ptr %arrayidx95, align 8, !tbaa !302, !llfi_index !768
  %fi54 = call double @injectFault4(i64 747, double %51, i32 32, i32 0, i32 1, i32 0, ptr @load_namestr), !llfi_injectfault !7
  %52 = load double, ptr %arrayidx96, align 8, !tbaa !302, !llfi_index !769
  %fi55 = call double @injectFault4(i64 748, double %52, i32 32, i32 0, i32 1, i32 0, ptr @load_namestr), !llfi_injectfault !7
  %53 = load double, ptr %arrayidx97, align 8, !tbaa !302, !llfi_index !770
  %fi56 = call double @injectFault4(i64 749, double %53, i32 32, i32 0, i32 1, i32 0, ptr @load_namestr), !llfi_injectfault !7
  %54 = load double, ptr %arrayidx44, align 8, !tbaa !302, !llfi_index !771
  %fi57 = call double @injectFault4(i64 750, double %54, i32 32, i32 0, i32 1, i32 0, ptr @load_namestr), !llfi_injectfault !7
  %55 = load double, ptr %arrayidx45, align 8, !tbaa !302, !llfi_index !772
  %fi58 = call double @injectFault4(i64 751, double %55, i32 32, i32 0, i32 1, i32 0, ptr @load_namestr), !llfi_injectfault !7
  %56 = load double, ptr %arrayidx46, align 8, !tbaa !302, !llfi_index !773
  %fi59 = call double @injectFault4(i64 752, double %56, i32 32, i32 0, i32 1, i32 0, ptr @load_namestr), !llfi_injectfault !7
  %57 = load double, ptr %x, align 8, !tbaa !302, !llfi_index !774
  %fi60 = call double @injectFault4(i64 753, double %57, i32 32, i32 0, i32 1, i32 0, ptr @load_namestr), !llfi_injectfault !7
  %58 = load double, ptr %y, align 8, !tbaa !302, !llfi_index !775
  %fi61 = call double @injectFault4(i64 754, double %58, i32 32, i32 0, i32 1, i32 0, ptr @load_namestr), !llfi_injectfault !7
  %59 = load double, ptr %z, align 8, !tbaa !302, !llfi_index !776
  %fi62 = call double @injectFault4(i64 755, double %59, i32 32, i32 0, i32 1, i32 0, ptr @load_namestr), !llfi_injectfault !7
  call void @_Z17SumElemFaceNormalPdS_S_S_S_S_S_S_S_S_S_S_dddddddddddd(ptr noundef nonnull %arrayidx14, ptr noundef nonnull %arrayidx15, ptr noundef nonnull %arrayidx16, ptr noundef nonnull %arrayidx83, ptr noundef nonnull %arrayidx84, ptr noundef nonnull %arrayidx85, ptr noundef nonnull %arrayidx32, ptr noundef nonnull %arrayidx33, ptr noundef nonnull %arrayidx34, ptr noundef %pfx, ptr noundef %pfy, ptr noundef %pfz, double noundef %fi51, double noundef %fi52, double noundef %fi53, double noundef %fi54, double noundef %fi55, double noundef %fi56, double noundef %fi57, double noundef %fi58, double noundef %fi59, double noundef %fi60, double noundef %fi61, double noundef %fi62), !llfi_index !777
  %60 = load double, ptr %arrayidx44, align 8, !tbaa !302, !llfi_index !778
  %fi63 = call double @injectFault4(i64 757, double %60, i32 32, i32 0, i32 1, i32 0, ptr @load_namestr), !llfi_injectfault !7
  %61 = load double, ptr %arrayidx45, align 8, !tbaa !302, !llfi_index !779
  %fi64 = call double @injectFault4(i64 758, double %61, i32 32, i32 0, i32 1, i32 0, ptr @load_namestr), !llfi_injectfault !7
  %62 = load double, ptr %arrayidx46, align 8, !tbaa !302, !llfi_index !780
  %fi65 = call double @injectFault4(i64 759, double %62, i32 32, i32 0, i32 1, i32 0, ptr @load_namestr), !llfi_injectfault !7
  %63 = load double, ptr %arrayidx95, align 8, !tbaa !302, !llfi_index !781
  %fi66 = call double @injectFault4(i64 760, double %63, i32 32, i32 0, i32 1, i32 0, ptr @load_namestr), !llfi_injectfault !7
  %64 = load double, ptr %arrayidx96, align 8, !tbaa !302, !llfi_index !782
  %fi67 = call double @injectFault4(i64 761, double %64, i32 32, i32 0, i32 1, i32 0, ptr @load_namestr), !llfi_injectfault !7
  %65 = load double, ptr %arrayidx97, align 8, !tbaa !302, !llfi_index !783
  %fi68 = call double @injectFault4(i64 762, double %65, i32 32, i32 0, i32 1, i32 0, ptr @load_namestr), !llfi_injectfault !7
  %66 = load double, ptr %arrayidx71, align 8, !tbaa !302, !llfi_index !784
  %fi69 = call double @injectFault4(i64 763, double %66, i32 32, i32 0, i32 1, i32 0, ptr @load_namestr), !llfi_injectfault !7
  %67 = load double, ptr %arrayidx72, align 8, !tbaa !302, !llfi_index !785
  %fi70 = call double @injectFault4(i64 764, double %67, i32 32, i32 0, i32 1, i32 0, ptr @load_namestr), !llfi_injectfault !7
  %68 = load double, ptr %arrayidx73, align 8, !tbaa !302, !llfi_index !786
  %fi71 = call double @injectFault4(i64 765, double %68, i32 32, i32 0, i32 1, i32 0, ptr @load_namestr), !llfi_injectfault !7
  %69 = load double, ptr %arrayidx47, align 8, !tbaa !302, !llfi_index !787
  %fi72 = call double @injectFault4(i64 766, double %69, i32 32, i32 0, i32 1, i32 0, ptr @load_namestr), !llfi_injectfault !7
  %70 = load double, ptr %arrayidx48, align 8, !tbaa !302, !llfi_index !788
  %fi73 = call double @injectFault4(i64 767, double %70, i32 32, i32 0, i32 1, i32 0, ptr @load_namestr), !llfi_injectfault !7
  %71 = load double, ptr %arrayidx49, align 8, !tbaa !302, !llfi_index !789
  %fi74 = call double @injectFault4(i64 768, double %71, i32 32, i32 0, i32 1, i32 0, ptr @load_namestr), !llfi_injectfault !7
  call void @_Z17SumElemFaceNormalPdS_S_S_S_S_S_S_S_S_S_S_dddddddddddd(ptr noundef nonnull %arrayidx32, ptr noundef nonnull %arrayidx33, ptr noundef nonnull %arrayidx34, ptr noundef nonnull %arrayidx83, ptr noundef nonnull %arrayidx84, ptr noundef nonnull %arrayidx85, ptr noundef nonnull %arrayidx59, ptr noundef nonnull %arrayidx60, ptr noundef nonnull %arrayidx61, ptr noundef nonnull %arrayidx35, ptr noundef nonnull %arrayidx36, ptr noundef nonnull %arrayidx37, double noundef %fi63, double noundef %fi64, double noundef %fi65, double noundef %fi66, double noundef %fi67, double noundef %fi68, double noundef %fi69, double noundef %fi70, double noundef %fi71, double noundef %fi72, double noundef %fi73, double noundef %fi74), !llfi_index !790
  ret void, !llfi_index !791

for.body:                                         ; preds = %for.body, %entry
  %indvars.iv = phi i64 [ 0, %entry ], [ %fi1, %for.body ], !llfi_index !792
  %fi = call i64 @injectFault3(i64 771, i64 %indvars.iv, i32 55, i32 0, i32 1, i32 0, ptr @phi_namestr), !llfi_injectfault !7
  %arrayidx = getelementptr inbounds double, ptr %pfx, i64 %fi, !llfi_index !793
  store double 0.000000e+00, ptr %arrayidx, align 8, !tbaa !302, !llfi_index !794
  %arrayidx2 = getelementptr inbounds double, ptr %pfy, i64 %fi, !llfi_index !795
  store double 0.000000e+00, ptr %arrayidx2, align 8, !tbaa !302, !llfi_index !796
  %arrayidx4 = getelementptr inbounds double, ptr %pfz, i64 %fi, !llfi_index !797
  store double 0.000000e+00, ptr %arrayidx4, align 8, !tbaa !302, !llfi_index !798
  %indvars.iv.next = add nuw nsw i64 %fi, 1, !llfi_index !799
  %fi1 = call i64 @injectFault3(i64 778, i64 %indvars.iv.next, i32 13, i32 0, i32 1, i32 0, ptr @add_namestr), !llfi_injectfault !7
  %exitcond.not = icmp eq i64 %fi1, 8, !llfi_index !800
  %fi2 = call i1 @injectFault1(i64 779, i1 %exitcond.not, i32 53, i32 0, i32 1, i32 0, ptr @icmp_namestr), !llfi_injectfault !7
  br i1 %fi2, label %for.cond.cleanup, label %for.body, !llvm.loop !801, !llfi_index !802
}

; Function Attrs: argmemonly mustprogress nofree noinline norecurse nosync nounwind willreturn uwtable
define dso_local void @_Z27SumElemStressesToNodeForcesPA8_KddddPdS2_S2_(ptr noundef readonly %B, double noundef %stress_xx, double noundef %stress_yy, double noundef %stress_zz, ptr nocapture noundef writeonly %fx, ptr nocapture noundef writeonly %fy, ptr nocapture noundef writeonly %fz) local_unnamed_addr #10 {
entry:
  %0 = load double, ptr %B, align 8, !tbaa !302, !llfi_index !803
  %fi = call double @injectFault4(i64 781, double %0, i32 32, i32 0, i32 1, i32 0, ptr @load_namestr), !llfi_injectfault !7
  %arrayidx3 = getelementptr inbounds [8 x double], ptr %B, i64 0, i64 1, !llfi_index !804
  %1 = load double, ptr %arrayidx3, align 8, !tbaa !302, !llfi_index !805
  %fi1 = call double @injectFault4(i64 783, double %1, i32 32, i32 0, i32 1, i32 0, ptr @load_namestr), !llfi_injectfault !7
  %arrayidx5 = getelementptr inbounds [8 x double], ptr %B, i64 0, i64 2, !llfi_index !806
  %2 = load double, ptr %arrayidx5, align 8, !tbaa !302, !llfi_index !807
  %fi2 = call double @injectFault4(i64 785, double %2, i32 32, i32 0, i32 1, i32 0, ptr @load_namestr), !llfi_injectfault !7
  %arrayidx7 = getelementptr inbounds [8 x double], ptr %B, i64 0, i64 3, !llfi_index !808
  %3 = load double, ptr %arrayidx7, align 8, !tbaa !302, !llfi_index !809
  %fi3 = call double @injectFault4(i64 787, double %3, i32 32, i32 0, i32 1, i32 0, ptr @load_namestr), !llfi_injectfault !7
  %arrayidx9 = getelementptr inbounds [8 x double], ptr %B, i64 0, i64 4, !llfi_index !810
  %4 = load double, ptr %arrayidx9, align 8, !tbaa !302, !llfi_index !811
  %fi4 = call double @injectFault4(i64 789, double %4, i32 32, i32 0, i32 1, i32 0, ptr @load_namestr), !llfi_injectfault !7
  %arrayidx11 = getelementptr inbounds [8 x double], ptr %B, i64 0, i64 5, !llfi_index !812
  %5 = load double, ptr %arrayidx11, align 8, !tbaa !302, !llfi_index !813
  %fi6 = call double @injectFault4(i64 791, double %5, i32 32, i32 0, i32 1, i32 0, ptr @load_namestr), !llfi_injectfault !7
  %arrayidx13 = getelementptr inbounds [8 x double], ptr %B, i64 0, i64 6, !llfi_index !814
  %6 = load double, ptr %arrayidx13, align 8, !tbaa !302, !llfi_index !815
  %fi7 = call double @injectFault4(i64 793, double %6, i32 32, i32 0, i32 1, i32 0, ptr @load_namestr), !llfi_injectfault !7
  %arrayidx15 = getelementptr inbounds [8 x double], ptr %B, i64 0, i64 7, !llfi_index !816
  %7 = load double, ptr %arrayidx15, align 8, !tbaa !302, !llfi_index !817
  %fi8 = call double @injectFault4(i64 795, double %7, i32 32, i32 0, i32 1, i32 0, ptr @load_namestr), !llfi_injectfault !7
  %arrayidx16 = getelementptr inbounds [8 x double], ptr %B, i64 1, !llfi_index !818
  %8 = load double, ptr %arrayidx16, align 8, !tbaa !302, !llfi_index !819
  %fi9 = call double @injectFault4(i64 797, double %8, i32 32, i32 0, i32 1, i32 0, ptr @load_namestr), !llfi_injectfault !7
  %arrayidx19 = getelementptr inbounds [8 x double], ptr %B, i64 1, i64 1, !llfi_index !820
  %9 = load double, ptr %arrayidx19, align 8, !tbaa !302, !llfi_index !821
  %fi10 = call double @injectFault4(i64 799, double %9, i32 32, i32 0, i32 1, i32 0, ptr @load_namestr), !llfi_injectfault !7
  %arrayidx21 = getelementptr inbounds [8 x double], ptr %B, i64 1, i64 2, !llfi_index !822
  %10 = load double, ptr %arrayidx21, align 8, !tbaa !302, !llfi_index !823
  %fi11 = call double @injectFault4(i64 801, double %10, i32 32, i32 0, i32 1, i32 0, ptr @load_namestr), !llfi_injectfault !7
  %arrayidx23 = getelementptr inbounds [8 x double], ptr %B, i64 1, i64 3, !llfi_index !824
  %11 = load double, ptr %arrayidx23, align 8, !tbaa !302, !llfi_index !825
  %fi12 = call double @injectFault4(i64 803, double %11, i32 32, i32 0, i32 1, i32 0, ptr @load_namestr), !llfi_injectfault !7
  %arrayidx25 = getelementptr inbounds [8 x double], ptr %B, i64 1, i64 4, !llfi_index !826
  %12 = load double, ptr %arrayidx25, align 8, !tbaa !302, !llfi_index !827
  %fi13 = call double @injectFault4(i64 805, double %12, i32 32, i32 0, i32 1, i32 0, ptr @load_namestr), !llfi_injectfault !7
  %arrayidx27 = getelementptr inbounds [8 x double], ptr %B, i64 1, i64 5, !llfi_index !828
  %13 = load double, ptr %arrayidx27, align 8, !tbaa !302, !llfi_index !829
  %fi14 = call double @injectFault4(i64 807, double %13, i32 32, i32 0, i32 1, i32 0, ptr @load_namestr), !llfi_injectfault !7
  %arrayidx29 = getelementptr inbounds [8 x double], ptr %B, i64 1, i64 6, !llfi_index !830
  %14 = load double, ptr %arrayidx29, align 8, !tbaa !302, !llfi_index !831
  %fi37 = call double @injectFault4(i64 809, double %14, i32 32, i32 0, i32 1, i32 0, ptr @load_namestr), !llfi_injectfault !7
  %arrayidx31 = getelementptr inbounds [8 x double], ptr %B, i64 1, i64 7, !llfi_index !832
  %15 = load double, ptr %arrayidx31, align 8, !tbaa !302, !llfi_index !833
  %fi38 = call double @injectFault4(i64 811, double %15, i32 32, i32 0, i32 1, i32 0, ptr @load_namestr), !llfi_injectfault !7
  %arrayidx32 = getelementptr inbounds [8 x double], ptr %B, i64 2, !llfi_index !834
  %16 = load double, ptr %arrayidx32, align 8, !tbaa !302, !llfi_index !835
  %fi39 = call double @injectFault4(i64 813, double %16, i32 32, i32 0, i32 1, i32 0, ptr @load_namestr), !llfi_injectfault !7
  %arrayidx35 = getelementptr inbounds [8 x double], ptr %B, i64 2, i64 1, !llfi_index !836
  %17 = load double, ptr %arrayidx35, align 8, !tbaa !302, !llfi_index !837
  %fi5 = call double @injectFault4(i64 815, double %17, i32 32, i32 0, i32 1, i32 0, ptr @load_namestr), !llfi_injectfault !7
  %arrayidx37 = getelementptr inbounds [8 x double], ptr %B, i64 2, i64 2, !llfi_index !838
  %18 = load double, ptr %arrayidx37, align 8, !tbaa !302, !llfi_index !839
  %fi40 = call double @injectFault4(i64 817, double %18, i32 32, i32 0, i32 1, i32 0, ptr @load_namestr), !llfi_injectfault !7
  %arrayidx39 = getelementptr inbounds [8 x double], ptr %B, i64 2, i64 3, !llfi_index !840
  %19 = load double, ptr %arrayidx39, align 8, !tbaa !302, !llfi_index !841
  %fi41 = call double @injectFault4(i64 819, double %19, i32 32, i32 0, i32 1, i32 0, ptr @load_namestr), !llfi_injectfault !7
  %arrayidx41 = getelementptr inbounds [8 x double], ptr %B, i64 2, i64 4, !llfi_index !842
  %20 = load double, ptr %arrayidx41, align 8, !tbaa !302, !llfi_index !843
  %fi22 = call double @injectFault4(i64 821, double %20, i32 32, i32 0, i32 1, i32 0, ptr @load_namestr), !llfi_injectfault !7
  %arrayidx43 = getelementptr inbounds [8 x double], ptr %B, i64 2, i64 5, !llfi_index !844
  %21 = load double, ptr %arrayidx43, align 8, !tbaa !302, !llfi_index !845
  %fi23 = call double @injectFault4(i64 823, double %21, i32 32, i32 0, i32 1, i32 0, ptr @load_namestr), !llfi_injectfault !7
  %arrayidx45 = getelementptr inbounds [8 x double], ptr %B, i64 2, i64 6, !llfi_index !846
  %22 = load double, ptr %arrayidx45, align 8, !tbaa !302, !llfi_index !847
  %fi24 = call double @injectFault4(i64 825, double %22, i32 32, i32 0, i32 1, i32 0, ptr @load_namestr), !llfi_injectfault !7
  %arrayidx47 = getelementptr inbounds [8 x double], ptr %B, i64 2, i64 7, !llfi_index !848
  %23 = load double, ptr %arrayidx47, align 8, !tbaa !302, !llfi_index !849
  %fi25 = call double @injectFault4(i64 827, double %23, i32 32, i32 0, i32 1, i32 0, ptr @load_namestr), !llfi_injectfault !7
  %24 = fneg double %fi, !llfi_index !850
  %fi15 = call double @injectFault4(i64 828, double %24, i32 12, i32 0, i32 1, i32 0, ptr @fneg_namestr), !llfi_injectfault !7
  %fneg = fmul double %fi15, %stress_xx, !llfi_index !851
  %fi16 = call double @injectFault4(i64 829, double %fneg, i32 18, i32 0, i32 1, i32 0, ptr @fmul_namestr), !llfi_injectfault !7
  store double %fi16, ptr %fx, align 8, !tbaa !302, !llfi_index !852
  %25 = fneg double %fi1, !llfi_index !853
  %fi17 = call double @injectFault4(i64 831, double %25, i32 12, i32 0, i32 1, i32 0, ptr @fneg_namestr), !llfi_injectfault !7
  %fneg50 = fmul double %fi17, %stress_xx, !llfi_index !854
  %fi18 = call double @injectFault4(i64 832, double %fneg50, i32 18, i32 0, i32 1, i32 0, ptr @fmul_namestr), !llfi_injectfault !7
  %arrayidx51 = getelementptr inbounds double, ptr %fx, i64 1, !llfi_index !855
  store double %fi18, ptr %arrayidx51, align 8, !tbaa !302, !llfi_index !856
  %26 = fneg double %fi2, !llfi_index !857
  %fi19 = call double @injectFault4(i64 835, double %26, i32 12, i32 0, i32 1, i32 0, ptr @fneg_namestr), !llfi_injectfault !7
  %fneg53 = fmul double %fi19, %stress_xx, !llfi_index !858
  %fi20 = call double @injectFault4(i64 836, double %fneg53, i32 18, i32 0, i32 1, i32 0, ptr @fmul_namestr), !llfi_injectfault !7
  %arrayidx54 = getelementptr inbounds double, ptr %fx, i64 2, !llfi_index !859
  store double %fi20, ptr %arrayidx54, align 8, !tbaa !302, !llfi_index !860
  %27 = fneg double %fi3, !llfi_index !861
  %fi21 = call double @injectFault4(i64 839, double %27, i32 12, i32 0, i32 1, i32 0, ptr @fneg_namestr), !llfi_injectfault !7
  %fneg56 = fmul double %fi21, %stress_xx, !llfi_index !862
  %fi26 = call double @injectFault4(i64 840, double %fneg56, i32 18, i32 0, i32 1, i32 0, ptr @fmul_namestr), !llfi_injectfault !7
  %arrayidx57 = getelementptr inbounds double, ptr %fx, i64 3, !llfi_index !863
  store double %fi26, ptr %arrayidx57, align 8, !tbaa !302, !llfi_index !864
  %28 = fneg double %fi4, !llfi_index !865
  %fi27 = call double @injectFault4(i64 843, double %28, i32 12, i32 0, i32 1, i32 0, ptr @fneg_namestr), !llfi_injectfault !7
  %fneg59 = fmul double %fi27, %stress_xx, !llfi_index !866
  %fi28 = call double @injectFault4(i64 844, double %fneg59, i32 18, i32 0, i32 1, i32 0, ptr @fmul_namestr), !llfi_injectfault !7
  %arrayidx60 = getelementptr inbounds double, ptr %fx, i64 4, !llfi_index !867
  store double %fi28, ptr %arrayidx60, align 8, !tbaa !302, !llfi_index !868
  %29 = fneg double %fi6, !llfi_index !869
  %fi29 = call double @injectFault4(i64 847, double %29, i32 12, i32 0, i32 1, i32 0, ptr @fneg_namestr), !llfi_injectfault !7
  %fneg62 = fmul double %fi29, %stress_xx, !llfi_index !870
  %fi30 = call double @injectFault4(i64 848, double %fneg62, i32 18, i32 0, i32 1, i32 0, ptr @fmul_namestr), !llfi_injectfault !7
  %arrayidx63 = getelementptr inbounds double, ptr %fx, i64 5, !llfi_index !871
  store double %fi30, ptr %arrayidx63, align 8, !tbaa !302, !llfi_index !872
  %30 = fneg double %fi7, !llfi_index !873
  %fi31 = call double @injectFault4(i64 851, double %30, i32 12, i32 0, i32 1, i32 0, ptr @fneg_namestr), !llfi_injectfault !7
  %fneg65 = fmul double %fi31, %stress_xx, !llfi_index !874
  %fi32 = call double @injectFault4(i64 852, double %fneg65, i32 18, i32 0, i32 1, i32 0, ptr @fmul_namestr), !llfi_injectfault !7
  %arrayidx66 = getelementptr inbounds double, ptr %fx, i64 6, !llfi_index !875
  store double %fi32, ptr %arrayidx66, align 8, !tbaa !302, !llfi_index !876
  %31 = fneg double %fi8, !llfi_index !877
  %fi33 = call double @injectFault4(i64 855, double %31, i32 12, i32 0, i32 1, i32 0, ptr @fneg_namestr), !llfi_injectfault !7
  %fneg68 = fmul double %fi33, %stress_xx, !llfi_index !878
  %fi34 = call double @injectFault4(i64 856, double %fneg68, i32 18, i32 0, i32 1, i32 0, ptr @fmul_namestr), !llfi_injectfault !7
  %arrayidx69 = getelementptr inbounds double, ptr %fx, i64 7, !llfi_index !879
  store double %fi34, ptr %arrayidx69, align 8, !tbaa !302, !llfi_index !880
  %32 = fneg double %fi9, !llfi_index !881
  %fi42 = call double @injectFault4(i64 859, double %32, i32 12, i32 0, i32 1, i32 0, ptr @fneg_namestr), !llfi_injectfault !7
  %fneg71 = fmul double %fi42, %stress_yy, !llfi_index !882
  %fi43 = call double @injectFault4(i64 860, double %fneg71, i32 18, i32 0, i32 1, i32 0, ptr @fmul_namestr), !llfi_injectfault !7
  store double %fi43, ptr %fy, align 8, !tbaa !302, !llfi_index !883
  %33 = fneg double %fi10, !llfi_index !884
  %fi44 = call double @injectFault4(i64 862, double %33, i32 12, i32 0, i32 1, i32 0, ptr @fneg_namestr), !llfi_injectfault !7
  %fneg74 = fmul double %fi44, %stress_yy, !llfi_index !885
  %fi45 = call double @injectFault4(i64 863, double %fneg74, i32 18, i32 0, i32 1, i32 0, ptr @fmul_namestr), !llfi_injectfault !7
  %arrayidx75 = getelementptr inbounds double, ptr %fy, i64 1, !llfi_index !886
  store double %fi45, ptr %arrayidx75, align 8, !tbaa !302, !llfi_index !887
  %34 = fneg double %fi11, !llfi_index !888
  %fi46 = call double @injectFault4(i64 866, double %34, i32 12, i32 0, i32 1, i32 0, ptr @fneg_namestr), !llfi_injectfault !7
  %fneg77 = fmul double %fi46, %stress_yy, !llfi_index !889
  %fi47 = call double @injectFault4(i64 867, double %fneg77, i32 18, i32 0, i32 1, i32 0, ptr @fmul_namestr), !llfi_injectfault !7
  %arrayidx78 = getelementptr inbounds double, ptr %fy, i64 2, !llfi_index !890
  store double %fi47, ptr %arrayidx78, align 8, !tbaa !302, !llfi_index !891
  %35 = fneg double %fi12, !llfi_index !892
  %fi48 = call double @injectFault4(i64 870, double %35, i32 12, i32 0, i32 1, i32 0, ptr @fneg_namestr), !llfi_injectfault !7
  %fneg80 = fmul double %fi48, %stress_yy, !llfi_index !893
  %fi49 = call double @injectFault4(i64 871, double %fneg80, i32 18, i32 0, i32 1, i32 0, ptr @fmul_namestr), !llfi_injectfault !7
  %arrayidx81 = getelementptr inbounds double, ptr %fy, i64 3, !llfi_index !894
  store double %fi49, ptr %arrayidx81, align 8, !tbaa !302, !llfi_index !895
  %36 = fneg double %fi13, !llfi_index !896
  %fi50 = call double @injectFault4(i64 874, double %36, i32 12, i32 0, i32 1, i32 0, ptr @fneg_namestr), !llfi_injectfault !7
  %fneg83 = fmul double %fi50, %stress_yy, !llfi_index !897
  %fi51 = call double @injectFault4(i64 875, double %fneg83, i32 18, i32 0, i32 1, i32 0, ptr @fmul_namestr), !llfi_injectfault !7
  %arrayidx84 = getelementptr inbounds double, ptr %fy, i64 4, !llfi_index !898
  store double %fi51, ptr %arrayidx84, align 8, !tbaa !302, !llfi_index !899
  %37 = fneg double %fi14, !llfi_index !900
  %fi52 = call double @injectFault4(i64 878, double %37, i32 12, i32 0, i32 1, i32 0, ptr @fneg_namestr), !llfi_injectfault !7
  %fneg86 = fmul double %fi52, %stress_yy, !llfi_index !901
  %fi53 = call double @injectFault4(i64 879, double %fneg86, i32 18, i32 0, i32 1, i32 0, ptr @fmul_namestr), !llfi_injectfault !7
  %arrayidx87 = getelementptr inbounds double, ptr %fy, i64 5, !llfi_index !902
  store double %fi53, ptr %arrayidx87, align 8, !tbaa !302, !llfi_index !903
  %38 = fneg double %fi37, !llfi_index !904
  %fi54 = call double @injectFault4(i64 882, double %38, i32 12, i32 0, i32 1, i32 0, ptr @fneg_namestr), !llfi_injectfault !7
  %fneg89 = fmul double %fi54, %stress_yy, !llfi_index !905
  %fi55 = call double @injectFault4(i64 883, double %fneg89, i32 18, i32 0, i32 1, i32 0, ptr @fmul_namestr), !llfi_injectfault !7
  %arrayidx90 = getelementptr inbounds double, ptr %fy, i64 6, !llfi_index !906
  store double %fi55, ptr %arrayidx90, align 8, !tbaa !302, !llfi_index !907
  %39 = fneg double %fi38, !llfi_index !908
  %fi56 = call double @injectFault4(i64 886, double %39, i32 12, i32 0, i32 1, i32 0, ptr @fneg_namestr), !llfi_injectfault !7
  %fneg92 = fmul double %fi56, %stress_yy, !llfi_index !909
  %fi57 = call double @injectFault4(i64 887, double %fneg92, i32 18, i32 0, i32 1, i32 0, ptr @fmul_namestr), !llfi_injectfault !7
  %arrayidx93 = getelementptr inbounds double, ptr %fy, i64 7, !llfi_index !910
  store double %fi57, ptr %arrayidx93, align 8, !tbaa !302, !llfi_index !911
  %40 = fneg double %fi39, !llfi_index !912
  %fi58 = call double @injectFault4(i64 890, double %40, i32 12, i32 0, i32 1, i32 0, ptr @fneg_namestr), !llfi_injectfault !7
  %fneg95 = fmul double %fi58, %stress_zz, !llfi_index !913
  %fi59 = call double @injectFault4(i64 891, double %fneg95, i32 18, i32 0, i32 1, i32 0, ptr @fmul_namestr), !llfi_injectfault !7
  store double %fi59, ptr %fz, align 8, !tbaa !302, !llfi_index !914
  %41 = fneg double %fi5, !llfi_index !915
  %fi60 = call double @injectFault4(i64 893, double %41, i32 12, i32 0, i32 1, i32 0, ptr @fneg_namestr), !llfi_injectfault !7
  %fneg98 = fmul double %fi60, %stress_zz, !llfi_index !916
  %fi61 = call double @injectFault4(i64 894, double %fneg98, i32 18, i32 0, i32 1, i32 0, ptr @fmul_namestr), !llfi_injectfault !7
  %arrayidx99 = getelementptr inbounds double, ptr %fz, i64 1, !llfi_index !917
  store double %fi61, ptr %arrayidx99, align 8, !tbaa !302, !llfi_index !918
  %42 = fneg double %fi40, !llfi_index !919
  %fi62 = call double @injectFault4(i64 897, double %42, i32 12, i32 0, i32 1, i32 0, ptr @fneg_namestr), !llfi_injectfault !7
  %fneg101 = fmul double %fi62, %stress_zz, !llfi_index !920
  %fi63 = call double @injectFault4(i64 898, double %fneg101, i32 18, i32 0, i32 1, i32 0, ptr @fmul_namestr), !llfi_injectfault !7
  %arrayidx102 = getelementptr inbounds double, ptr %fz, i64 2, !llfi_index !921
  store double %fi63, ptr %arrayidx102, align 8, !tbaa !302, !llfi_index !922
  %43 = fneg double %fi41, !llfi_index !923
  %fi35 = call double @injectFault4(i64 901, double %43, i32 12, i32 0, i32 1, i32 0, ptr @fneg_namestr), !llfi_injectfault !7
  %fneg104 = fmul double %fi35, %stress_zz, !llfi_index !924
  %fi36 = call double @injectFault4(i64 902, double %fneg104, i32 18, i32 0, i32 1, i32 0, ptr @fmul_namestr), !llfi_injectfault !7
  %arrayidx105 = getelementptr inbounds double, ptr %fz, i64 3, !llfi_index !925
  store double %fi36, ptr %arrayidx105, align 8, !tbaa !302, !llfi_index !926
  %44 = fneg double %fi22, !llfi_index !927
  %fi64 = call double @injectFault4(i64 905, double %44, i32 12, i32 0, i32 1, i32 0, ptr @fneg_namestr), !llfi_injectfault !7
  %fneg107 = fmul double %fi64, %stress_zz, !llfi_index !928
  %fi65 = call double @injectFault4(i64 906, double %fneg107, i32 18, i32 0, i32 1, i32 0, ptr @fmul_namestr), !llfi_injectfault !7
  %arrayidx108 = getelementptr inbounds double, ptr %fz, i64 4, !llfi_index !929
  store double %fi65, ptr %arrayidx108, align 8, !tbaa !302, !llfi_index !930
  %45 = fneg double %fi23, !llfi_index !931
  %fi66 = call double @injectFault4(i64 909, double %45, i32 12, i32 0, i32 1, i32 0, ptr @fneg_namestr), !llfi_injectfault !7
  %fneg110 = fmul double %fi66, %stress_zz, !llfi_index !932
  %fi67 = call double @injectFault4(i64 910, double %fneg110, i32 18, i32 0, i32 1, i32 0, ptr @fmul_namestr), !llfi_injectfault !7
  %arrayidx111 = getelementptr inbounds double, ptr %fz, i64 5, !llfi_index !933
  store double %fi67, ptr %arrayidx111, align 8, !tbaa !302, !llfi_index !934
  %46 = fneg double %fi24, !llfi_index !935
  %fi68 = call double @injectFault4(i64 913, double %46, i32 12, i32 0, i32 1, i32 0, ptr @fneg_namestr), !llfi_injectfault !7
  %fneg113 = fmul double %fi68, %stress_zz, !llfi_index !936
  %fi69 = call double @injectFault4(i64 914, double %fneg113, i32 18, i32 0, i32 1, i32 0, ptr @fmul_namestr), !llfi_injectfault !7
  %arrayidx114 = getelementptr inbounds double, ptr %fz, i64 6, !llfi_index !937
  store double %fi69, ptr %arrayidx114, align 8, !tbaa !302, !llfi_index !938
  %47 = fneg double %fi25, !llfi_index !939
  %fi70 = call double @injectFault4(i64 917, double %47, i32 12, i32 0, i32 1, i32 0, ptr @fneg_namestr), !llfi_injectfault !7
  %fneg116 = fmul double %fi70, %stress_zz, !llfi_index !940
  %fi71 = call double @injectFault4(i64 918, double %fneg116, i32 18, i32 0, i32 1, i32 0, ptr @fmul_namestr), !llfi_injectfault !7
  %arrayidx117 = getelementptr inbounds double, ptr %fz, i64 7, !llfi_index !941
  store double %fi71, ptr %arrayidx117, align 8, !tbaa !302, !llfi_index !942
  ret void, !llfi_index !943
}

; Function Attrs: mustprogress nofree noinline nosync nounwind uwtable
define dso_local void @_Z23IntegrateStressForElemsiPdS_S_S_(i32 noundef %numElem, ptr nocapture noundef readonly %sigxx, ptr nocapture noundef readonly %sigyy, ptr nocapture noundef readonly %sigzz, ptr nocapture noundef writeonly %determ) local_unnamed_addr #11 {
entry:
  %B = alloca [3 x [8 x double]], align 16, !llfi_index !944
  %fi = call ptr @injectFault0(i64 922, ptr %B, i32 31, i32 0, i32 1, i32 0, ptr @alloca_namestr), !llfi_injectfault !7
  %x_local = alloca [8 x double], align 16, !llfi_index !945
  %fi1 = call ptr @injectFault0(i64 923, ptr %x_local, i32 31, i32 0, i32 1, i32 0, ptr @alloca_namestr), !llfi_injectfault !7
  %y_local = alloca [8 x double], align 16, !llfi_index !946
  %fi2 = call ptr @injectFault0(i64 924, ptr %y_local, i32 31, i32 0, i32 1, i32 0, ptr @alloca_namestr), !llfi_injectfault !7
  %z_local = alloca [8 x double], align 16, !llfi_index !947
  %fi3 = call ptr @injectFault0(i64 925, ptr %z_local, i32 31, i32 0, i32 1, i32 0, ptr @alloca_namestr), !llfi_injectfault !7
  %fx_local = alloca [8 x double], align 16, !llfi_index !948
  %fi4 = call ptr @injectFault0(i64 926, ptr %fx_local, i32 31, i32 0, i32 1, i32 0, ptr @alloca_namestr), !llfi_injectfault !7
  %fy_local = alloca [8 x double], align 16, !llfi_index !949
  %fi5 = call ptr @injectFault0(i64 927, ptr %fy_local, i32 31, i32 0, i32 1, i32 0, ptr @alloca_namestr), !llfi_injectfault !7
  %fz_local = alloca [8 x double], align 16, !llfi_index !950
  %fi6 = call ptr @injectFault0(i64 928, ptr %fz_local, i32 31, i32 0, i32 1, i32 0, ptr @alloca_namestr), !llfi_injectfault !7
  call void @llvm.lifetime.start.p0(i64 192, ptr nonnull %fi) #2, !llfi_index !951
  call void @llvm.lifetime.start.p0(i64 64, ptr nonnull %fi1) #2, !llfi_index !952
  call void @llvm.lifetime.start.p0(i64 64, ptr nonnull %fi2) #2, !llfi_index !953
  call void @llvm.lifetime.start.p0(i64 64, ptr nonnull %fi3) #2, !llfi_index !954
  call void @llvm.lifetime.start.p0(i64 64, ptr nonnull %fi4) #2, !llfi_index !955
  call void @llvm.lifetime.start.p0(i64 64, ptr nonnull %fi5) #2, !llfi_index !956
  call void @llvm.lifetime.start.p0(i64 64, ptr nonnull %fi6) #2, !llfi_index !957
  %cmp98 = icmp sgt i32 %numElem, 0, !llfi_index !958
  %fi7 = call i1 @injectFault1(i64 936, i1 %cmp98, i32 53, i32 0, i32 1, i32 0, ptr @icmp_namestr), !llfi_injectfault !7
  br i1 %fi7, label %for.body.lr.ph, label %for.cond.cleanup, !llfi_index !959

for.body.lr.ph:                                   ; preds = %entry
  %arrayidx21 = getelementptr inbounds [3 x [8 x double]], ptr %fi, i64 0, i64 1, !llfi_index !960
  %arrayidx23 = getelementptr inbounds [3 x [8 x double]], ptr %fi, i64 0, i64 2, !llfi_index !961
  %wide.trip.count = zext i32 %numElem to i64, !llfi_index !962
  %fi8 = call i64 @injectFault3(i64 940, i64 %wide.trip.count, i32 39, i32 0, i32 1, i32 0, ptr @zext_namestr), !llfi_injectfault !7
  br label %for.body, !llfi_index !963

for.cond.cleanup:                                 ; preds = %for.cond.cleanup41, %entry
  call void @llvm.lifetime.end.p0(i64 64, ptr nonnull %fi6) #2, !llfi_index !964
  call void @llvm.lifetime.end.p0(i64 64, ptr nonnull %fi5) #2, !llfi_index !965
  call void @llvm.lifetime.end.p0(i64 64, ptr nonnull %fi4) #2, !llfi_index !966
  call void @llvm.lifetime.end.p0(i64 64, ptr nonnull %fi3) #2, !llfi_index !967
  call void @llvm.lifetime.end.p0(i64 64, ptr nonnull %fi2) #2, !llfi_index !968
  call void @llvm.lifetime.end.p0(i64 64, ptr nonnull %fi1) #2, !llfi_index !969
  call void @llvm.lifetime.end.p0(i64 192, ptr nonnull %fi) #2, !llfi_index !970
  ret void, !llfi_index !971

for.body:                                         ; preds = %for.cond.cleanup41, %for.body.lr.ph
  %indvars.iv105 = phi i64 [ 0, %for.body.lr.ph ], [ %fi29, %for.cond.cleanup41 ], !llfi_index !972
  %fi9 = call i64 @injectFault3(i64 950, i64 %indvars.iv105, i32 55, i32 0, i32 1, i32 0, ptr @phi_namestr), !llfi_injectfault !7
  %0 = shl nsw i64 %fi9, 3, !llfi_index !973
  %fi10 = call i64 @injectFault3(i64 951, i64 %0, i32 25, i32 0, i32 1, i32 0, ptr @shl_namestr), !llfi_injectfault !7
  %1 = load ptr, ptr getelementptr inbounds (%struct.Mesh, ptr @mesh, i64 0, i32 17), align 8, !tbaa !150, !llfi_index !974
  %fi11 = call ptr @injectFault0(i64 952, ptr %1, i32 32, i32 0, i32 1, i32 0, ptr @load_namestr), !llfi_injectfault !7
  %add.ptr.i.i = getelementptr inbounds i32, ptr %fi11, i64 %fi10, !llfi_index !975
  %2 = load ptr, ptr @mesh, align 8, !tbaa !12, !llfi_index !976
  %fi12 = call ptr @injectFault0(i64 954, ptr %2, i32 32, i32 0, i32 1, i32 0, ptr @load_namestr), !llfi_injectfault !7
  %3 = load ptr, ptr getelementptr inbounds (%struct.Mesh, ptr @mesh, i64 0, i32 1), align 8, !tbaa !12, !llfi_index !977
  %fi13 = call ptr @injectFault0(i64 955, ptr %3, i32 32, i32 0, i32 1, i32 0, ptr @load_namestr), !llfi_injectfault !7
  %4 = load ptr, ptr getelementptr inbounds (%struct.Mesh, ptr @mesh, i64 0, i32 2), align 8, !tbaa !12, !llfi_index !978
  %fi14 = call ptr @injectFault0(i64 956, ptr %4, i32 32, i32 0, i32 1, i32 0, ptr @load_namestr), !llfi_injectfault !7
  br label %for.body4, !llfi_index !979

for.cond.cleanup3:                                ; preds = %for.body4
  %arrayidx18 = getelementptr inbounds double, ptr %determ, i64 %fi9, !llfi_index !980
  call void @_Z32CalcElemShapeFunctionDerivativesPKdS0_S0_PA8_dPd(ptr noundef nonnull %fi1, ptr noundef nonnull %fi2, ptr noundef nonnull %fi3, ptr noundef nonnull %fi, ptr noundef %arrayidx18), !llfi_index !981
  call void @_Z19CalcElemNodeNormalsPdS_S_PKdS1_S1_(ptr noundef nonnull %fi, ptr noundef nonnull %arrayidx21, ptr noundef nonnull %arrayidx23, ptr noundef nonnull %fi1, ptr noundef nonnull %fi2, ptr noundef nonnull %fi3), !llfi_index !982
  %arrayidx30 = getelementptr inbounds double, ptr %sigxx, i64 %fi9, !llfi_index !983
  %5 = load double, ptr %arrayidx30, align 8, !tbaa !302, !llfi_index !984
  %fi15 = call double @injectFault4(i64 962, double %5, i32 32, i32 0, i32 1, i32 0, ptr @load_namestr), !llfi_injectfault !7
  %arrayidx32 = getelementptr inbounds double, ptr %sigyy, i64 %fi9, !llfi_index !985
  %6 = load double, ptr %arrayidx32, align 8, !tbaa !302, !llfi_index !986
  %fi16 = call double @injectFault4(i64 964, double %6, i32 32, i32 0, i32 1, i32 0, ptr @load_namestr), !llfi_injectfault !7
  %arrayidx34 = getelementptr inbounds double, ptr %sigzz, i64 %fi9, !llfi_index !987
  %7 = load double, ptr %arrayidx34, align 8, !tbaa !302, !llfi_index !988
  %fi17 = call double @injectFault4(i64 966, double %7, i32 32, i32 0, i32 1, i32 0, ptr @load_namestr), !llfi_injectfault !7
  call void @_Z27SumElemStressesToNodeForcesPA8_KddddPdS2_S2_(ptr noundef nonnull %fi, double noundef %fi15, double noundef %fi16, double noundef %fi17, ptr noundef nonnull %fi4, ptr noundef nonnull %fi5, ptr noundef nonnull %fi6), !llfi_index !989
  %8 = load ptr, ptr getelementptr inbounds (%struct.Mesh, ptr @mesh, i64 0, i32 9), align 8, !tbaa !12, !llfi_index !990
  %fi18 = call ptr @injectFault0(i64 968, ptr %8, i32 32, i32 0, i32 1, i32 0, ptr @load_namestr), !llfi_injectfault !7
  %9 = load ptr, ptr getelementptr inbounds (%struct.Mesh, ptr @mesh, i64 0, i32 10), align 8, !tbaa !12, !llfi_index !991
  %fi19 = call ptr @injectFault0(i64 969, ptr %9, i32 32, i32 0, i32 1, i32 0, ptr @load_namestr), !llfi_injectfault !7
  %10 = load ptr, ptr getelementptr inbounds (%struct.Mesh, ptr @mesh, i64 0, i32 11), align 8, !tbaa !12, !llfi_index !992
  %fi20 = call ptr @injectFault0(i64 970, ptr %10, i32 32, i32 0, i32 1, i32 0, ptr @load_namestr), !llfi_injectfault !7
  br label %for.body42, !llfi_index !993

for.body4:                                        ; preds = %for.body4, %for.body
  %indvars.iv = phi i64 [ 0, %for.body ], [ %fi27, %for.body4 ], !llfi_index !994
  %fi21 = call i64 @injectFault3(i64 972, i64 %indvars.iv, i32 55, i32 0, i32 1, i32 0, ptr @phi_namestr), !llfi_injectfault !7
  %arrayidx = getelementptr inbounds i32, ptr %add.ptr.i.i, i64 %fi21, !llfi_index !995
  %11 = load i32, ptr %arrayidx, align 4, !tbaa !361, !llfi_index !996
  %fi22 = call i32 @injectFault2(i64 974, i32 %11, i32 32, i32 0, i32 1, i32 0, ptr @load_namestr), !llfi_injectfault !7
  %conv.i84 = sext i32 %fi22 to i64, !llfi_index !997
  %fi23 = call i64 @injectFault3(i64 975, i64 %conv.i84, i32 40, i32 0, i32 1, i32 0, ptr @sext_namestr), !llfi_injectfault !7
  %add.ptr.i.i85 = getelementptr inbounds double, ptr %fi12, i64 %fi23, !llfi_index !998
  %12 = load double, ptr %add.ptr.i.i85, align 8, !tbaa !302, !llfi_index !999
  %fi24 = call double @injectFault4(i64 977, double %12, i32 32, i32 0, i32 1, i32 0, ptr @load_namestr), !llfi_injectfault !7
  %arrayidx7 = getelementptr inbounds [8 x double], ptr %fi1, i64 0, i64 %fi21, !llfi_index !1000
  store double %fi24, ptr %arrayidx7, align 8, !tbaa !302, !llfi_index !1001
  %add.ptr.i.i87 = getelementptr inbounds double, ptr %fi13, i64 %fi23, !llfi_index !1002
  %13 = load double, ptr %add.ptr.i.i87, align 8, !tbaa !302, !llfi_index !1003
  %fi25 = call double @injectFault4(i64 981, double %13, i32 32, i32 0, i32 1, i32 0, ptr @load_namestr), !llfi_injectfault !7
  %arrayidx10 = getelementptr inbounds [8 x double], ptr %fi2, i64 0, i64 %fi21, !llfi_index !1004
  store double %fi25, ptr %arrayidx10, align 8, !tbaa !302, !llfi_index !1005
  %add.ptr.i.i89 = getelementptr inbounds double, ptr %fi14, i64 %fi23, !llfi_index !1006
  %14 = load double, ptr %add.ptr.i.i89, align 8, !tbaa !302, !llfi_index !1007
  %fi26 = call double @injectFault4(i64 985, double %14, i32 32, i32 0, i32 1, i32 0, ptr @load_namestr), !llfi_injectfault !7
  %arrayidx13 = getelementptr inbounds [8 x double], ptr %fi3, i64 0, i64 %fi21, !llfi_index !1008
  store double %fi26, ptr %arrayidx13, align 8, !tbaa !302, !llfi_index !1009
  %indvars.iv.next = add nuw nsw i64 %fi21, 1, !llfi_index !1010
  %fi27 = call i64 @injectFault3(i64 988, i64 %indvars.iv.next, i32 13, i32 0, i32 1, i32 0, ptr @add_namestr), !llfi_injectfault !7
  %exitcond.not = icmp eq i64 %fi27, 8, !llfi_index !1011
  %fi28 = call i1 @injectFault1(i64 989, i1 %exitcond.not, i32 53, i32 0, i32 1, i32 0, ptr @icmp_namestr), !llfi_injectfault !7
  br i1 %fi28, label %for.cond.cleanup3, label %for.body4, !llvm.loop !1012, !llfi_index !1013

for.cond.cleanup41:                               ; preds = %for.body42
  %indvars.iv.next106 = add nuw nsw i64 %fi9, 1, !llfi_index !1014
  %fi29 = call i64 @injectFault3(i64 991, i64 %indvars.iv.next106, i32 13, i32 0, i32 1, i32 0, ptr @add_namestr), !llfi_injectfault !7
  %exitcond109.not = icmp eq i64 %fi29, %fi8, !llfi_index !1015
  %fi30 = call i1 @injectFault1(i64 992, i1 %exitcond109.not, i32 53, i32 0, i32 1, i32 0, ptr @icmp_namestr), !llfi_injectfault !7
  br i1 %fi30, label %for.cond.cleanup, label %for.body, !llvm.loop !1016, !llfi_index !1017

for.body42:                                       ; preds = %for.body42, %for.cond.cleanup3
  %indvars.iv101 = phi i64 [ 0, %for.cond.cleanup3 ], [ %fi43, %for.body42 ], !llfi_index !1018
  %fi31 = call i64 @injectFault3(i64 994, i64 %indvars.iv101, i32 55, i32 0, i32 1, i32 0, ptr @phi_namestr), !llfi_injectfault !7
  %arrayidx45 = getelementptr inbounds i32, ptr %add.ptr.i.i, i64 %fi31, !llfi_index !1019
  %15 = load i32, ptr %arrayidx45, align 4, !tbaa !361, !llfi_index !1020
  %fi32 = call i32 @injectFault2(i64 996, i32 %15, i32 32, i32 0, i32 1, i32 0, ptr @load_namestr), !llfi_injectfault !7
  %arrayidx47 = getelementptr inbounds [8 x double], ptr %fi4, i64 0, i64 %fi31, !llfi_index !1021
  %16 = load double, ptr %arrayidx47, align 8, !tbaa !302, !llfi_index !1022
  %fi33 = call double @injectFault4(i64 998, double %16, i32 32, i32 0, i32 1, i32 0, ptr @load_namestr), !llfi_injectfault !7
  %conv.i90 = sext i32 %fi32 to i64, !llfi_index !1023
  %fi34 = call i64 @injectFault3(i64 999, i64 %conv.i90, i32 40, i32 0, i32 1, i32 0, ptr @sext_namestr), !llfi_injectfault !7
  %add.ptr.i.i91 = getelementptr inbounds double, ptr %fi18, i64 %fi34, !llfi_index !1024
  %17 = load double, ptr %add.ptr.i.i91, align 8, !tbaa !302, !llfi_index !1025
  %fi35 = call double @injectFault4(i64 1001, double %17, i32 32, i32 0, i32 1, i32 0, ptr @load_namestr), !llfi_injectfault !7
  %add = fadd double %fi33, %fi35, !llfi_index !1026
  %fi36 = call double @injectFault4(i64 1002, double %add, i32 14, i32 0, i32 1, i32 0, ptr @fadd_namestr), !llfi_injectfault !7
  store double %fi36, ptr %add.ptr.i.i91, align 8, !tbaa !302, !llfi_index !1027
  %arrayidx50 = getelementptr inbounds [8 x double], ptr %fi5, i64 0, i64 %fi31, !llfi_index !1028
  %18 = load double, ptr %arrayidx50, align 8, !tbaa !302, !llfi_index !1029
  %fi37 = call double @injectFault4(i64 1005, double %18, i32 32, i32 0, i32 1, i32 0, ptr @load_namestr), !llfi_injectfault !7
  %add.ptr.i.i93 = getelementptr inbounds double, ptr %fi19, i64 %fi34, !llfi_index !1030
  %19 = load double, ptr %add.ptr.i.i93, align 8, !tbaa !302, !llfi_index !1031
  %fi38 = call double @injectFault4(i64 1007, double %19, i32 32, i32 0, i32 1, i32 0, ptr @load_namestr), !llfi_injectfault !7
  %add52 = fadd double %fi37, %fi38, !llfi_index !1032
  %fi39 = call double @injectFault4(i64 1008, double %add52, i32 14, i32 0, i32 1, i32 0, ptr @fadd_namestr), !llfi_injectfault !7
  store double %fi39, ptr %add.ptr.i.i93, align 8, !tbaa !302, !llfi_index !1033
  %arrayidx54 = getelementptr inbounds [8 x double], ptr %fi6, i64 0, i64 %fi31, !llfi_index !1034
  %20 = load double, ptr %arrayidx54, align 8, !tbaa !302, !llfi_index !1035
  %fi40 = call double @injectFault4(i64 1011, double %20, i32 32, i32 0, i32 1, i32 0, ptr @load_namestr), !llfi_injectfault !7
  %add.ptr.i.i95 = getelementptr inbounds double, ptr %fi20, i64 %fi34, !llfi_index !1036
  %21 = load double, ptr %add.ptr.i.i95, align 8, !tbaa !302, !llfi_index !1037
  %fi41 = call double @injectFault4(i64 1013, double %21, i32 32, i32 0, i32 1, i32 0, ptr @load_namestr), !llfi_injectfault !7
  %add56 = fadd double %fi40, %fi41, !llfi_index !1038
  %fi42 = call double @injectFault4(i64 1014, double %add56, i32 14, i32 0, i32 1, i32 0, ptr @fadd_namestr), !llfi_injectfault !7
  store double %fi42, ptr %add.ptr.i.i95, align 8, !tbaa !302, !llfi_index !1039
  %indvars.iv.next102 = add nuw nsw i64 %fi31, 1, !llfi_index !1040
  %fi43 = call i64 @injectFault3(i64 1016, i64 %indvars.iv.next102, i32 13, i32 0, i32 1, i32 0, ptr @add_namestr), !llfi_injectfault !7
  %exitcond104.not = icmp eq i64 %fi43, 8, !llfi_index !1041
  %fi44 = call i1 @injectFault1(i64 1017, i1 %exitcond104.not, i32 53, i32 0, i32 1, i32 0, ptr @icmp_namestr), !llfi_injectfault !7
  br i1 %fi44, label %for.cond.cleanup41, label %for.body42, !llvm.loop !1042, !llfi_index !1043
}

; Function Attrs: argmemonly nocallback nofree nosync nounwind willreturn
declare void @llvm.lifetime.start.p0(i64 immarg, ptr nocapture) #12

; Function Attrs: argmemonly nocallback nofree nosync nounwind willreturn
declare void @llvm.lifetime.end.p0(i64 immarg, ptr nocapture) #12

; Function Attrs: mustprogress nofree noinline norecurse nosync nounwind willreturn uwtable
define dso_local void @_Z29CollectDomainNodesToElemNodesPKiPdS1_S1_(ptr nocapture noundef readonly %elemToNode, ptr nocapture noundef writeonly %elemX, ptr nocapture noundef writeonly %elemY, ptr nocapture noundef writeonly %elemZ) local_unnamed_addr #5 {
entry:
  %0 = load i32, ptr %elemToNode, align 4, !tbaa !361, !llfi_index !1044
  %fi = call i32 @injectFault2(i64 1019, i32 %0, i32 32, i32 0, i32 1, i32 0, ptr @load_namestr), !llfi_injectfault !7
  %arrayidx1 = getelementptr inbounds i32, ptr %elemToNode, i64 1, !llfi_index !1045
  %1 = load i32, ptr %arrayidx1, align 4, !tbaa !361, !llfi_index !1046
  %fi1 = call i32 @injectFault2(i64 1021, i32 %1, i32 32, i32 0, i32 1, i32 0, ptr @load_namestr), !llfi_injectfault !7
  %arrayidx2 = getelementptr inbounds i32, ptr %elemToNode, i64 2, !llfi_index !1047
  %2 = load i32, ptr %arrayidx2, align 4, !tbaa !361, !llfi_index !1048
  %fi2 = call i32 @injectFault2(i64 1023, i32 %2, i32 32, i32 0, i32 1, i32 0, ptr @load_namestr), !llfi_injectfault !7
  %arrayidx3 = getelementptr inbounds i32, ptr %elemToNode, i64 3, !llfi_index !1049
  %3 = load i32, ptr %arrayidx3, align 4, !tbaa !361, !llfi_index !1050
  %fi3 = call i32 @injectFault2(i64 1025, i32 %3, i32 32, i32 0, i32 1, i32 0, ptr @load_namestr), !llfi_injectfault !7
  %arrayidx4 = getelementptr inbounds i32, ptr %elemToNode, i64 4, !llfi_index !1051
  %4 = load i32, ptr %arrayidx4, align 4, !tbaa !361, !llfi_index !1052
  %fi4 = call i32 @injectFault2(i64 1027, i32 %4, i32 32, i32 0, i32 1, i32 0, ptr @load_namestr), !llfi_injectfault !7
  %arrayidx5 = getelementptr inbounds i32, ptr %elemToNode, i64 5, !llfi_index !1053
  %5 = load i32, ptr %arrayidx5, align 4, !tbaa !361, !llfi_index !1054
  %fi5 = call i32 @injectFault2(i64 1029, i32 %5, i32 32, i32 0, i32 1, i32 0, ptr @load_namestr), !llfi_injectfault !7
  %arrayidx6 = getelementptr inbounds i32, ptr %elemToNode, i64 6, !llfi_index !1055
  %6 = load i32, ptr %arrayidx6, align 4, !tbaa !361, !llfi_index !1056
  %fi6 = call i32 @injectFault2(i64 1031, i32 %6, i32 32, i32 0, i32 1, i32 0, ptr @load_namestr), !llfi_injectfault !7
  %arrayidx7 = getelementptr inbounds i32, ptr %elemToNode, i64 7, !llfi_index !1057
  %7 = load i32, ptr %arrayidx7, align 4, !tbaa !361, !llfi_index !1058
  %fi7 = call i32 @injectFault2(i64 1033, i32 %7, i32 32, i32 0, i32 1, i32 0, ptr @load_namestr), !llfi_injectfault !7
  %conv.i = sext i32 %fi to i64, !llfi_index !1059
  %fi8 = call i64 @injectFault3(i64 1034, i64 %conv.i, i32 40, i32 0, i32 1, i32 0, ptr @sext_namestr), !llfi_injectfault !7
  %8 = load ptr, ptr @mesh, align 8, !tbaa !12, !llfi_index !1060
  %fi10 = call ptr @injectFault0(i64 1035, ptr %8, i32 32, i32 0, i32 1, i32 0, ptr @load_namestr), !llfi_injectfault !7
  %add.ptr.i.i = getelementptr inbounds double, ptr %fi10, i64 %fi8, !llfi_index !1061
  %9 = load double, ptr %add.ptr.i.i, align 8, !tbaa !302, !llfi_index !1062
  %fi11 = call double @injectFault4(i64 1037, double %9, i32 32, i32 0, i32 1, i32 0, ptr @load_namestr), !llfi_injectfault !7
  store double %fi11, ptr %elemX, align 8, !tbaa !302, !llfi_index !1063
  %conv.i99 = sext i32 %fi1 to i64, !llfi_index !1064
  %fi12 = call i64 @injectFault3(i64 1039, i64 %conv.i99, i32 40, i32 0, i32 1, i32 0, ptr @sext_namestr), !llfi_injectfault !7
  %add.ptr.i.i100 = getelementptr inbounds double, ptr %fi10, i64 %fi12, !llfi_index !1065
  %10 = load double, ptr %add.ptr.i.i100, align 8, !tbaa !302, !llfi_index !1066
  %fi13 = call double @injectFault4(i64 1041, double %10, i32 32, i32 0, i32 1, i32 0, ptr @load_namestr), !llfi_injectfault !7
  %arrayidx10 = getelementptr inbounds double, ptr %elemX, i64 1, !llfi_index !1067
  store double %fi13, ptr %arrayidx10, align 8, !tbaa !302, !llfi_index !1068
  %conv.i101 = sext i32 %fi2 to i64, !llfi_index !1069
  %fi14 = call i64 @injectFault3(i64 1044, i64 %conv.i101, i32 40, i32 0, i32 1, i32 0, ptr @sext_namestr), !llfi_injectfault !7
  %add.ptr.i.i102 = getelementptr inbounds double, ptr %fi10, i64 %fi14, !llfi_index !1070
  %11 = load double, ptr %add.ptr.i.i102, align 8, !tbaa !302, !llfi_index !1071
  %fi15 = call double @injectFault4(i64 1046, double %11, i32 32, i32 0, i32 1, i32 0, ptr @load_namestr), !llfi_injectfault !7
  %arrayidx12 = getelementptr inbounds double, ptr %elemX, i64 2, !llfi_index !1072
  store double %fi15, ptr %arrayidx12, align 8, !tbaa !302, !llfi_index !1073
  %conv.i103 = sext i32 %fi3 to i64, !llfi_index !1074
  %fi16 = call i64 @injectFault3(i64 1049, i64 %conv.i103, i32 40, i32 0, i32 1, i32 0, ptr @sext_namestr), !llfi_injectfault !7
  %add.ptr.i.i104 = getelementptr inbounds double, ptr %fi10, i64 %fi16, !llfi_index !1075
  %12 = load double, ptr %add.ptr.i.i104, align 8, !tbaa !302, !llfi_index !1076
  %fi17 = call double @injectFault4(i64 1051, double %12, i32 32, i32 0, i32 1, i32 0, ptr @load_namestr), !llfi_injectfault !7
  %arrayidx14 = getelementptr inbounds double, ptr %elemX, i64 3, !llfi_index !1077
  store double %fi17, ptr %arrayidx14, align 8, !tbaa !302, !llfi_index !1078
  %conv.i105 = sext i32 %fi4 to i64, !llfi_index !1079
  %fi18 = call i64 @injectFault3(i64 1054, i64 %conv.i105, i32 40, i32 0, i32 1, i32 0, ptr @sext_namestr), !llfi_injectfault !7
  %add.ptr.i.i106 = getelementptr inbounds double, ptr %fi10, i64 %fi18, !llfi_index !1080
  %13 = load double, ptr %add.ptr.i.i106, align 8, !tbaa !302, !llfi_index !1081
  %fi9 = call double @injectFault4(i64 1056, double %13, i32 32, i32 0, i32 1, i32 0, ptr @load_namestr), !llfi_injectfault !7
  %arrayidx16 = getelementptr inbounds double, ptr %elemX, i64 4, !llfi_index !1082
  store double %fi9, ptr %arrayidx16, align 8, !tbaa !302, !llfi_index !1083
  %conv.i107 = sext i32 %fi5 to i64, !llfi_index !1084
  %fi20 = call i64 @injectFault3(i64 1059, i64 %conv.i107, i32 40, i32 0, i32 1, i32 0, ptr @sext_namestr), !llfi_injectfault !7
  %add.ptr.i.i108 = getelementptr inbounds double, ptr %fi10, i64 %fi20, !llfi_index !1085
  %14 = load double, ptr %add.ptr.i.i108, align 8, !tbaa !302, !llfi_index !1086
  %fi21 = call double @injectFault4(i64 1061, double %14, i32 32, i32 0, i32 1, i32 0, ptr @load_namestr), !llfi_injectfault !7
  %arrayidx18 = getelementptr inbounds double, ptr %elemX, i64 5, !llfi_index !1087
  store double %fi21, ptr %arrayidx18, align 8, !tbaa !302, !llfi_index !1088
  %conv.i109 = sext i32 %fi6 to i64, !llfi_index !1089
  %fi22 = call i64 @injectFault3(i64 1064, i64 %conv.i109, i32 40, i32 0, i32 1, i32 0, ptr @sext_namestr), !llfi_injectfault !7
  %add.ptr.i.i110 = getelementptr inbounds double, ptr %fi10, i64 %fi22, !llfi_index !1090
  %15 = load double, ptr %add.ptr.i.i110, align 8, !tbaa !302, !llfi_index !1091
  %fi23 = call double @injectFault4(i64 1066, double %15, i32 32, i32 0, i32 1, i32 0, ptr @load_namestr), !llfi_injectfault !7
  %arrayidx20 = getelementptr inbounds double, ptr %elemX, i64 6, !llfi_index !1092
  store double %fi23, ptr %arrayidx20, align 8, !tbaa !302, !llfi_index !1093
  %conv.i111 = sext i32 %fi7 to i64, !llfi_index !1094
  %fi24 = call i64 @injectFault3(i64 1069, i64 %conv.i111, i32 40, i32 0, i32 1, i32 0, ptr @sext_namestr), !llfi_injectfault !7
  %add.ptr.i.i112 = getelementptr inbounds double, ptr %fi10, i64 %fi24, !llfi_index !1095
  %16 = load double, ptr %add.ptr.i.i112, align 8, !tbaa !302, !llfi_index !1096
  %fi25 = call double @injectFault4(i64 1071, double %16, i32 32, i32 0, i32 1, i32 0, ptr @load_namestr), !llfi_injectfault !7
  %arrayidx22 = getelementptr inbounds double, ptr %elemX, i64 7, !llfi_index !1097
  store double %fi25, ptr %arrayidx22, align 8, !tbaa !302, !llfi_index !1098
  %17 = load ptr, ptr getelementptr inbounds (%struct.Mesh, ptr @mesh, i64 0, i32 1), align 8, !tbaa !12, !llfi_index !1099
  %fi26 = call ptr @injectFault0(i64 1074, ptr %17, i32 32, i32 0, i32 1, i32 0, ptr @load_namestr), !llfi_injectfault !7
  %add.ptr.i.i114 = getelementptr inbounds double, ptr %fi26, i64 %fi8, !llfi_index !1100
  %18 = load double, ptr %add.ptr.i.i114, align 8, !tbaa !302, !llfi_index !1101
  %fi27 = call double @injectFault4(i64 1076, double %18, i32 32, i32 0, i32 1, i32 0, ptr @load_namestr), !llfi_injectfault !7
  store double %fi27, ptr %elemY, align 8, !tbaa !302, !llfi_index !1102
  %add.ptr.i.i116 = getelementptr inbounds double, ptr %fi26, i64 %fi12, !llfi_index !1103
  %19 = load double, ptr %add.ptr.i.i116, align 8, !tbaa !302, !llfi_index !1104
  %fi28 = call double @injectFault4(i64 1079, double %19, i32 32, i32 0, i32 1, i32 0, ptr @load_namestr), !llfi_injectfault !7
  %arrayidx26 = getelementptr inbounds double, ptr %elemY, i64 1, !llfi_index !1105
  store double %fi28, ptr %arrayidx26, align 8, !tbaa !302, !llfi_index !1106
  %add.ptr.i.i118 = getelementptr inbounds double, ptr %fi26, i64 %fi14, !llfi_index !1107
  %20 = load double, ptr %add.ptr.i.i118, align 8, !tbaa !302, !llfi_index !1108
  %fi29 = call double @injectFault4(i64 1083, double %20, i32 32, i32 0, i32 1, i32 0, ptr @load_namestr), !llfi_injectfault !7
  %arrayidx28 = getelementptr inbounds double, ptr %elemY, i64 2, !llfi_index !1109
  store double %fi29, ptr %arrayidx28, align 8, !tbaa !302, !llfi_index !1110
  %add.ptr.i.i120 = getelementptr inbounds double, ptr %fi26, i64 %fi16, !llfi_index !1111
  %21 = load double, ptr %add.ptr.i.i120, align 8, !tbaa !302, !llfi_index !1112
  %fi30 = call double @injectFault4(i64 1087, double %21, i32 32, i32 0, i32 1, i32 0, ptr @load_namestr), !llfi_injectfault !7
  %arrayidx30 = getelementptr inbounds double, ptr %elemY, i64 3, !llfi_index !1113
  store double %fi30, ptr %arrayidx30, align 8, !tbaa !302, !llfi_index !1114
  %add.ptr.i.i122 = getelementptr inbounds double, ptr %fi26, i64 %fi18, !llfi_index !1115
  %22 = load double, ptr %add.ptr.i.i122, align 8, !tbaa !302, !llfi_index !1116
  %fi31 = call double @injectFault4(i64 1091, double %22, i32 32, i32 0, i32 1, i32 0, ptr @load_namestr), !llfi_injectfault !7
  %arrayidx32 = getelementptr inbounds double, ptr %elemY, i64 4, !llfi_index !1117
  store double %fi31, ptr %arrayidx32, align 8, !tbaa !302, !llfi_index !1118
  %add.ptr.i.i124 = getelementptr inbounds double, ptr %fi26, i64 %fi20, !llfi_index !1119
  %23 = load double, ptr %add.ptr.i.i124, align 8, !tbaa !302, !llfi_index !1120
  %fi32 = call double @injectFault4(i64 1095, double %23, i32 32, i32 0, i32 1, i32 0, ptr @load_namestr), !llfi_injectfault !7
  %arrayidx34 = getelementptr inbounds double, ptr %elemY, i64 5, !llfi_index !1121
  store double %fi32, ptr %arrayidx34, align 8, !tbaa !302, !llfi_index !1122
  %add.ptr.i.i126 = getelementptr inbounds double, ptr %fi26, i64 %fi22, !llfi_index !1123
  %24 = load double, ptr %add.ptr.i.i126, align 8, !tbaa !302, !llfi_index !1124
  %fi33 = call double @injectFault4(i64 1099, double %24, i32 32, i32 0, i32 1, i32 0, ptr @load_namestr), !llfi_injectfault !7
  %arrayidx36 = getelementptr inbounds double, ptr %elemY, i64 6, !llfi_index !1125
  store double %fi33, ptr %arrayidx36, align 8, !tbaa !302, !llfi_index !1126
  %add.ptr.i.i128 = getelementptr inbounds double, ptr %fi26, i64 %fi24, !llfi_index !1127
  %25 = load double, ptr %add.ptr.i.i128, align 8, !tbaa !302, !llfi_index !1128
  %fi19 = call double @injectFault4(i64 1103, double %25, i32 32, i32 0, i32 1, i32 0, ptr @load_namestr), !llfi_injectfault !7
  %arrayidx38 = getelementptr inbounds double, ptr %elemY, i64 7, !llfi_index !1129
  store double %fi19, ptr %arrayidx38, align 8, !tbaa !302, !llfi_index !1130
  %26 = load ptr, ptr getelementptr inbounds (%struct.Mesh, ptr @mesh, i64 0, i32 2), align 8, !tbaa !12, !llfi_index !1131
  %fi34 = call ptr @injectFault0(i64 1106, ptr %26, i32 32, i32 0, i32 1, i32 0, ptr @load_namestr), !llfi_injectfault !7
  %add.ptr.i.i130 = getelementptr inbounds double, ptr %fi34, i64 %fi8, !llfi_index !1132
  %27 = load double, ptr %add.ptr.i.i130, align 8, !tbaa !302, !llfi_index !1133
  %fi35 = call double @injectFault4(i64 1108, double %27, i32 32, i32 0, i32 1, i32 0, ptr @load_namestr), !llfi_injectfault !7
  store double %fi35, ptr %elemZ, align 8, !tbaa !302, !llfi_index !1134
  %add.ptr.i.i132 = getelementptr inbounds double, ptr %fi34, i64 %fi12, !llfi_index !1135
  %28 = load double, ptr %add.ptr.i.i132, align 8, !tbaa !302, !llfi_index !1136
  %fi36 = call double @injectFault4(i64 1111, double %28, i32 32, i32 0, i32 1, i32 0, ptr @load_namestr), !llfi_injectfault !7
  %arrayidx42 = getelementptr inbounds double, ptr %elemZ, i64 1, !llfi_index !1137
  store double %fi36, ptr %arrayidx42, align 8, !tbaa !302, !llfi_index !1138
  %add.ptr.i.i134 = getelementptr inbounds double, ptr %fi34, i64 %fi14, !llfi_index !1139
  %29 = load double, ptr %add.ptr.i.i134, align 8, !tbaa !302, !llfi_index !1140
  %fi37 = call double @injectFault4(i64 1115, double %29, i32 32, i32 0, i32 1, i32 0, ptr @load_namestr), !llfi_injectfault !7
  %arrayidx44 = getelementptr inbounds double, ptr %elemZ, i64 2, !llfi_index !1141
  store double %fi37, ptr %arrayidx44, align 8, !tbaa !302, !llfi_index !1142
  %add.ptr.i.i136 = getelementptr inbounds double, ptr %fi34, i64 %fi16, !llfi_index !1143
  %30 = load double, ptr %add.ptr.i.i136, align 8, !tbaa !302, !llfi_index !1144
  %fi38 = call double @injectFault4(i64 1119, double %30, i32 32, i32 0, i32 1, i32 0, ptr @load_namestr), !llfi_injectfault !7
  %arrayidx46 = getelementptr inbounds double, ptr %elemZ, i64 3, !llfi_index !1145
  store double %fi38, ptr %arrayidx46, align 8, !tbaa !302, !llfi_index !1146
  %add.ptr.i.i138 = getelementptr inbounds double, ptr %fi34, i64 %fi18, !llfi_index !1147
  %31 = load double, ptr %add.ptr.i.i138, align 8, !tbaa !302, !llfi_index !1148
  %fi39 = call double @injectFault4(i64 1123, double %31, i32 32, i32 0, i32 1, i32 0, ptr @load_namestr), !llfi_injectfault !7
  %arrayidx48 = getelementptr inbounds double, ptr %elemZ, i64 4, !llfi_index !1149
  store double %fi39, ptr %arrayidx48, align 8, !tbaa !302, !llfi_index !1150
  %add.ptr.i.i140 = getelementptr inbounds double, ptr %fi34, i64 %fi20, !llfi_index !1151
  %32 = load double, ptr %add.ptr.i.i140, align 8, !tbaa !302, !llfi_index !1152
  %fi40 = call double @injectFault4(i64 1127, double %32, i32 32, i32 0, i32 1, i32 0, ptr @load_namestr), !llfi_injectfault !7
  %arrayidx50 = getelementptr inbounds double, ptr %elemZ, i64 5, !llfi_index !1153
  store double %fi40, ptr %arrayidx50, align 8, !tbaa !302, !llfi_index !1154
  %add.ptr.i.i142 = getelementptr inbounds double, ptr %fi34, i64 %fi22, !llfi_index !1155
  %33 = load double, ptr %add.ptr.i.i142, align 8, !tbaa !302, !llfi_index !1156
  %fi41 = call double @injectFault4(i64 1131, double %33, i32 32, i32 0, i32 1, i32 0, ptr @load_namestr), !llfi_injectfault !7
  %arrayidx52 = getelementptr inbounds double, ptr %elemZ, i64 6, !llfi_index !1157
  store double %fi41, ptr %arrayidx52, align 8, !tbaa !302, !llfi_index !1158
  %add.ptr.i.i144 = getelementptr inbounds double, ptr %fi34, i64 %fi24, !llfi_index !1159
  %34 = load double, ptr %add.ptr.i.i144, align 8, !tbaa !302, !llfi_index !1160
  %fi42 = call double @injectFault4(i64 1135, double %34, i32 32, i32 0, i32 1, i32 0, ptr @load_namestr), !llfi_injectfault !7
  %arrayidx54 = getelementptr inbounds double, ptr %elemZ, i64 7, !llfi_index !1161
  store double %fi42, ptr %arrayidx54, align 8, !tbaa !302, !llfi_index !1162
  ret void, !llfi_index !1163
}

; Function Attrs: argmemonly mustprogress nofree noinline nosync nounwind willreturn uwtable
define dso_local void @_Z7VoluDerddddddddddddddddddPdS_S_(double noundef %x0, double noundef %x1, double noundef %x2, double noundef %x3, double noundef %x4, double noundef %x5, double noundef %y0, double noundef %y1, double noundef %y2, double noundef %y3, double noundef %y4, double noundef %y5, double noundef %z0, double noundef %z1, double noundef %z2, double noundef %z3, double noundef %z4, double noundef %z5, ptr nocapture noundef %dvdx, ptr nocapture noundef %dvdy, ptr nocapture noundef %dvdz) local_unnamed_addr #7 {
entry:
  %add = fadd double %y1, %y2, !llfi_index !1164
  %fi22 = call double @injectFault4(i64 1139, double %add, i32 14, i32 0, i32 1, i32 0, ptr @fadd_namestr), !llfi_injectfault !7
  %add1 = fadd double %z0, %z1, !llfi_index !1165
  %fi23 = call double @injectFault4(i64 1140, double %add1, i32 14, i32 0, i32 1, i32 0, ptr @fadd_namestr), !llfi_injectfault !7
  %add2 = fadd double %y0, %y1, !llfi_index !1166
  %fi24 = call double @injectFault4(i64 1141, double %add2, i32 14, i32 0, i32 1, i32 0, ptr @fadd_namestr), !llfi_injectfault !7
  %add3 = fadd double %z1, %z2, !llfi_index !1167
  %fi26 = call double @injectFault4(i64 1142, double %add3, i32 14, i32 0, i32 1, i32 0, ptr @fadd_namestr), !llfi_injectfault !7
  %0 = fneg double %fi24, !llfi_index !1168
  %fi27 = call double @injectFault4(i64 1143, double %0, i32 12, i32 0, i32 1, i32 0, ptr @fneg_namestr), !llfi_injectfault !7
  %neg = fmul double %fi26, %fi27, !llfi_index !1169
  %fi1 = call double @injectFault4(i64 1144, double %neg, i32 18, i32 0, i32 1, i32 0, ptr @fmul_namestr), !llfi_injectfault !7
  %1 = call double @llvm.fmuladd.f64(double %fi22, double %fi23, double %fi1), !llfi_index !1170
  %add5 = fadd double %y0, %y4, !llfi_index !1171
  %fi2 = call double @injectFault4(i64 1146, double %add5, i32 14, i32 0, i32 1, i32 0, ptr @fadd_namestr), !llfi_injectfault !7
  %add6 = fadd double %z3, %z4, !llfi_index !1172
  %fi3 = call double @injectFault4(i64 1147, double %add6, i32 14, i32 0, i32 1, i32 0, ptr @fadd_namestr), !llfi_injectfault !7
  %2 = call double @llvm.fmuladd.f64(double %fi2, double %fi3, double %1), !llfi_index !1173
  %add7 = fadd double %y3, %y4, !llfi_index !1174
  %fi4 = call double @injectFault4(i64 1149, double %add7, i32 14, i32 0, i32 1, i32 0, ptr @fadd_namestr), !llfi_injectfault !7
  %add8 = fadd double %z0, %z4, !llfi_index !1175
  %fi5 = call double @injectFault4(i64 1150, double %add8, i32 14, i32 0, i32 1, i32 0, ptr @fadd_namestr), !llfi_injectfault !7
  %neg9 = fneg double %fi4, !llfi_index !1176
  %fi25 = call double @injectFault4(i64 1151, double %neg9, i32 12, i32 0, i32 1, i32 0, ptr @fneg_namestr), !llfi_injectfault !7
  %3 = call double @llvm.fmuladd.f64(double %fi25, double %fi5, double %2), !llfi_index !1177
  %add10 = fadd double %y2, %y5, !llfi_index !1178
  %fi6 = call double @injectFault4(i64 1153, double %add10, i32 14, i32 0, i32 1, i32 0, ptr @fadd_namestr), !llfi_injectfault !7
  %add11 = fadd double %z3, %z5, !llfi_index !1179
  %fi7 = call double @injectFault4(i64 1154, double %add11, i32 14, i32 0, i32 1, i32 0, ptr @fadd_namestr), !llfi_injectfault !7
  %neg12 = fneg double %fi6, !llfi_index !1180
  %fi8 = call double @injectFault4(i64 1155, double %neg12, i32 12, i32 0, i32 1, i32 0, ptr @fneg_namestr), !llfi_injectfault !7
  %4 = call double @llvm.fmuladd.f64(double %fi8, double %fi7, double %3), !llfi_index !1181
  %add13 = fadd double %y3, %y5, !llfi_index !1182
  %fi9 = call double @injectFault4(i64 1157, double %add13, i32 14, i32 0, i32 1, i32 0, ptr @fadd_namestr), !llfi_injectfault !7
  %add14 = fadd double %z2, %z5, !llfi_index !1183
  %fi10 = call double @injectFault4(i64 1158, double %add14, i32 14, i32 0, i32 1, i32 0, ptr @fadd_namestr), !llfi_injectfault !7
  %5 = call double @llvm.fmuladd.f64(double %fi9, double %fi10, double %4), !llfi_index !1184
  store double %5, ptr %dvdx, align 8, !tbaa !302, !llfi_index !1185
  %add15 = fadd double %x1, %x2, !llfi_index !1186
  %fi11 = call double @injectFault4(i64 1161, double %add15, i32 14, i32 0, i32 1, i32 0, ptr @fadd_namestr), !llfi_injectfault !7
  %fneg = fneg double %fi11, !llfi_index !1187
  %fi12 = call double @injectFault4(i64 1162, double %fneg, i32 12, i32 0, i32 1, i32 0, ptr @fneg_namestr), !llfi_injectfault !7
  %add17 = fadd double %x0, %x1, !llfi_index !1188
  %fi13 = call double @injectFault4(i64 1163, double %add17, i32 14, i32 0, i32 1, i32 0, ptr @fadd_namestr), !llfi_injectfault !7
  %mul19 = fmul double %fi13, %fi26, !llfi_index !1189
  %fi14 = call double @injectFault4(i64 1164, double %mul19, i32 18, i32 0, i32 1, i32 0, ptr @fmul_namestr), !llfi_injectfault !7
  %6 = call double @llvm.fmuladd.f64(double %fi12, double %fi23, double %fi14), !llfi_index !1190
  %add20 = fadd double %x0, %x4, !llfi_index !1191
  %fi15 = call double @injectFault4(i64 1166, double %add20, i32 14, i32 0, i32 1, i32 0, ptr @fadd_namestr), !llfi_injectfault !7
  %neg22 = fneg double %fi15, !llfi_index !1192
  %fi16 = call double @injectFault4(i64 1167, double %neg22, i32 12, i32 0, i32 1, i32 0, ptr @fneg_namestr), !llfi_injectfault !7
  %7 = call double @llvm.fmuladd.f64(double %fi16, double %fi3, double %6), !llfi_index !1193
  %add23 = fadd double %x3, %x4, !llfi_index !1194
  %fi17 = call double @injectFault4(i64 1169, double %add23, i32 14, i32 0, i32 1, i32 0, ptr @fadd_namestr), !llfi_injectfault !7
  %8 = call double @llvm.fmuladd.f64(double %fi17, double %fi5, double %7), !llfi_index !1195
  %add25 = fadd double %x2, %x5, !llfi_index !1196
  %fi19 = call double @injectFault4(i64 1171, double %add25, i32 14, i32 0, i32 1, i32 0, ptr @fadd_namestr), !llfi_injectfault !7
  %9 = call double @llvm.fmuladd.f64(double %fi19, double %fi7, double %8), !llfi_index !1197
  %add27 = fadd double %x3, %x5, !llfi_index !1198
  %fi20 = call double @injectFault4(i64 1173, double %add27, i32 14, i32 0, i32 1, i32 0, ptr @fadd_namestr), !llfi_injectfault !7
  %neg29 = fneg double %fi20, !llfi_index !1199
  %fi21 = call double @injectFault4(i64 1174, double %neg29, i32 12, i32 0, i32 1, i32 0, ptr @fneg_namestr), !llfi_injectfault !7
  %10 = call double @llvm.fmuladd.f64(double %fi21, double %fi10, double %9), !llfi_index !1200
  store double %10, ptr %dvdy, align 8, !tbaa !302, !llfi_index !1201
  %fneg31 = fneg double %fi22, !llfi_index !1202
  %fi28 = call double @injectFault4(i64 1177, double %fneg31, i32 12, i32 0, i32 1, i32 0, ptr @fneg_namestr), !llfi_injectfault !7
  %mul35 = fmul double %fi11, %fi24, !llfi_index !1203
  %fi29 = call double @injectFault4(i64 1178, double %mul35, i32 18, i32 0, i32 1, i32 0, ptr @fmul_namestr), !llfi_injectfault !7
  %11 = call double @llvm.fmuladd.f64(double %fi28, double %fi13, double %fi29), !llfi_index !1204
  %neg38 = fneg double %fi2, !llfi_index !1205
  %fi = call double @injectFault4(i64 1180, double %neg38, i32 12, i32 0, i32 1, i32 0, ptr @fneg_namestr), !llfi_injectfault !7
  %12 = call double @llvm.fmuladd.f64(double %fi, double %fi17, double %11), !llfi_index !1206
  %13 = call double @llvm.fmuladd.f64(double %fi4, double %fi15, double %12), !llfi_index !1207
  %14 = call double @llvm.fmuladd.f64(double %fi6, double %fi20, double %13), !llfi_index !1208
  %neg45 = fneg double %fi9, !llfi_index !1209
  %fi30 = call double @injectFault4(i64 1184, double %neg45, i32 12, i32 0, i32 1, i32 0, ptr @fneg_namestr), !llfi_injectfault !7
  %15 = call double @llvm.fmuladd.f64(double %fi30, double %fi19, double %14), !llfi_index !1210
  store double %15, ptr %dvdz, align 8, !tbaa !302, !llfi_index !1211
  %16 = load double, ptr %dvdx, align 8, !tbaa !302, !llfi_index !1212
  %fi31 = call double @injectFault4(i64 1187, double %16, i32 32, i32 0, i32 1, i32 0, ptr @load_namestr), !llfi_injectfault !7
  %mul = fmul double %fi31, 0x3FB5555555555555, !llfi_index !1213
  %fi18 = call double @injectFault4(i64 1188, double %mul, i32 18, i32 0, i32 1, i32 0, ptr @fmul_namestr), !llfi_injectfault !7
  store double %fi18, ptr %dvdx, align 8, !tbaa !302, !llfi_index !1214
  %17 = load double, ptr %dvdy, align 8, !tbaa !302, !llfi_index !1215
  %fi32 = call double @injectFault4(i64 1190, double %17, i32 32, i32 0, i32 1, i32 0, ptr @load_namestr), !llfi_injectfault !7
  %mul46 = fmul double %fi32, 0x3FB5555555555555, !llfi_index !1216
  %fi33 = call double @injectFault4(i64 1191, double %mul46, i32 18, i32 0, i32 1, i32 0, ptr @fmul_namestr), !llfi_injectfault !7
  store double %fi33, ptr %dvdy, align 8, !tbaa !302, !llfi_index !1217
  %18 = load double, ptr %dvdz, align 8, !tbaa !302, !llfi_index !1218
  %fi34 = call double @injectFault4(i64 1193, double %18, i32 32, i32 0, i32 1, i32 0, ptr @load_namestr), !llfi_injectfault !7
  %mul47 = fmul double %fi34, 0x3FB5555555555555, !llfi_index !1219
  %fi35 = call double @injectFault4(i64 1194, double %mul47, i32 18, i32 0, i32 1, i32 0, ptr @fmul_namestr), !llfi_injectfault !7
  store double %fi35, ptr %dvdz, align 8, !tbaa !302, !llfi_index !1220
  ret void, !llfi_index !1221
}

; Function Attrs: argmemonly mustprogress nofree noinline nosync nounwind willreturn uwtable
define dso_local void @_Z24CalcElemVolumeDerivativePdS_S_PKdS1_S1_(ptr nocapture noundef %dvdx, ptr nocapture noundef %dvdy, ptr nocapture noundef %dvdz, ptr nocapture noundef readonly %x, ptr nocapture noundef readonly %y, ptr nocapture noundef readonly %z) local_unnamed_addr #7 {
entry:
  %arrayidx = getelementptr inbounds double, ptr %x, i64 1, !llfi_index !1222
  %0 = load double, ptr %arrayidx, align 8, !tbaa !302, !llfi_index !1223
  %fi18 = call double @injectFault4(i64 1198, double %0, i32 32, i32 0, i32 1, i32 0, ptr @load_namestr), !llfi_injectfault !7
  %arrayidx1 = getelementptr inbounds double, ptr %x, i64 2, !llfi_index !1224
  %1 = load double, ptr %arrayidx1, align 8, !tbaa !302, !llfi_index !1225
  %fi19 = call double @injectFault4(i64 1200, double %1, i32 32, i32 0, i32 1, i32 0, ptr @load_namestr), !llfi_injectfault !7
  %arrayidx2 = getelementptr inbounds double, ptr %x, i64 3, !llfi_index !1226
  %2 = load double, ptr %arrayidx2, align 8, !tbaa !302, !llfi_index !1227
  %fi20 = call double @injectFault4(i64 1202, double %2, i32 32, i32 0, i32 1, i32 0, ptr @load_namestr), !llfi_injectfault !7
  %arrayidx3 = getelementptr inbounds double, ptr %x, i64 4, !llfi_index !1228
  %3 = load double, ptr %arrayidx3, align 8, !tbaa !302, !llfi_index !1229
  %fi21 = call double @injectFault4(i64 1204, double %3, i32 32, i32 0, i32 1, i32 0, ptr @load_namestr), !llfi_injectfault !7
  %arrayidx4 = getelementptr inbounds double, ptr %x, i64 5, !llfi_index !1230
  %4 = load double, ptr %arrayidx4, align 8, !tbaa !302, !llfi_index !1231
  %fi22 = call double @injectFault4(i64 1206, double %4, i32 32, i32 0, i32 1, i32 0, ptr @load_namestr), !llfi_injectfault !7
  %arrayidx5 = getelementptr inbounds double, ptr %x, i64 7, !llfi_index !1232
  %5 = load double, ptr %arrayidx5, align 8, !tbaa !302, !llfi_index !1233
  %fi24 = call double @injectFault4(i64 1208, double %5, i32 32, i32 0, i32 1, i32 0, ptr @load_namestr), !llfi_injectfault !7
  %arrayidx6 = getelementptr inbounds double, ptr %y, i64 1, !llfi_index !1234
  %6 = load double, ptr %arrayidx6, align 8, !tbaa !302, !llfi_index !1235
  %fi25 = call double @injectFault4(i64 1210, double %6, i32 32, i32 0, i32 1, i32 0, ptr @load_namestr), !llfi_injectfault !7
  %arrayidx7 = getelementptr inbounds double, ptr %y, i64 2, !llfi_index !1236
  %7 = load double, ptr %arrayidx7, align 8, !tbaa !302, !llfi_index !1237
  %fi26 = call double @injectFault4(i64 1212, double %7, i32 32, i32 0, i32 1, i32 0, ptr @load_namestr), !llfi_injectfault !7
  %arrayidx8 = getelementptr inbounds double, ptr %y, i64 3, !llfi_index !1238
  %8 = load double, ptr %arrayidx8, align 8, !tbaa !302, !llfi_index !1239
  %fi27 = call double @injectFault4(i64 1214, double %8, i32 32, i32 0, i32 1, i32 0, ptr @load_namestr), !llfi_injectfault !7
  %arrayidx9 = getelementptr inbounds double, ptr %y, i64 4, !llfi_index !1240
  %9 = load double, ptr %arrayidx9, align 8, !tbaa !302, !llfi_index !1241
  %fi28 = call double @injectFault4(i64 1216, double %9, i32 32, i32 0, i32 1, i32 0, ptr @load_namestr), !llfi_injectfault !7
  %arrayidx10 = getelementptr inbounds double, ptr %y, i64 5, !llfi_index !1242
  %10 = load double, ptr %arrayidx10, align 8, !tbaa !302, !llfi_index !1243
  %fi29 = call double @injectFault4(i64 1218, double %10, i32 32, i32 0, i32 1, i32 0, ptr @load_namestr), !llfi_injectfault !7
  %arrayidx11 = getelementptr inbounds double, ptr %y, i64 7, !llfi_index !1244
  %11 = load double, ptr %arrayidx11, align 8, !tbaa !302, !llfi_index !1245
  %fi30 = call double @injectFault4(i64 1220, double %11, i32 32, i32 0, i32 1, i32 0, ptr @load_namestr), !llfi_injectfault !7
  %arrayidx12 = getelementptr inbounds double, ptr %z, i64 1, !llfi_index !1246
  %12 = load double, ptr %arrayidx12, align 8, !tbaa !302, !llfi_index !1247
  %fi31 = call double @injectFault4(i64 1222, double %12, i32 32, i32 0, i32 1, i32 0, ptr @load_namestr), !llfi_injectfault !7
  %arrayidx13 = getelementptr inbounds double, ptr %z, i64 2, !llfi_index !1248
  %13 = load double, ptr %arrayidx13, align 8, !tbaa !302, !llfi_index !1249
  %fi32 = call double @injectFault4(i64 1224, double %13, i32 32, i32 0, i32 1, i32 0, ptr @load_namestr), !llfi_injectfault !7
  %arrayidx14 = getelementptr inbounds double, ptr %z, i64 3, !llfi_index !1250
  %14 = load double, ptr %arrayidx14, align 8, !tbaa !302, !llfi_index !1251
  %fi33 = call double @injectFault4(i64 1226, double %14, i32 32, i32 0, i32 1, i32 0, ptr @load_namestr), !llfi_injectfault !7
  %arrayidx15 = getelementptr inbounds double, ptr %z, i64 4, !llfi_index !1252
  %15 = load double, ptr %arrayidx15, align 8, !tbaa !302, !llfi_index !1253
  %fi34 = call double @injectFault4(i64 1228, double %15, i32 32, i32 0, i32 1, i32 0, ptr @load_namestr), !llfi_injectfault !7
  %arrayidx16 = getelementptr inbounds double, ptr %z, i64 5, !llfi_index !1254
  %16 = load double, ptr %arrayidx16, align 8, !tbaa !302, !llfi_index !1255
  %fi35 = call double @injectFault4(i64 1230, double %16, i32 32, i32 0, i32 1, i32 0, ptr @load_namestr), !llfi_injectfault !7
  %arrayidx17 = getelementptr inbounds double, ptr %z, i64 7, !llfi_index !1256
  %17 = load double, ptr %arrayidx17, align 8, !tbaa !302, !llfi_index !1257
  %fi23 = call double @injectFault4(i64 1232, double %17, i32 32, i32 0, i32 1, i32 0, ptr @load_namestr), !llfi_injectfault !7
  call void @_Z7VoluDerddddddddddddddddddPdS_S_(double noundef %fi18, double noundef %fi19, double noundef %fi20, double noundef %fi21, double noundef %fi22, double noundef %fi24, double noundef %fi25, double noundef %fi26, double noundef %fi27, double noundef %fi28, double noundef %fi29, double noundef %fi30, double noundef %fi31, double noundef %fi32, double noundef %fi33, double noundef %fi34, double noundef %fi35, double noundef %fi23, ptr noundef %dvdx, ptr noundef %dvdy, ptr noundef %dvdz), !llfi_index !1258
  %18 = load double, ptr %x, align 8, !tbaa !302, !llfi_index !1259
  %fi36 = call double @injectFault4(i64 1234, double %18, i32 32, i32 0, i32 1, i32 0, ptr @load_namestr), !llfi_injectfault !7
  %19 = load double, ptr %arrayidx, align 8, !tbaa !302, !llfi_index !1260
  %fi37 = call double @injectFault4(i64 1235, double %19, i32 32, i32 0, i32 1, i32 0, ptr @load_namestr), !llfi_injectfault !7
  %20 = load double, ptr %arrayidx1, align 8, !tbaa !302, !llfi_index !1261
  %fi38 = call double @injectFault4(i64 1236, double %20, i32 32, i32 0, i32 1, i32 0, ptr @load_namestr), !llfi_injectfault !7
  %21 = load double, ptr %arrayidx5, align 8, !tbaa !302, !llfi_index !1262
  %fi39 = call double @injectFault4(i64 1237, double %21, i32 32, i32 0, i32 1, i32 0, ptr @load_namestr), !llfi_injectfault !7
  %22 = load double, ptr %arrayidx3, align 8, !tbaa !302, !llfi_index !1263
  %fi40 = call double @injectFault4(i64 1238, double %22, i32 32, i32 0, i32 1, i32 0, ptr @load_namestr), !llfi_injectfault !7
  %arrayidx26 = getelementptr inbounds double, ptr %x, i64 6, !llfi_index !1264
  %23 = load double, ptr %arrayidx26, align 8, !tbaa !302, !llfi_index !1265
  %fi41 = call double @injectFault4(i64 1240, double %23, i32 32, i32 0, i32 1, i32 0, ptr @load_namestr), !llfi_injectfault !7
  %24 = load double, ptr %y, align 8, !tbaa !302, !llfi_index !1266
  %fi42 = call double @injectFault4(i64 1241, double %24, i32 32, i32 0, i32 1, i32 0, ptr @load_namestr), !llfi_injectfault !7
  %25 = load double, ptr %arrayidx6, align 8, !tbaa !302, !llfi_index !1267
  %fi43 = call double @injectFault4(i64 1242, double %25, i32 32, i32 0, i32 1, i32 0, ptr @load_namestr), !llfi_injectfault !7
  %26 = load double, ptr %arrayidx7, align 8, !tbaa !302, !llfi_index !1268
  %fi44 = call double @injectFault4(i64 1243, double %26, i32 32, i32 0, i32 1, i32 0, ptr @load_namestr), !llfi_injectfault !7
  %27 = load double, ptr %arrayidx11, align 8, !tbaa !302, !llfi_index !1269
  %fi45 = call double @injectFault4(i64 1244, double %27, i32 32, i32 0, i32 1, i32 0, ptr @load_namestr), !llfi_injectfault !7
  %28 = load double, ptr %arrayidx9, align 8, !tbaa !302, !llfi_index !1270
  %fi46 = call double @injectFault4(i64 1245, double %28, i32 32, i32 0, i32 1, i32 0, ptr @load_namestr), !llfi_injectfault !7
  %arrayidx32 = getelementptr inbounds double, ptr %y, i64 6, !llfi_index !1271
  %29 = load double, ptr %arrayidx32, align 8, !tbaa !302, !llfi_index !1272
  %fi47 = call double @injectFault4(i64 1247, double %29, i32 32, i32 0, i32 1, i32 0, ptr @load_namestr), !llfi_injectfault !7
  %30 = load double, ptr %z, align 8, !tbaa !302, !llfi_index !1273
  %fi48 = call double @injectFault4(i64 1248, double %30, i32 32, i32 0, i32 1, i32 0, ptr @load_namestr), !llfi_injectfault !7
  %31 = load double, ptr %arrayidx12, align 8, !tbaa !302, !llfi_index !1274
  %fi49 = call double @injectFault4(i64 1249, double %31, i32 32, i32 0, i32 1, i32 0, ptr @load_namestr), !llfi_injectfault !7
  %32 = load double, ptr %arrayidx13, align 8, !tbaa !302, !llfi_index !1275
  %fi50 = call double @injectFault4(i64 1250, double %32, i32 32, i32 0, i32 1, i32 0, ptr @load_namestr), !llfi_injectfault !7
  %33 = load double, ptr %arrayidx17, align 8, !tbaa !302, !llfi_index !1276
  %fi51 = call double @injectFault4(i64 1251, double %33, i32 32, i32 0, i32 1, i32 0, ptr @load_namestr), !llfi_injectfault !7
  %34 = load double, ptr %arrayidx15, align 8, !tbaa !302, !llfi_index !1277
  %fi52 = call double @injectFault4(i64 1252, double %34, i32 32, i32 0, i32 1, i32 0, ptr @load_namestr), !llfi_injectfault !7
  %arrayidx38 = getelementptr inbounds double, ptr %z, i64 6, !llfi_index !1278
  %35 = load double, ptr %arrayidx38, align 8, !tbaa !302, !llfi_index !1279
  %fi53 = call double @injectFault4(i64 1254, double %35, i32 32, i32 0, i32 1, i32 0, ptr @load_namestr), !llfi_injectfault !7
  %arrayidx39 = getelementptr inbounds double, ptr %dvdx, i64 3, !llfi_index !1280
  %arrayidx40 = getelementptr inbounds double, ptr %dvdy, i64 3, !llfi_index !1281
  %arrayidx41 = getelementptr inbounds double, ptr %dvdz, i64 3, !llfi_index !1282
  call void @_Z7VoluDerddddddddddddddddddPdS_S_(double noundef %fi36, double noundef %fi37, double noundef %fi38, double noundef %fi39, double noundef %fi40, double noundef %fi41, double noundef %fi42, double noundef %fi43, double noundef %fi44, double noundef %fi45, double noundef %fi46, double noundef %fi47, double noundef %fi48, double noundef %fi49, double noundef %fi50, double noundef %fi51, double noundef %fi52, double noundef %fi53, ptr noundef nonnull %arrayidx39, ptr noundef nonnull %arrayidx40, ptr noundef nonnull %arrayidx41), !llfi_index !1283
  %36 = load double, ptr %arrayidx2, align 8, !tbaa !302, !llfi_index !1284
  %fi54 = call double @injectFault4(i64 1259, double %36, i32 32, i32 0, i32 1, i32 0, ptr @load_namestr), !llfi_injectfault !7
  %37 = load double, ptr %x, align 8, !tbaa !302, !llfi_index !1285
  %fi55 = call double @injectFault4(i64 1260, double %37, i32 32, i32 0, i32 1, i32 0, ptr @load_namestr), !llfi_injectfault !7
  %38 = load double, ptr %arrayidx, align 8, !tbaa !302, !llfi_index !1286
  %fi56 = call double @injectFault4(i64 1261, double %38, i32 32, i32 0, i32 1, i32 0, ptr @load_namestr), !llfi_injectfault !7
  %39 = load double, ptr %arrayidx26, align 8, !tbaa !302, !llfi_index !1287
  %fi57 = call double @injectFault4(i64 1262, double %39, i32 32, i32 0, i32 1, i32 0, ptr @load_namestr), !llfi_injectfault !7
  %40 = load double, ptr %arrayidx5, align 8, !tbaa !302, !llfi_index !1288
  %fi58 = call double @injectFault4(i64 1263, double %40, i32 32, i32 0, i32 1, i32 0, ptr @load_namestr), !llfi_injectfault !7
  %41 = load double, ptr %arrayidx4, align 8, !tbaa !302, !llfi_index !1289
  %fi59 = call double @injectFault4(i64 1264, double %41, i32 32, i32 0, i32 1, i32 0, ptr @load_namestr), !llfi_injectfault !7
  %42 = load double, ptr %arrayidx8, align 8, !tbaa !302, !llfi_index !1290
  %fi60 = call double @injectFault4(i64 1265, double %42, i32 32, i32 0, i32 1, i32 0, ptr @load_namestr), !llfi_injectfault !7
  %43 = load double, ptr %y, align 8, !tbaa !302, !llfi_index !1291
  %fi61 = call double @injectFault4(i64 1266, double %43, i32 32, i32 0, i32 1, i32 0, ptr @load_namestr), !llfi_injectfault !7
  %44 = load double, ptr %arrayidx6, align 8, !tbaa !302, !llfi_index !1292
  %fi62 = call double @injectFault4(i64 1267, double %44, i32 32, i32 0, i32 1, i32 0, ptr @load_namestr), !llfi_injectfault !7
  %45 = load double, ptr %arrayidx32, align 8, !tbaa !302, !llfi_index !1293
  %fi63 = call double @injectFault4(i64 1268, double %45, i32 32, i32 0, i32 1, i32 0, ptr @load_namestr), !llfi_injectfault !7
  %46 = load double, ptr %arrayidx11, align 8, !tbaa !302, !llfi_index !1294
  %fi64 = call double @injectFault4(i64 1269, double %46, i32 32, i32 0, i32 1, i32 0, ptr @load_namestr), !llfi_injectfault !7
  %47 = load double, ptr %arrayidx10, align 8, !tbaa !302, !llfi_index !1295
  %fi65 = call double @injectFault4(i64 1270, double %47, i32 32, i32 0, i32 1, i32 0, ptr @load_namestr), !llfi_injectfault !7
  %48 = load double, ptr %arrayidx14, align 8, !tbaa !302, !llfi_index !1296
  %fi66 = call double @injectFault4(i64 1271, double %48, i32 32, i32 0, i32 1, i32 0, ptr @load_namestr), !llfi_injectfault !7
  %49 = load double, ptr %z, align 8, !tbaa !302, !llfi_index !1297
  %fi67 = call double @injectFault4(i64 1272, double %49, i32 32, i32 0, i32 1, i32 0, ptr @load_namestr), !llfi_injectfault !7
  %50 = load double, ptr %arrayidx12, align 8, !tbaa !302, !llfi_index !1298
  %fi68 = call double @injectFault4(i64 1273, double %50, i32 32, i32 0, i32 1, i32 0, ptr @load_namestr), !llfi_injectfault !7
  %51 = load double, ptr %arrayidx38, align 8, !tbaa !302, !llfi_index !1299
  %fi69 = call double @injectFault4(i64 1274, double %51, i32 32, i32 0, i32 1, i32 0, ptr @load_namestr), !llfi_injectfault !7
  %52 = load double, ptr %arrayidx17, align 8, !tbaa !302, !llfi_index !1300
  %fi70 = call double @injectFault4(i64 1275, double %52, i32 32, i32 0, i32 1, i32 0, ptr @load_namestr), !llfi_injectfault !7
  %53 = load double, ptr %arrayidx16, align 8, !tbaa !302, !llfi_index !1301
  %fi71 = call double @injectFault4(i64 1276, double %53, i32 32, i32 0, i32 1, i32 0, ptr @load_namestr), !llfi_injectfault !7
  %arrayidx60 = getelementptr inbounds double, ptr %dvdx, i64 2, !llfi_index !1302
  %arrayidx61 = getelementptr inbounds double, ptr %dvdy, i64 2, !llfi_index !1303
  %arrayidx62 = getelementptr inbounds double, ptr %dvdz, i64 2, !llfi_index !1304
  call void @_Z7VoluDerddddddddddddddddddPdS_S_(double noundef %fi54, double noundef %fi55, double noundef %fi56, double noundef %fi57, double noundef %fi58, double noundef %fi59, double noundef %fi60, double noundef %fi61, double noundef %fi62, double noundef %fi63, double noundef %fi64, double noundef %fi65, double noundef %fi66, double noundef %fi67, double noundef %fi68, double noundef %fi69, double noundef %fi70, double noundef %fi71, ptr noundef nonnull %arrayidx60, ptr noundef nonnull %arrayidx61, ptr noundef nonnull %arrayidx62), !llfi_index !1305
  %54 = load double, ptr %arrayidx1, align 8, !tbaa !302, !llfi_index !1306
  %fi72 = call double @injectFault4(i64 1281, double %54, i32 32, i32 0, i32 1, i32 0, ptr @load_namestr), !llfi_injectfault !7
  %55 = load double, ptr %arrayidx2, align 8, !tbaa !302, !llfi_index !1307
  %fi73 = call double @injectFault4(i64 1282, double %55, i32 32, i32 0, i32 1, i32 0, ptr @load_namestr), !llfi_injectfault !7
  %56 = load double, ptr %x, align 8, !tbaa !302, !llfi_index !1308
  %fi74 = call double @injectFault4(i64 1283, double %56, i32 32, i32 0, i32 1, i32 0, ptr @load_namestr), !llfi_injectfault !7
  %57 = load double, ptr %arrayidx4, align 8, !tbaa !302, !llfi_index !1309
  %fi75 = call double @injectFault4(i64 1284, double %57, i32 32, i32 0, i32 1, i32 0, ptr @load_namestr), !llfi_injectfault !7
  %58 = load double, ptr %arrayidx26, align 8, !tbaa !302, !llfi_index !1310
  %fi76 = call double @injectFault4(i64 1285, double %58, i32 32, i32 0, i32 1, i32 0, ptr @load_namestr), !llfi_injectfault !7
  %59 = load double, ptr %arrayidx3, align 8, !tbaa !302, !llfi_index !1311
  %fi77 = call double @injectFault4(i64 1286, double %59, i32 32, i32 0, i32 1, i32 0, ptr @load_namestr), !llfi_injectfault !7
  %60 = load double, ptr %arrayidx7, align 8, !tbaa !302, !llfi_index !1312
  %fi78 = call double @injectFault4(i64 1287, double %60, i32 32, i32 0, i32 1, i32 0, ptr @load_namestr), !llfi_injectfault !7
  %61 = load double, ptr %arrayidx8, align 8, !tbaa !302, !llfi_index !1313
  %fi79 = call double @injectFault4(i64 1288, double %61, i32 32, i32 0, i32 1, i32 0, ptr @load_namestr), !llfi_injectfault !7
  %62 = load double, ptr %y, align 8, !tbaa !302, !llfi_index !1314
  %fi80 = call double @injectFault4(i64 1289, double %62, i32 32, i32 0, i32 1, i32 0, ptr @load_namestr), !llfi_injectfault !7
  %63 = load double, ptr %arrayidx10, align 8, !tbaa !302, !llfi_index !1315
  %fi81 = call double @injectFault4(i64 1290, double %63, i32 32, i32 0, i32 1, i32 0, ptr @load_namestr), !llfi_injectfault !7
  %64 = load double, ptr %arrayidx32, align 8, !tbaa !302, !llfi_index !1316
  %fi82 = call double @injectFault4(i64 1291, double %64, i32 32, i32 0, i32 1, i32 0, ptr @load_namestr), !llfi_injectfault !7
  %65 = load double, ptr %arrayidx9, align 8, !tbaa !302, !llfi_index !1317
  %fi83 = call double @injectFault4(i64 1292, double %65, i32 32, i32 0, i32 1, i32 0, ptr @load_namestr), !llfi_injectfault !7
  %66 = load double, ptr %arrayidx13, align 8, !tbaa !302, !llfi_index !1318
  %fi84 = call double @injectFault4(i64 1293, double %66, i32 32, i32 0, i32 1, i32 0, ptr @load_namestr), !llfi_injectfault !7
  %67 = load double, ptr %arrayidx14, align 8, !tbaa !302, !llfi_index !1319
  %fi85 = call double @injectFault4(i64 1294, double %67, i32 32, i32 0, i32 1, i32 0, ptr @load_namestr), !llfi_injectfault !7
  %68 = load double, ptr %z, align 8, !tbaa !302, !llfi_index !1320
  %fi86 = call double @injectFault4(i64 1295, double %68, i32 32, i32 0, i32 1, i32 0, ptr @load_namestr), !llfi_injectfault !7
  %69 = load double, ptr %arrayidx16, align 8, !tbaa !302, !llfi_index !1321
  %fi87 = call double @injectFault4(i64 1296, double %69, i32 32, i32 0, i32 1, i32 0, ptr @load_namestr), !llfi_injectfault !7
  %70 = load double, ptr %arrayidx38, align 8, !tbaa !302, !llfi_index !1322
  %fi88 = call double @injectFault4(i64 1297, double %70, i32 32, i32 0, i32 1, i32 0, ptr @load_namestr), !llfi_injectfault !7
  %71 = load double, ptr %arrayidx15, align 8, !tbaa !302, !llfi_index !1323
  %fi89 = call double @injectFault4(i64 1298, double %71, i32 32, i32 0, i32 1, i32 0, ptr @load_namestr), !llfi_injectfault !7
  %arrayidx81 = getelementptr inbounds double, ptr %dvdx, i64 1, !llfi_index !1324
  %arrayidx82 = getelementptr inbounds double, ptr %dvdy, i64 1, !llfi_index !1325
  %arrayidx83 = getelementptr inbounds double, ptr %dvdz, i64 1, !llfi_index !1326
  call void @_Z7VoluDerddddddddddddddddddPdS_S_(double noundef %fi72, double noundef %fi73, double noundef %fi74, double noundef %fi75, double noundef %fi76, double noundef %fi77, double noundef %fi78, double noundef %fi79, double noundef %fi80, double noundef %fi81, double noundef %fi82, double noundef %fi83, double noundef %fi84, double noundef %fi85, double noundef %fi86, double noundef %fi87, double noundef %fi88, double noundef %fi89, ptr noundef nonnull %arrayidx81, ptr noundef nonnull %arrayidx82, ptr noundef nonnull %arrayidx83), !llfi_index !1327
  %72 = load double, ptr %arrayidx5, align 8, !tbaa !302, !llfi_index !1328
  %fi90 = call double @injectFault4(i64 1303, double %72, i32 32, i32 0, i32 1, i32 0, ptr @load_namestr), !llfi_injectfault !7
  %73 = load double, ptr %arrayidx26, align 8, !tbaa !302, !llfi_index !1329
  %fi91 = call double @injectFault4(i64 1304, double %73, i32 32, i32 0, i32 1, i32 0, ptr @load_namestr), !llfi_injectfault !7
  %74 = load double, ptr %arrayidx4, align 8, !tbaa !302, !llfi_index !1330
  %fi92 = call double @injectFault4(i64 1305, double %74, i32 32, i32 0, i32 1, i32 0, ptr @load_namestr), !llfi_injectfault !7
  %75 = load double, ptr %x, align 8, !tbaa !302, !llfi_index !1331
  %fi93 = call double @injectFault4(i64 1306, double %75, i32 32, i32 0, i32 1, i32 0, ptr @load_namestr), !llfi_injectfault !7
  %76 = load double, ptr %arrayidx2, align 8, !tbaa !302, !llfi_index !1332
  %fi94 = call double @injectFault4(i64 1307, double %76, i32 32, i32 0, i32 1, i32 0, ptr @load_namestr), !llfi_injectfault !7
  %77 = load double, ptr %arrayidx, align 8, !tbaa !302, !llfi_index !1333
  %fi95 = call double @injectFault4(i64 1308, double %77, i32 32, i32 0, i32 1, i32 0, ptr @load_namestr), !llfi_injectfault !7
  %78 = load double, ptr %arrayidx11, align 8, !tbaa !302, !llfi_index !1334
  %fi96 = call double @injectFault4(i64 1309, double %78, i32 32, i32 0, i32 1, i32 0, ptr @load_namestr), !llfi_injectfault !7
  %79 = load double, ptr %arrayidx32, align 8, !tbaa !302, !llfi_index !1335
  %fi97 = call double @injectFault4(i64 1310, double %79, i32 32, i32 0, i32 1, i32 0, ptr @load_namestr), !llfi_injectfault !7
  %80 = load double, ptr %arrayidx10, align 8, !tbaa !302, !llfi_index !1336
  %fi98 = call double @injectFault4(i64 1311, double %80, i32 32, i32 0, i32 1, i32 0, ptr @load_namestr), !llfi_injectfault !7
  %81 = load double, ptr %y, align 8, !tbaa !302, !llfi_index !1337
  %fi99 = call double @injectFault4(i64 1312, double %81, i32 32, i32 0, i32 1, i32 0, ptr @load_namestr), !llfi_injectfault !7
  %82 = load double, ptr %arrayidx8, align 8, !tbaa !302, !llfi_index !1338
  %fi100 = call double @injectFault4(i64 1313, double %82, i32 32, i32 0, i32 1, i32 0, ptr @load_namestr), !llfi_injectfault !7
  %83 = load double, ptr %arrayidx6, align 8, !tbaa !302, !llfi_index !1339
  %fi101 = call double @injectFault4(i64 1314, double %83, i32 32, i32 0, i32 1, i32 0, ptr @load_namestr), !llfi_injectfault !7
  %84 = load double, ptr %arrayidx17, align 8, !tbaa !302, !llfi_index !1340
  %fi102 = call double @injectFault4(i64 1315, double %84, i32 32, i32 0, i32 1, i32 0, ptr @load_namestr), !llfi_injectfault !7
  %85 = load double, ptr %arrayidx38, align 8, !tbaa !302, !llfi_index !1341
  %fi103 = call double @injectFault4(i64 1316, double %85, i32 32, i32 0, i32 1, i32 0, ptr @load_namestr), !llfi_injectfault !7
  %86 = load double, ptr %arrayidx16, align 8, !tbaa !302, !llfi_index !1342
  %fi104 = call double @injectFault4(i64 1317, double %86, i32 32, i32 0, i32 1, i32 0, ptr @load_namestr), !llfi_injectfault !7
  %87 = load double, ptr %z, align 8, !tbaa !302, !llfi_index !1343
  %fi105 = call double @injectFault4(i64 1318, double %87, i32 32, i32 0, i32 1, i32 0, ptr @load_namestr), !llfi_injectfault !7
  %88 = load double, ptr %arrayidx14, align 8, !tbaa !302, !llfi_index !1344
  %fi106 = call double @injectFault4(i64 1319, double %88, i32 32, i32 0, i32 1, i32 0, ptr @load_namestr), !llfi_injectfault !7
  %89 = load double, ptr %arrayidx12, align 8, !tbaa !302, !llfi_index !1345
  %fi107 = call double @injectFault4(i64 1320, double %89, i32 32, i32 0, i32 1, i32 0, ptr @load_namestr), !llfi_injectfault !7
  %arrayidx102 = getelementptr inbounds double, ptr %dvdx, i64 4, !llfi_index !1346
  %arrayidx103 = getelementptr inbounds double, ptr %dvdy, i64 4, !llfi_index !1347
  %arrayidx104 = getelementptr inbounds double, ptr %dvdz, i64 4, !llfi_index !1348
  call void @_Z7VoluDerddddddddddddddddddPdS_S_(double noundef %fi90, double noundef %fi91, double noundef %fi92, double noundef %fi93, double noundef %fi94, double noundef %fi95, double noundef %fi96, double noundef %fi97, double noundef %fi98, double noundef %fi99, double noundef %fi100, double noundef %fi101, double noundef %fi102, double noundef %fi103, double noundef %fi104, double noundef %fi105, double noundef %fi106, double noundef %fi107, ptr noundef nonnull %arrayidx102, ptr noundef nonnull %arrayidx103, ptr noundef nonnull %arrayidx104), !llfi_index !1349
  %90 = load double, ptr %arrayidx3, align 8, !tbaa !302, !llfi_index !1350
  %fi = call double @injectFault4(i64 1325, double %90, i32 32, i32 0, i32 1, i32 0, ptr @load_namestr), !llfi_injectfault !7
  %91 = load double, ptr %arrayidx5, align 8, !tbaa !302, !llfi_index !1351
  %fi1 = call double @injectFault4(i64 1326, double %91, i32 32, i32 0, i32 1, i32 0, ptr @load_namestr), !llfi_injectfault !7
  %92 = load double, ptr %arrayidx26, align 8, !tbaa !302, !llfi_index !1352
  %fi2 = call double @injectFault4(i64 1327, double %92, i32 32, i32 0, i32 1, i32 0, ptr @load_namestr), !llfi_injectfault !7
  %93 = load double, ptr %arrayidx, align 8, !tbaa !302, !llfi_index !1353
  %fi3 = call double @injectFault4(i64 1328, double %93, i32 32, i32 0, i32 1, i32 0, ptr @load_namestr), !llfi_injectfault !7
  %94 = load double, ptr %x, align 8, !tbaa !302, !llfi_index !1354
  %fi4 = call double @injectFault4(i64 1329, double %94, i32 32, i32 0, i32 1, i32 0, ptr @load_namestr), !llfi_injectfault !7
  %95 = load double, ptr %arrayidx1, align 8, !tbaa !302, !llfi_index !1355
  %fi5 = call double @injectFault4(i64 1330, double %95, i32 32, i32 0, i32 1, i32 0, ptr @load_namestr), !llfi_injectfault !7
  %96 = load double, ptr %arrayidx9, align 8, !tbaa !302, !llfi_index !1356
  %fi6 = call double @injectFault4(i64 1331, double %96, i32 32, i32 0, i32 1, i32 0, ptr @load_namestr), !llfi_injectfault !7
  %97 = load double, ptr %arrayidx11, align 8, !tbaa !302, !llfi_index !1357
  %fi7 = call double @injectFault4(i64 1332, double %97, i32 32, i32 0, i32 1, i32 0, ptr @load_namestr), !llfi_injectfault !7
  %98 = load double, ptr %arrayidx32, align 8, !tbaa !302, !llfi_index !1358
  %fi8 = call double @injectFault4(i64 1333, double %98, i32 32, i32 0, i32 1, i32 0, ptr @load_namestr), !llfi_injectfault !7
  %99 = load double, ptr %arrayidx6, align 8, !tbaa !302, !llfi_index !1359
  %fi9 = call double @injectFault4(i64 1334, double %99, i32 32, i32 0, i32 1, i32 0, ptr @load_namestr), !llfi_injectfault !7
  %100 = load double, ptr %y, align 8, !tbaa !302, !llfi_index !1360
  %fi10 = call double @injectFault4(i64 1335, double %100, i32 32, i32 0, i32 1, i32 0, ptr @load_namestr), !llfi_injectfault !7
  %101 = load double, ptr %arrayidx7, align 8, !tbaa !302, !llfi_index !1361
  %fi11 = call double @injectFault4(i64 1336, double %101, i32 32, i32 0, i32 1, i32 0, ptr @load_namestr), !llfi_injectfault !7
  %102 = load double, ptr %arrayidx15, align 8, !tbaa !302, !llfi_index !1362
  %fi12 = call double @injectFault4(i64 1337, double %102, i32 32, i32 0, i32 1, i32 0, ptr @load_namestr), !llfi_injectfault !7
  %103 = load double, ptr %arrayidx17, align 8, !tbaa !302, !llfi_index !1363
  %fi13 = call double @injectFault4(i64 1338, double %103, i32 32, i32 0, i32 1, i32 0, ptr @load_namestr), !llfi_injectfault !7
  %104 = load double, ptr %arrayidx38, align 8, !tbaa !302, !llfi_index !1364
  %fi14 = call double @injectFault4(i64 1339, double %104, i32 32, i32 0, i32 1, i32 0, ptr @load_namestr), !llfi_injectfault !7
  %105 = load double, ptr %arrayidx12, align 8, !tbaa !302, !llfi_index !1365
  %fi15 = call double @injectFault4(i64 1340, double %105, i32 32, i32 0, i32 1, i32 0, ptr @load_namestr), !llfi_injectfault !7
  %106 = load double, ptr %z, align 8, !tbaa !302, !llfi_index !1366
  %fi16 = call double @injectFault4(i64 1341, double %106, i32 32, i32 0, i32 1, i32 0, ptr @load_namestr), !llfi_injectfault !7
  %107 = load double, ptr %arrayidx13, align 8, !tbaa !302, !llfi_index !1367
  %fi17 = call double @injectFault4(i64 1342, double %107, i32 32, i32 0, i32 1, i32 0, ptr @load_namestr), !llfi_injectfault !7
  %arrayidx123 = getelementptr inbounds double, ptr %dvdx, i64 5, !llfi_index !1368
  %arrayidx124 = getelementptr inbounds double, ptr %dvdy, i64 5, !llfi_index !1369
  %arrayidx125 = getelementptr inbounds double, ptr %dvdz, i64 5, !llfi_index !1370
  call void @_Z7VoluDerddddddddddddddddddPdS_S_(double noundef %fi, double noundef %fi1, double noundef %fi2, double noundef %fi3, double noundef %fi4, double noundef %fi5, double noundef %fi6, double noundef %fi7, double noundef %fi8, double noundef %fi9, double noundef %fi10, double noundef %fi11, double noundef %fi12, double noundef %fi13, double noundef %fi14, double noundef %fi15, double noundef %fi16, double noundef %fi17, ptr noundef nonnull %arrayidx123, ptr noundef nonnull %arrayidx124, ptr noundef nonnull %arrayidx125), !llfi_index !1371
  %108 = load double, ptr %arrayidx4, align 8, !tbaa !302, !llfi_index !1372
  %fi108 = call double @injectFault4(i64 1347, double %108, i32 32, i32 0, i32 1, i32 0, ptr @load_namestr), !llfi_injectfault !7
  %109 = load double, ptr %arrayidx3, align 8, !tbaa !302, !llfi_index !1373
  %fi109 = call double @injectFault4(i64 1348, double %109, i32 32, i32 0, i32 1, i32 0, ptr @load_namestr), !llfi_injectfault !7
  %110 = load double, ptr %arrayidx5, align 8, !tbaa !302, !llfi_index !1374
  %fi110 = call double @injectFault4(i64 1349, double %110, i32 32, i32 0, i32 1, i32 0, ptr @load_namestr), !llfi_injectfault !7
  %111 = load double, ptr %arrayidx1, align 8, !tbaa !302, !llfi_index !1375
  %fi111 = call double @injectFault4(i64 1350, double %111, i32 32, i32 0, i32 1, i32 0, ptr @load_namestr), !llfi_injectfault !7
  %112 = load double, ptr %arrayidx, align 8, !tbaa !302, !llfi_index !1376
  %fi112 = call double @injectFault4(i64 1351, double %112, i32 32, i32 0, i32 1, i32 0, ptr @load_namestr), !llfi_injectfault !7
  %113 = load double, ptr %arrayidx2, align 8, !tbaa !302, !llfi_index !1377
  %fi113 = call double @injectFault4(i64 1352, double %113, i32 32, i32 0, i32 1, i32 0, ptr @load_namestr), !llfi_injectfault !7
  %114 = load double, ptr %arrayidx10, align 8, !tbaa !302, !llfi_index !1378
  %fi114 = call double @injectFault4(i64 1353, double %114, i32 32, i32 0, i32 1, i32 0, ptr @load_namestr), !llfi_injectfault !7
  %115 = load double, ptr %arrayidx9, align 8, !tbaa !302, !llfi_index !1379
  %fi115 = call double @injectFault4(i64 1354, double %115, i32 32, i32 0, i32 1, i32 0, ptr @load_namestr), !llfi_injectfault !7
  %116 = load double, ptr %arrayidx11, align 8, !tbaa !302, !llfi_index !1380
  %fi116 = call double @injectFault4(i64 1355, double %116, i32 32, i32 0, i32 1, i32 0, ptr @load_namestr), !llfi_injectfault !7
  %117 = load double, ptr %arrayidx7, align 8, !tbaa !302, !llfi_index !1381
  %fi117 = call double @injectFault4(i64 1356, double %117, i32 32, i32 0, i32 1, i32 0, ptr @load_namestr), !llfi_injectfault !7
  %118 = load double, ptr %arrayidx6, align 8, !tbaa !302, !llfi_index !1382
  %fi118 = call double @injectFault4(i64 1357, double %118, i32 32, i32 0, i32 1, i32 0, ptr @load_namestr), !llfi_injectfault !7
  %119 = load double, ptr %arrayidx8, align 8, !tbaa !302, !llfi_index !1383
  %fi119 = call double @injectFault4(i64 1358, double %119, i32 32, i32 0, i32 1, i32 0, ptr @load_namestr), !llfi_injectfault !7
  %120 = load double, ptr %arrayidx16, align 8, !tbaa !302, !llfi_index !1384
  %fi120 = call double @injectFault4(i64 1359, double %120, i32 32, i32 0, i32 1, i32 0, ptr @load_namestr), !llfi_injectfault !7
  %121 = load double, ptr %arrayidx15, align 8, !tbaa !302, !llfi_index !1385
  %fi121 = call double @injectFault4(i64 1360, double %121, i32 32, i32 0, i32 1, i32 0, ptr @load_namestr), !llfi_injectfault !7
  %122 = load double, ptr %arrayidx17, align 8, !tbaa !302, !llfi_index !1386
  %fi122 = call double @injectFault4(i64 1361, double %122, i32 32, i32 0, i32 1, i32 0, ptr @load_namestr), !llfi_injectfault !7
  %123 = load double, ptr %arrayidx13, align 8, !tbaa !302, !llfi_index !1387
  %fi123 = call double @injectFault4(i64 1362, double %123, i32 32, i32 0, i32 1, i32 0, ptr @load_namestr), !llfi_injectfault !7
  %124 = load double, ptr %arrayidx12, align 8, !tbaa !302, !llfi_index !1388
  %fi124 = call double @injectFault4(i64 1363, double %124, i32 32, i32 0, i32 1, i32 0, ptr @load_namestr), !llfi_injectfault !7
  %125 = load double, ptr %arrayidx14, align 8, !tbaa !302, !llfi_index !1389
  %fi125 = call double @injectFault4(i64 1364, double %125, i32 32, i32 0, i32 1, i32 0, ptr @load_namestr), !llfi_injectfault !7
  %arrayidx144 = getelementptr inbounds double, ptr %dvdx, i64 6, !llfi_index !1390
  %arrayidx145 = getelementptr inbounds double, ptr %dvdy, i64 6, !llfi_index !1391
  %arrayidx146 = getelementptr inbounds double, ptr %dvdz, i64 6, !llfi_index !1392
  call void @_Z7VoluDerddddddddddddddddddPdS_S_(double noundef %fi108, double noundef %fi109, double noundef %fi110, double noundef %fi111, double noundef %fi112, double noundef %fi113, double noundef %fi114, double noundef %fi115, double noundef %fi116, double noundef %fi117, double noundef %fi118, double noundef %fi119, double noundef %fi120, double noundef %fi121, double noundef %fi122, double noundef %fi123, double noundef %fi124, double noundef %fi125, ptr noundef nonnull %arrayidx144, ptr noundef nonnull %arrayidx145, ptr noundef nonnull %arrayidx146), !llfi_index !1393
  %126 = load double, ptr %arrayidx26, align 8, !tbaa !302, !llfi_index !1394
  %fi126 = call double @injectFault4(i64 1369, double %126, i32 32, i32 0, i32 1, i32 0, ptr @load_namestr), !llfi_injectfault !7
  %127 = load double, ptr %arrayidx4, align 8, !tbaa !302, !llfi_index !1395
  %fi127 = call double @injectFault4(i64 1370, double %127, i32 32, i32 0, i32 1, i32 0, ptr @load_namestr), !llfi_injectfault !7
  %128 = load double, ptr %arrayidx3, align 8, !tbaa !302, !llfi_index !1396
  %fi128 = call double @injectFault4(i64 1371, double %128, i32 32, i32 0, i32 1, i32 0, ptr @load_namestr), !llfi_injectfault !7
  %129 = load double, ptr %arrayidx2, align 8, !tbaa !302, !llfi_index !1397
  %fi129 = call double @injectFault4(i64 1372, double %129, i32 32, i32 0, i32 1, i32 0, ptr @load_namestr), !llfi_injectfault !7
  %130 = load double, ptr %arrayidx1, align 8, !tbaa !302, !llfi_index !1398
  %fi130 = call double @injectFault4(i64 1373, double %130, i32 32, i32 0, i32 1, i32 0, ptr @load_namestr), !llfi_injectfault !7
  %131 = load double, ptr %x, align 8, !tbaa !302, !llfi_index !1399
  %fi131 = call double @injectFault4(i64 1374, double %131, i32 32, i32 0, i32 1, i32 0, ptr @load_namestr), !llfi_injectfault !7
  %132 = load double, ptr %arrayidx32, align 8, !tbaa !302, !llfi_index !1400
  %fi132 = call double @injectFault4(i64 1375, double %132, i32 32, i32 0, i32 1, i32 0, ptr @load_namestr), !llfi_injectfault !7
  %133 = load double, ptr %arrayidx10, align 8, !tbaa !302, !llfi_index !1401
  %fi133 = call double @injectFault4(i64 1376, double %133, i32 32, i32 0, i32 1, i32 0, ptr @load_namestr), !llfi_injectfault !7
  %134 = load double, ptr %arrayidx9, align 8, !tbaa !302, !llfi_index !1402
  %fi134 = call double @injectFault4(i64 1377, double %134, i32 32, i32 0, i32 1, i32 0, ptr @load_namestr), !llfi_injectfault !7
  %135 = load double, ptr %arrayidx8, align 8, !tbaa !302, !llfi_index !1403
  %fi135 = call double @injectFault4(i64 1378, double %135, i32 32, i32 0, i32 1, i32 0, ptr @load_namestr), !llfi_injectfault !7
  %136 = load double, ptr %arrayidx7, align 8, !tbaa !302, !llfi_index !1404
  %fi136 = call double @injectFault4(i64 1379, double %136, i32 32, i32 0, i32 1, i32 0, ptr @load_namestr), !llfi_injectfault !7
  %137 = load double, ptr %y, align 8, !tbaa !302, !llfi_index !1405
  %fi137 = call double @injectFault4(i64 1380, double %137, i32 32, i32 0, i32 1, i32 0, ptr @load_namestr), !llfi_injectfault !7
  %138 = load double, ptr %arrayidx38, align 8, !tbaa !302, !llfi_index !1406
  %fi138 = call double @injectFault4(i64 1381, double %138, i32 32, i32 0, i32 1, i32 0, ptr @load_namestr), !llfi_injectfault !7
  %139 = load double, ptr %arrayidx16, align 8, !tbaa !302, !llfi_index !1407
  %fi139 = call double @injectFault4(i64 1382, double %139, i32 32, i32 0, i32 1, i32 0, ptr @load_namestr), !llfi_injectfault !7
  %140 = load double, ptr %arrayidx15, align 8, !tbaa !302, !llfi_index !1408
  %fi140 = call double @injectFault4(i64 1383, double %140, i32 32, i32 0, i32 1, i32 0, ptr @load_namestr), !llfi_injectfault !7
  %141 = load double, ptr %arrayidx14, align 8, !tbaa !302, !llfi_index !1409
  %fi141 = call double @injectFault4(i64 1384, double %141, i32 32, i32 0, i32 1, i32 0, ptr @load_namestr), !llfi_injectfault !7
  %142 = load double, ptr %arrayidx13, align 8, !tbaa !302, !llfi_index !1410
  %fi142 = call double @injectFault4(i64 1385, double %142, i32 32, i32 0, i32 1, i32 0, ptr @load_namestr), !llfi_injectfault !7
  %143 = load double, ptr %z, align 8, !tbaa !302, !llfi_index !1411
  %fi143 = call double @injectFault4(i64 1386, double %143, i32 32, i32 0, i32 1, i32 0, ptr @load_namestr), !llfi_injectfault !7
  %arrayidx165 = getelementptr inbounds double, ptr %dvdx, i64 7, !llfi_index !1412
  %arrayidx166 = getelementptr inbounds double, ptr %dvdy, i64 7, !llfi_index !1413
  %arrayidx167 = getelementptr inbounds double, ptr %dvdz, i64 7, !llfi_index !1414
  call void @_Z7VoluDerddddddddddddddddddPdS_S_(double noundef %fi126, double noundef %fi127, double noundef %fi128, double noundef %fi129, double noundef %fi130, double noundef %fi131, double noundef %fi132, double noundef %fi133, double noundef %fi134, double noundef %fi135, double noundef %fi136, double noundef %fi137, double noundef %fi138, double noundef %fi139, double noundef %fi140, double noundef %fi141, double noundef %fi142, double noundef %fi143, ptr noundef nonnull %arrayidx165, ptr noundef nonnull %arrayidx166, ptr noundef nonnull %arrayidx167), !llfi_index !1415
  ret void, !llfi_index !1416
}

; Function Attrs: argmemonly mustprogress nofree noinline nosync nounwind willreturn uwtable
define dso_local void @_Z24CalcElemFBHourglassForcePdS_S_S_S_S_S_S_S_S_S_dS_S_S_(ptr nocapture noundef readonly %xd, ptr nocapture noundef readonly %yd, ptr nocapture noundef readonly %zd, ptr nocapture noundef readonly %hourgam0, ptr nocapture noundef readonly %hourgam1, ptr nocapture noundef readonly %hourgam2, ptr nocapture noundef readonly %hourgam3, ptr nocapture noundef readonly %hourgam4, ptr nocapture noundef readonly %hourgam5, ptr nocapture noundef readonly %hourgam6, ptr nocapture noundef readonly %hourgam7, double noundef %coefficient, ptr nocapture noundef writeonly %hgfx, ptr nocapture noundef writeonly %hgfy, ptr nocapture noundef writeonly %hgfz) local_unnamed_addr #7 {
entry:
  %0 = load double, ptr %hourgam0, align 8, !tbaa !302, !llfi_index !1417
  %fi88 = call double @injectFault4(i64 1392, double %0, i32 32, i32 0, i32 1, i32 0, ptr @load_namestr), !llfi_injectfault !7
  %1 = load double, ptr %xd, align 8, !tbaa !302, !llfi_index !1418
  %fi89 = call double @injectFault4(i64 1393, double %1, i32 32, i32 0, i32 1, i32 0, ptr @load_namestr), !llfi_injectfault !7
  %2 = load double, ptr %hourgam1, align 8, !tbaa !302, !llfi_index !1419
  %fi90 = call double @injectFault4(i64 1394, double %2, i32 32, i32 0, i32 1, i32 0, ptr @load_namestr), !llfi_injectfault !7
  %arrayidx4 = getelementptr inbounds double, ptr %xd, i64 1, !llfi_index !1420
  %3 = load double, ptr %arrayidx4, align 8, !tbaa !302, !llfi_index !1421
  %fi91 = call double @injectFault4(i64 1396, double %3, i32 32, i32 0, i32 1, i32 0, ptr @load_namestr), !llfi_injectfault !7
  %mul5 = fmul double %fi90, %fi91, !llfi_index !1422
  %fi92 = call double @injectFault4(i64 1397, double %mul5, i32 18, i32 0, i32 1, i32 0, ptr @fmul_namestr), !llfi_injectfault !7
  %4 = call double @llvm.fmuladd.f64(double %fi88, double %fi89, double %fi92), !llfi_index !1423
  %5 = load double, ptr %hourgam2, align 8, !tbaa !302, !llfi_index !1424
  %fi93 = call double @injectFault4(i64 1399, double %5, i32 32, i32 0, i32 1, i32 0, ptr @load_namestr), !llfi_injectfault !7
  %arrayidx8 = getelementptr inbounds double, ptr %xd, i64 2, !llfi_index !1425
  %6 = load double, ptr %arrayidx8, align 8, !tbaa !302, !llfi_index !1426
  %fi94 = call double @injectFault4(i64 1401, double %6, i32 32, i32 0, i32 1, i32 0, ptr @load_namestr), !llfi_injectfault !7
  %7 = call double @llvm.fmuladd.f64(double %fi93, double %fi94, double %4), !llfi_index !1427
  %8 = load double, ptr %hourgam3, align 8, !tbaa !302, !llfi_index !1428
  %fi95 = call double @injectFault4(i64 1403, double %8, i32 32, i32 0, i32 1, i32 0, ptr @load_namestr), !llfi_injectfault !7
  %arrayidx11 = getelementptr inbounds double, ptr %xd, i64 3, !llfi_index !1429
  %9 = load double, ptr %arrayidx11, align 8, !tbaa !302, !llfi_index !1430
  %fi96 = call double @injectFault4(i64 1405, double %9, i32 32, i32 0, i32 1, i32 0, ptr @load_namestr), !llfi_injectfault !7
  %10 = call double @llvm.fmuladd.f64(double %fi95, double %fi96, double %7), !llfi_index !1431
  %11 = load double, ptr %hourgam4, align 8, !tbaa !302, !llfi_index !1432
  %fi97 = call double @injectFault4(i64 1407, double %11, i32 32, i32 0, i32 1, i32 0, ptr @load_namestr), !llfi_injectfault !7
  %arrayidx14 = getelementptr inbounds double, ptr %xd, i64 4, !llfi_index !1433
  %12 = load double, ptr %arrayidx14, align 8, !tbaa !302, !llfi_index !1434
  %fi98 = call double @injectFault4(i64 1409, double %12, i32 32, i32 0, i32 1, i32 0, ptr @load_namestr), !llfi_injectfault !7
  %13 = call double @llvm.fmuladd.f64(double %fi97, double %fi98, double %10), !llfi_index !1435
  %14 = load double, ptr %hourgam5, align 8, !tbaa !302, !llfi_index !1436
  %fi99 = call double @injectFault4(i64 1411, double %14, i32 32, i32 0, i32 1, i32 0, ptr @load_namestr), !llfi_injectfault !7
  %arrayidx17 = getelementptr inbounds double, ptr %xd, i64 5, !llfi_index !1437
  %15 = load double, ptr %arrayidx17, align 8, !tbaa !302, !llfi_index !1438
  %fi100 = call double @injectFault4(i64 1413, double %15, i32 32, i32 0, i32 1, i32 0, ptr @load_namestr), !llfi_injectfault !7
  %16 = call double @llvm.fmuladd.f64(double %fi99, double %fi100, double %13), !llfi_index !1439
  %17 = load double, ptr %hourgam6, align 8, !tbaa !302, !llfi_index !1440
  %fi101 = call double @injectFault4(i64 1415, double %17, i32 32, i32 0, i32 1, i32 0, ptr @load_namestr), !llfi_injectfault !7
  %arrayidx20 = getelementptr inbounds double, ptr %xd, i64 6, !llfi_index !1441
  %18 = load double, ptr %arrayidx20, align 8, !tbaa !302, !llfi_index !1442
  %fi102 = call double @injectFault4(i64 1417, double %18, i32 32, i32 0, i32 1, i32 0, ptr @load_namestr), !llfi_injectfault !7
  %19 = call double @llvm.fmuladd.f64(double %fi101, double %fi102, double %16), !llfi_index !1443
  %20 = load double, ptr %hourgam7, align 8, !tbaa !302, !llfi_index !1444
  %fi103 = call double @injectFault4(i64 1419, double %20, i32 32, i32 0, i32 1, i32 0, ptr @load_namestr), !llfi_injectfault !7
  %arrayidx23 = getelementptr inbounds double, ptr %xd, i64 7, !llfi_index !1445
  %21 = load double, ptr %arrayidx23, align 8, !tbaa !302, !llfi_index !1446
  %fi104 = call double @injectFault4(i64 1421, double %21, i32 32, i32 0, i32 1, i32 0, ptr @load_namestr), !llfi_injectfault !7
  %22 = call double @llvm.fmuladd.f64(double %fi103, double %fi104, double %19), !llfi_index !1447
  %arrayidx25 = getelementptr inbounds double, ptr %hourgam0, i64 1, !llfi_index !1448
  %23 = load double, ptr %arrayidx25, align 8, !tbaa !302, !llfi_index !1449
  %fi87 = call double @injectFault4(i64 1424, double %23, i32 32, i32 0, i32 1, i32 0, ptr @load_namestr), !llfi_injectfault !7
  %arrayidx28 = getelementptr inbounds double, ptr %hourgam1, i64 1, !llfi_index !1450
  %24 = load double, ptr %arrayidx28, align 8, !tbaa !302, !llfi_index !1451
  %fi85 = call double @injectFault4(i64 1426, double %24, i32 32, i32 0, i32 1, i32 0, ptr @load_namestr), !llfi_injectfault !7
  %mul30 = fmul double %fi91, %fi85, !llfi_index !1452
  %fi86 = call double @injectFault4(i64 1427, double %mul30, i32 18, i32 0, i32 1, i32 0, ptr @fmul_namestr), !llfi_injectfault !7
  %25 = call double @llvm.fmuladd.f64(double %fi87, double %fi89, double %fi86), !llfi_index !1453
  %arrayidx32 = getelementptr inbounds double, ptr %hourgam2, i64 1, !llfi_index !1454
  %26 = load double, ptr %arrayidx32, align 8, !tbaa !302, !llfi_index !1455
  %fi105 = call double @injectFault4(i64 1430, double %26, i32 32, i32 0, i32 1, i32 0, ptr @load_namestr), !llfi_injectfault !7
  %27 = call double @llvm.fmuladd.f64(double %fi105, double %fi94, double %25), !llfi_index !1456
  %arrayidx35 = getelementptr inbounds double, ptr %hourgam3, i64 1, !llfi_index !1457
  %28 = load double, ptr %arrayidx35, align 8, !tbaa !302, !llfi_index !1458
  %fi106 = call double @injectFault4(i64 1433, double %28, i32 32, i32 0, i32 1, i32 0, ptr @load_namestr), !llfi_injectfault !7
  %29 = call double @llvm.fmuladd.f64(double %fi106, double %fi96, double %27), !llfi_index !1459
  %arrayidx38 = getelementptr inbounds double, ptr %hourgam4, i64 1, !llfi_index !1460
  %30 = load double, ptr %arrayidx38, align 8, !tbaa !302, !llfi_index !1461
  %fi107 = call double @injectFault4(i64 1436, double %30, i32 32, i32 0, i32 1, i32 0, ptr @load_namestr), !llfi_injectfault !7
  %31 = call double @llvm.fmuladd.f64(double %fi107, double %fi98, double %29), !llfi_index !1462
  %arrayidx41 = getelementptr inbounds double, ptr %hourgam5, i64 1, !llfi_index !1463
  %32 = load double, ptr %arrayidx41, align 8, !tbaa !302, !llfi_index !1464
  %fi108 = call double @injectFault4(i64 1439, double %32, i32 32, i32 0, i32 1, i32 0, ptr @load_namestr), !llfi_injectfault !7
  %33 = call double @llvm.fmuladd.f64(double %fi108, double %fi100, double %31), !llfi_index !1465
  %arrayidx44 = getelementptr inbounds double, ptr %hourgam6, i64 1, !llfi_index !1466
  %34 = load double, ptr %arrayidx44, align 8, !tbaa !302, !llfi_index !1467
  %fi109 = call double @injectFault4(i64 1442, double %34, i32 32, i32 0, i32 1, i32 0, ptr @load_namestr), !llfi_injectfault !7
  %35 = call double @llvm.fmuladd.f64(double %fi109, double %fi102, double %33), !llfi_index !1468
  %arrayidx47 = getelementptr inbounds double, ptr %hourgam7, i64 1, !llfi_index !1469
  %36 = load double, ptr %arrayidx47, align 8, !tbaa !302, !llfi_index !1470
  %fi110 = call double @injectFault4(i64 1445, double %36, i32 32, i32 0, i32 1, i32 0, ptr @load_namestr), !llfi_injectfault !7
  %37 = call double @llvm.fmuladd.f64(double %fi110, double %fi104, double %35), !llfi_index !1471
  %arrayidx50 = getelementptr inbounds double, ptr %hourgam0, i64 2, !llfi_index !1472
  %38 = load double, ptr %arrayidx50, align 8, !tbaa !302, !llfi_index !1473
  %fi111 = call double @injectFault4(i64 1448, double %38, i32 32, i32 0, i32 1, i32 0, ptr @load_namestr), !llfi_injectfault !7
  %arrayidx53 = getelementptr inbounds double, ptr %hourgam1, i64 2, !llfi_index !1474
  %39 = load double, ptr %arrayidx53, align 8, !tbaa !302, !llfi_index !1475
  %fi112 = call double @injectFault4(i64 1450, double %39, i32 32, i32 0, i32 1, i32 0, ptr @load_namestr), !llfi_injectfault !7
  %mul55 = fmul double %fi91, %fi112, !llfi_index !1476
  %fi113 = call double @injectFault4(i64 1451, double %mul55, i32 18, i32 0, i32 1, i32 0, ptr @fmul_namestr), !llfi_injectfault !7
  %40 = call double @llvm.fmuladd.f64(double %fi111, double %fi89, double %fi113), !llfi_index !1477
  %arrayidx57 = getelementptr inbounds double, ptr %hourgam2, i64 2, !llfi_index !1478
  %41 = load double, ptr %arrayidx57, align 8, !tbaa !302, !llfi_index !1479
  %fi114 = call double @injectFault4(i64 1454, double %41, i32 32, i32 0, i32 1, i32 0, ptr @load_namestr), !llfi_injectfault !7
  %42 = call double @llvm.fmuladd.f64(double %fi114, double %fi94, double %40), !llfi_index !1480
  %arrayidx60 = getelementptr inbounds double, ptr %hourgam3, i64 2, !llfi_index !1481
  %43 = load double, ptr %arrayidx60, align 8, !tbaa !302, !llfi_index !1482
  %fi115 = call double @injectFault4(i64 1457, double %43, i32 32, i32 0, i32 1, i32 0, ptr @load_namestr), !llfi_injectfault !7
  %44 = call double @llvm.fmuladd.f64(double %fi115, double %fi96, double %42), !llfi_index !1483
  %arrayidx63 = getelementptr inbounds double, ptr %hourgam4, i64 2, !llfi_index !1484
  %45 = load double, ptr %arrayidx63, align 8, !tbaa !302, !llfi_index !1485
  %fi116 = call double @injectFault4(i64 1460, double %45, i32 32, i32 0, i32 1, i32 0, ptr @load_namestr), !llfi_injectfault !7
  %46 = call double @llvm.fmuladd.f64(double %fi116, double %fi98, double %44), !llfi_index !1486
  %arrayidx66 = getelementptr inbounds double, ptr %hourgam5, i64 2, !llfi_index !1487
  %47 = load double, ptr %arrayidx66, align 8, !tbaa !302, !llfi_index !1488
  %fi117 = call double @injectFault4(i64 1463, double %47, i32 32, i32 0, i32 1, i32 0, ptr @load_namestr), !llfi_injectfault !7
  %48 = call double @llvm.fmuladd.f64(double %fi117, double %fi100, double %46), !llfi_index !1489
  %arrayidx69 = getelementptr inbounds double, ptr %hourgam6, i64 2, !llfi_index !1490
  %49 = load double, ptr %arrayidx69, align 8, !tbaa !302, !llfi_index !1491
  %fi118 = call double @injectFault4(i64 1466, double %49, i32 32, i32 0, i32 1, i32 0, ptr @load_namestr), !llfi_injectfault !7
  %50 = call double @llvm.fmuladd.f64(double %fi118, double %fi102, double %48), !llfi_index !1492
  %arrayidx72 = getelementptr inbounds double, ptr %hourgam7, i64 2, !llfi_index !1493
  %51 = load double, ptr %arrayidx72, align 8, !tbaa !302, !llfi_index !1494
  %fi119 = call double @injectFault4(i64 1469, double %51, i32 32, i32 0, i32 1, i32 0, ptr @load_namestr), !llfi_injectfault !7
  %52 = call double @llvm.fmuladd.f64(double %fi119, double %fi104, double %50), !llfi_index !1495
  %arrayidx75 = getelementptr inbounds double, ptr %hourgam0, i64 3, !llfi_index !1496
  %53 = load double, ptr %arrayidx75, align 8, !tbaa !302, !llfi_index !1497
  %fi120 = call double @injectFault4(i64 1472, double %53, i32 32, i32 0, i32 1, i32 0, ptr @load_namestr), !llfi_injectfault !7
  %arrayidx78 = getelementptr inbounds double, ptr %hourgam1, i64 3, !llfi_index !1498
  %54 = load double, ptr %arrayidx78, align 8, !tbaa !302, !llfi_index !1499
  %fi121 = call double @injectFault4(i64 1474, double %54, i32 32, i32 0, i32 1, i32 0, ptr @load_namestr), !llfi_injectfault !7
  %mul80 = fmul double %fi91, %fi121, !llfi_index !1500
  %fi122 = call double @injectFault4(i64 1475, double %mul80, i32 18, i32 0, i32 1, i32 0, ptr @fmul_namestr), !llfi_injectfault !7
  %55 = call double @llvm.fmuladd.f64(double %fi120, double %fi89, double %fi122), !llfi_index !1501
  %arrayidx82 = getelementptr inbounds double, ptr %hourgam2, i64 3, !llfi_index !1502
  %56 = load double, ptr %arrayidx82, align 8, !tbaa !302, !llfi_index !1503
  %fi123 = call double @injectFault4(i64 1478, double %56, i32 32, i32 0, i32 1, i32 0, ptr @load_namestr), !llfi_injectfault !7
  %57 = call double @llvm.fmuladd.f64(double %fi123, double %fi94, double %55), !llfi_index !1504
  %arrayidx85 = getelementptr inbounds double, ptr %hourgam3, i64 3, !llfi_index !1505
  %58 = load double, ptr %arrayidx85, align 8, !tbaa !302, !llfi_index !1506
  %fi124 = call double @injectFault4(i64 1481, double %58, i32 32, i32 0, i32 1, i32 0, ptr @load_namestr), !llfi_injectfault !7
  %59 = call double @llvm.fmuladd.f64(double %fi124, double %fi96, double %57), !llfi_index !1507
  %arrayidx88 = getelementptr inbounds double, ptr %hourgam4, i64 3, !llfi_index !1508
  %60 = load double, ptr %arrayidx88, align 8, !tbaa !302, !llfi_index !1509
  %fi125 = call double @injectFault4(i64 1484, double %60, i32 32, i32 0, i32 1, i32 0, ptr @load_namestr), !llfi_injectfault !7
  %61 = call double @llvm.fmuladd.f64(double %fi125, double %fi98, double %59), !llfi_index !1510
  %arrayidx91 = getelementptr inbounds double, ptr %hourgam5, i64 3, !llfi_index !1511
  %62 = load double, ptr %arrayidx91, align 8, !tbaa !302, !llfi_index !1512
  %fi127 = call double @injectFault4(i64 1487, double %62, i32 32, i32 0, i32 1, i32 0, ptr @load_namestr), !llfi_injectfault !7
  %63 = call double @llvm.fmuladd.f64(double %fi127, double %fi100, double %61), !llfi_index !1513
  %arrayidx94 = getelementptr inbounds double, ptr %hourgam6, i64 3, !llfi_index !1514
  %64 = load double, ptr %arrayidx94, align 8, !tbaa !302, !llfi_index !1515
  %fi128 = call double @injectFault4(i64 1490, double %64, i32 32, i32 0, i32 1, i32 0, ptr @load_namestr), !llfi_injectfault !7
  %65 = call double @llvm.fmuladd.f64(double %fi128, double %fi102, double %63), !llfi_index !1516
  %arrayidx97 = getelementptr inbounds double, ptr %hourgam7, i64 3, !llfi_index !1517
  %66 = load double, ptr %arrayidx97, align 8, !tbaa !302, !llfi_index !1518
  %fi129 = call double @injectFault4(i64 1493, double %66, i32 32, i32 0, i32 1, i32 0, ptr @load_namestr), !llfi_injectfault !7
  %67 = call double @llvm.fmuladd.f64(double %fi129, double %fi104, double %65), !llfi_index !1519
  %mul103 = fmul double %fi87, %37, !llfi_index !1520
  %fi130 = call double @injectFault4(i64 1495, double %mul103, i32 18, i32 0, i32 1, i32 0, ptr @fmul_namestr), !llfi_injectfault !7
  %68 = call double @llvm.fmuladd.f64(double %fi88, double %22, double %fi130), !llfi_index !1521
  %69 = call double @llvm.fmuladd.f64(double %fi111, double %52, double %68), !llfi_index !1522
  %70 = call double @llvm.fmuladd.f64(double %fi120, double %67, double %69), !llfi_index !1523
  %mul = fmul double %70, %coefficient, !llfi_index !1524
  %fi131 = call double @injectFault4(i64 1499, double %mul, i32 18, i32 0, i32 1, i32 0, ptr @fmul_namestr), !llfi_injectfault !7
  store double %fi131, ptr %hgfx, align 8, !tbaa !302, !llfi_index !1525
  %71 = load double, ptr %hourgam1, align 8, !tbaa !302, !llfi_index !1526
  %fi132 = call double @injectFault4(i64 1501, double %71, i32 32, i32 0, i32 1, i32 0, ptr @load_namestr), !llfi_injectfault !7
  %72 = load double, ptr %arrayidx28, align 8, !tbaa !302, !llfi_index !1527
  %fi133 = call double @injectFault4(i64 1502, double %72, i32 32, i32 0, i32 1, i32 0, ptr @load_namestr), !llfi_injectfault !7
  %mul114 = fmul double %37, %fi133, !llfi_index !1528
  %fi134 = call double @injectFault4(i64 1503, double %mul114, i32 18, i32 0, i32 1, i32 0, ptr @fmul_namestr), !llfi_injectfault !7
  %73 = call double @llvm.fmuladd.f64(double %fi132, double %22, double %fi134), !llfi_index !1529
  %74 = load double, ptr %arrayidx53, align 8, !tbaa !302, !llfi_index !1530
  %fi135 = call double @injectFault4(i64 1505, double %74, i32 32, i32 0, i32 1, i32 0, ptr @load_namestr), !llfi_injectfault !7
  %75 = call double @llvm.fmuladd.f64(double %fi135, double %52, double %73), !llfi_index !1531
  %76 = load double, ptr %arrayidx78, align 8, !tbaa !302, !llfi_index !1532
  %fi136 = call double @injectFault4(i64 1507, double %76, i32 32, i32 0, i32 1, i32 0, ptr @load_namestr), !llfi_injectfault !7
  %77 = call double @llvm.fmuladd.f64(double %fi136, double %67, double %75), !llfi_index !1533
  %mul121 = fmul double %77, %coefficient, !llfi_index !1534
  %fi137 = call double @injectFault4(i64 1509, double %mul121, i32 18, i32 0, i32 1, i32 0, ptr @fmul_namestr), !llfi_injectfault !7
  %arrayidx122 = getelementptr inbounds double, ptr %hgfx, i64 1, !llfi_index !1535
  store double %fi137, ptr %arrayidx122, align 8, !tbaa !302, !llfi_index !1536
  %78 = load double, ptr %hourgam2, align 8, !tbaa !302, !llfi_index !1537
  %fi138 = call double @injectFault4(i64 1512, double %78, i32 32, i32 0, i32 1, i32 0, ptr @load_namestr), !llfi_injectfault !7
  %79 = load double, ptr %arrayidx32, align 8, !tbaa !302, !llfi_index !1538
  %fi139 = call double @injectFault4(i64 1513, double %79, i32 32, i32 0, i32 1, i32 0, ptr @load_namestr), !llfi_injectfault !7
  %mul128 = fmul double %37, %fi139, !llfi_index !1539
  %fi140 = call double @injectFault4(i64 1514, double %mul128, i32 18, i32 0, i32 1, i32 0, ptr @fmul_namestr), !llfi_injectfault !7
  %80 = call double @llvm.fmuladd.f64(double %fi138, double %22, double %fi140), !llfi_index !1540
  %81 = load double, ptr %arrayidx57, align 8, !tbaa !302, !llfi_index !1541
  %fi141 = call double @injectFault4(i64 1516, double %81, i32 32, i32 0, i32 1, i32 0, ptr @load_namestr), !llfi_injectfault !7
  %82 = call double @llvm.fmuladd.f64(double %fi141, double %52, double %80), !llfi_index !1542
  %83 = load double, ptr %arrayidx82, align 8, !tbaa !302, !llfi_index !1543
  %fi142 = call double @injectFault4(i64 1518, double %83, i32 32, i32 0, i32 1, i32 0, ptr @load_namestr), !llfi_injectfault !7
  %84 = call double @llvm.fmuladd.f64(double %fi142, double %67, double %82), !llfi_index !1544
  %mul135 = fmul double %84, %coefficient, !llfi_index !1545
  %fi143 = call double @injectFault4(i64 1520, double %mul135, i32 18, i32 0, i32 1, i32 0, ptr @fmul_namestr), !llfi_injectfault !7
  %arrayidx136 = getelementptr inbounds double, ptr %hgfx, i64 2, !llfi_index !1546
  store double %fi143, ptr %arrayidx136, align 8, !tbaa !302, !llfi_index !1547
  %85 = load double, ptr %hourgam3, align 8, !tbaa !302, !llfi_index !1548
  %fi144 = call double @injectFault4(i64 1523, double %85, i32 32, i32 0, i32 1, i32 0, ptr @load_namestr), !llfi_injectfault !7
  %86 = load double, ptr %arrayidx35, align 8, !tbaa !302, !llfi_index !1549
  %fi145 = call double @injectFault4(i64 1524, double %86, i32 32, i32 0, i32 1, i32 0, ptr @load_namestr), !llfi_injectfault !7
  %mul142 = fmul double %37, %fi145, !llfi_index !1550
  %fi146 = call double @injectFault4(i64 1525, double %mul142, i32 18, i32 0, i32 1, i32 0, ptr @fmul_namestr), !llfi_injectfault !7
  %87 = call double @llvm.fmuladd.f64(double %fi144, double %22, double %fi146), !llfi_index !1551
  %88 = load double, ptr %arrayidx60, align 8, !tbaa !302, !llfi_index !1552
  %fi147 = call double @injectFault4(i64 1527, double %88, i32 32, i32 0, i32 1, i32 0, ptr @load_namestr), !llfi_injectfault !7
  %89 = call double @llvm.fmuladd.f64(double %fi147, double %52, double %87), !llfi_index !1553
  %90 = load double, ptr %arrayidx85, align 8, !tbaa !302, !llfi_index !1554
  %fi148 = call double @injectFault4(i64 1529, double %90, i32 32, i32 0, i32 1, i32 0, ptr @load_namestr), !llfi_injectfault !7
  %91 = call double @llvm.fmuladd.f64(double %fi148, double %67, double %89), !llfi_index !1555
  %mul149 = fmul double %91, %coefficient, !llfi_index !1556
  %fi149 = call double @injectFault4(i64 1531, double %mul149, i32 18, i32 0, i32 1, i32 0, ptr @fmul_namestr), !llfi_injectfault !7
  %arrayidx150 = getelementptr inbounds double, ptr %hgfx, i64 3, !llfi_index !1557
  store double %fi149, ptr %arrayidx150, align 8, !tbaa !302, !llfi_index !1558
  %92 = load double, ptr %hourgam4, align 8, !tbaa !302, !llfi_index !1559
  %fi150 = call double @injectFault4(i64 1534, double %92, i32 32, i32 0, i32 1, i32 0, ptr @load_namestr), !llfi_injectfault !7
  %93 = load double, ptr %arrayidx38, align 8, !tbaa !302, !llfi_index !1560
  %fi151 = call double @injectFault4(i64 1535, double %93, i32 32, i32 0, i32 1, i32 0, ptr @load_namestr), !llfi_injectfault !7
  %mul156 = fmul double %37, %fi151, !llfi_index !1561
  %fi152 = call double @injectFault4(i64 1536, double %mul156, i32 18, i32 0, i32 1, i32 0, ptr @fmul_namestr), !llfi_injectfault !7
  %94 = call double @llvm.fmuladd.f64(double %fi150, double %22, double %fi152), !llfi_index !1562
  %95 = load double, ptr %arrayidx63, align 8, !tbaa !302, !llfi_index !1563
  %fi = call double @injectFault4(i64 1538, double %95, i32 32, i32 0, i32 1, i32 0, ptr @load_namestr), !llfi_injectfault !7
  %96 = call double @llvm.fmuladd.f64(double %fi, double %52, double %94), !llfi_index !1564
  %97 = load double, ptr %arrayidx88, align 8, !tbaa !302, !llfi_index !1565
  %fi1 = call double @injectFault4(i64 1540, double %97, i32 32, i32 0, i32 1, i32 0, ptr @load_namestr), !llfi_injectfault !7
  %98 = call double @llvm.fmuladd.f64(double %fi1, double %67, double %96), !llfi_index !1566
  %mul163 = fmul double %98, %coefficient, !llfi_index !1567
  %fi2 = call double @injectFault4(i64 1542, double %mul163, i32 18, i32 0, i32 1, i32 0, ptr @fmul_namestr), !llfi_injectfault !7
  %arrayidx164 = getelementptr inbounds double, ptr %hgfx, i64 4, !llfi_index !1568
  store double %fi2, ptr %arrayidx164, align 8, !tbaa !302, !llfi_index !1569
  %99 = load double, ptr %hourgam5, align 8, !tbaa !302, !llfi_index !1570
  %fi3 = call double @injectFault4(i64 1545, double %99, i32 32, i32 0, i32 1, i32 0, ptr @load_namestr), !llfi_injectfault !7
  %100 = load double, ptr %arrayidx41, align 8, !tbaa !302, !llfi_index !1571
